 oracledb

 Timestamp is 5a1a31de (Sun Nov 26 10:15:42 2017)

 Preferred load address is 0000000180000000

 Start         Length     Name                   Class
 0001:00000000 000000f0H .text$di                CODE
 0001:000000f0 0004ec00H .text$mn                CODE
 0001:0004ecf0 000000e0H .text$mn$00             CODE
 0001:0004edd0 00003710H .text$x                 CODE
 0001:000524e0 00000218H .text$yd                CODE
 0002:00000000 00000408H .idata$5                DATA
 0002:00000408 00000020H .00cfg                  DATA
 0002:00000428 00000008H .CRT$XCA                DATA
 0002:00000430 00000018H .CRT$XCC                DATA
 0002:00000448 00000010H .CRT$XCL                DATA
 0002:00000458 00000038H .CRT$XCU                DATA
 0002:00000490 00000008H .CRT$XCZ                DATA
 0002:00000498 00000008H .CRT$XIA                DATA
 0002:000004a0 00000030H .CRT$XIC                DATA
 0002:000004d0 00000008H .CRT$XIZ                DATA
 0002:000004d8 00000008H .CRT$XLA                DATA
 0002:000004e0 00000008H .CRT$XLZ                DATA
 0002:000004e8 00000008H .CRT$XPA                DATA
 0002:000004f0 00000010H .CRT$XPX                DATA
 0002:00000500 00000008H .CRT$XPXA               DATA
 0002:00000508 00000008H .CRT$XPZ                DATA
 0002:00000510 00000008H .CRT$XTA                DATA
 0002:00000518 00000008H .CRT$XTZ                DATA
 0002:00000520 00000000H .gfids$y                DATA
 0002:00000520 000140b8H .rdata                  DATA
 0002:000145d8 00000028H .rdata$T                DATA
 0002:00014600 0000090cH .rdata$r                DATA
 0002:00014f0c 00000494H .rdata$zzzdbg           DATA
 0002:000153a0 00000008H .rtc$IAA                DATA
 0002:000153a8 00000008H .rtc$IZZ                DATA
 0002:000153b0 00000008H .rtc$TAA                DATA
 0002:000153b8 00000008H .rtc$TZZ                DATA
 0002:000153c0 00000004H .tls                    DATA
 0002:000153c4 00000004H .tls$                   DATA
 0002:000153c8 00000008H .tls$ZZZ                DATA
 0002:000153d0 00008108H .xdata                  DATA
 0002:0001d4d8 000002fcH .xdata$x                DATA
 0002:0001d7d4 00000020H .didat$2                DATA
 0002:0001d7f4 00000024H .didat$3                DATA
 0002:0001d818 000002b0H .didat$4                DATA
 0002:0001dac8 000015b8H .didat$6                DATA
 0002:0001f080 000002b0H .didat$7                DATA
 0002:0001f330 00000054H .edata                  DATA
 0002:0001f384 00000028H .idata$2                DATA
 0002:0001f3ac 00000014H .idata$3                DATA
 0002:0001f3c0 00000408H .idata$4                DATA
 0002:0001f7c8 0000096eH .idata$6                DATA
 0003:00000000 00000ac0H .data                   DATA
 0003:00000ac0 00000398H .data$r                 DATA
 0003:00000e58 000002b8H .didat$5                DATA
 0003:00001110 000018b4H .bss                    DATA
 0004:00000000 00003648H .pdata                  DATA
 0005:00000000 00000060H .rsrc$01                DATA
 0005:00000060 00000180H .rsrc$02                DATA

  Address         Publics by Value              Rva+Base               Lib:Object

 0000:00000000       __guard_iat_table          0000000000000000     <absolute>
 0000:00000000       __dynamic_value_reloc_table 0000000000000000     <absolute>
 0000:00000000       __guard_longjmp_table      0000000000000000     <absolute>
 0000:00000000       __hybrid_code_map_count    0000000000000000     <absolute>
 0000:00000000       __guard_longjmp_count      0000000000000000     <absolute>
 0000:00000000       __guard_iat_count          0000000000000000     <absolute>
 0000:00000000       __hybrid_auxiliary_iat     0000000000000000     <absolute>
 0000:00000000       __hybrid_code_map          0000000000000000     <absolute>
 0000:00000000       __guard_fids_count         0000000000000000     <absolute>
 0000:00000000       __enclave_config           0000000000000000     <absolute>
 0000:00000000       ___safe_se_handler_table   0000000000000000     <absolute>
 0000:00000000       ___safe_se_handler_count   0000000000000000     <absolute>
 0000:00000000       __guard_fids_table         0000000000000000     <absolute>
 0000:00000100       __guard_flags              0000000000000100     <absolute>
 0000:00000000       __ImageBase                0000000180000000     <linker-defined>
 0001:000000f0       __local_stdio_printf_options 00000001800010f0 f i njsOracle.obj
 0001:00000100       sprintf_s                  0000000180001100 f i njsOracle.obj
 0001:00000160       ?what@exception@stdext@@UEBAPEBDXZ 0000000180001160 f i njsOracle.obj
 0001:00000180       ?_Raise@exception@stdext@@QEBAXXZ 0000000180001180 f i njsOracle.obj
 0001:000001c0       ?imbue@?$basic_streambuf@DU?$char_traits@D@std@@@std@@MEAAXAEBVlocale@2@@Z 00000001800011c0 f i njsOracle.obj
 0001:000001c0       ??1?$_String_alloc@U?$_String_base_types@DV?$allocator@D@std@@@std@@@std@@QEAA@XZ 00000001800011c0 f i njsOracle.obj
 0001:000001c0       ?lobPrefetchSize@ConnImpl@@UEAAXI@Z 00000001800011c0 f i dpiConnImpl.obj
 0001:000001c0       ?_Lock@?$basic_streambuf@DU?$char_traits@D@std@@@std@@UEAAXXZ 00000001800011c0 f i njsOracle.obj
 0001:000001c0       ?_Orphan_all@?$_String_alloc@U?$_String_base_types@DV?$allocator@D@std@@@std@@@std@@QEAAXXZ 00000001800011c0 f i njsOracle.obj
 0001:000001c0       ?_Doraise@exception@stdext@@MEBAXXZ 00000001800011c0 f i njsOracle.obj
 0001:000001c0       _guard_check_icall_nop     00000001800011c0 f i LIBCMT:guard_support.obj
 0001:000001c0       ?_Unlock@?$basic_streambuf@DU?$char_traits@D@std@@@std@@UEAAXXZ 00000001800011c0 f i njsOracle.obj
 0001:000001d0       ??_EException@dpi@@UEAAPEAXI@Z 00000001800011d0 f i * CIL library *:* CIL module *
 0001:000001d0       ??_Eexception@stdext@@UEAAPEAXI@Z 00000001800011d0 f i * CIL library *:* CIL module *
 0001:000001d0       ??_Eruntime_error@std@@UEAAPEAXI@Z 00000001800011d0 f i * CIL library *:* CIL module *
 0001:000001d0       ??_Gexception@stdext@@UEAAPEAXI@Z 00000001800011d0 f i njsOracle.obj
 0001:000001d0       ??_GException@dpi@@UEAAPEAXI@Z 00000001800011d0 f i dpiEnvImpl.obj
 0001:000001d0       ??_Gruntime_error@std@@UEAAPEAXI@Z 00000001800011d0 f i njsOracle.obj
 0001:00000200       ??0runtime_error@std@@QEAA@PEBD@Z 0000000180001200 f i njsOracle.obj
 0001:00000220       ??1runtime_error@std@@UEAA@XZ 0000000180001220 f i njsOracle.obj
 0001:00000220       ??1Exception@dpi@@UEAA@XZ  0000000180001220 f i dpiException.obj
 0001:00000220       ??1failure@ios_base@std@@UEAA@XZ 0000000180001220 f i njsOracle.obj
 0001:00000230       ??0_Locinfo@std@@QEAA@PEBD@Z 0000000180001230 f i njsOracle.obj
 0001:000002c0       ??1_Locinfo@std@@QEAA@XZ   00000001800012c0 f i njsOracle.obj
 0001:00000360       ??_E_Facet_base@std@@UEAAPEAXI@Z 0000000180001360 f i * CIL library *:* CIL module *
 0001:00000360       ??_G_Facet_base@std@@UEAAPEAXI@Z 0000000180001360 f i njsOracle.obj
 0001:00000390       ?_Incref@facet@locale@std@@UEAAXXZ 0000000180001390 f i njsOracle.obj
 0001:000003a0       ?_Decref@facet@locale@std@@UEAAPEAV_Facet_base@3@XZ 00000001800013a0 f i njsOracle.obj
 0001:000003b0       ??1facet@locale@std@@MEAA@XZ 00000001800013b0 f i njsOracle.obj
 0001:000003c0       ??1locale@std@@QEAA@XZ     00000001800013c0 f i njsOracle.obj
 0001:000003f0       ?do_tolower@?$ctype@D@std@@MEBADD@Z 00000001800013f0 f i njsOracle.obj
 0001:00000400       ?do_tolower@?$ctype@D@std@@MEBAPEBDPEADPEBD@Z 0000000180001400 f i njsOracle.obj
 0001:00000460       ?do_toupper@?$ctype@D@std@@MEBADD@Z 0000000180001460 f i njsOracle.obj
 0001:00000470       ?do_toupper@?$ctype@D@std@@MEBAPEBDPEADPEBD@Z 0000000180001470 f i njsOracle.obj
 0001:000004d0       ?do_narrow@?$ctype@D@std@@MEBADDD@Z 00000001800014d0 f i njsOracle.obj
 0001:000004d0       ?do_widen@?$ctype@D@std@@MEBADD@Z 00000001800014d0 f i njsOracle.obj
 0001:000004e0       ?do_widen@?$ctype@D@std@@MEBAPEBDPEBD0PEAD@Z 00000001800014e0 f i njsOracle.obj
 0001:00000500       ?do_narrow@?$ctype@D@std@@MEBAPEBDPEBD0DPEAD@Z 0000000180001500 f i njsOracle.obj
 0001:00000520       ??_E?$ctype@D@std@@MEAAPEAXI@Z 0000000180001520 f i * CIL library *:* CIL module *
 0001:00000520       ??_G?$ctype@D@std@@MEAAPEAXI@Z 0000000180001520 f i njsOracle.obj
 0001:00000590       ?default_error_condition@error_category@std@@UEBA?AVerror_condition@2@H@Z 0000000180001590 f i njsOracle.obj
 0001:000005a0       ?equivalent@error_category@std@@UEBA_NHAEBVerror_condition@2@@Z 00000001800015a0 f i njsOracle.obj
 0001:00000600       ?equivalent@error_category@std@@UEBA_NAEBVerror_code@2@H@Z 0000000180001600 f i njsOracle.obj
 0001:00000620       ?make_error_code@std@@YA?AVerror_code@1@W4io_errc@1@@Z 0000000180001620 f i njsOracle.obj
 0001:000006c0       ?_Makestr@_System_error@std@@CA?AV?$basic_string@DU?$char_traits@D@std@@V?$allocator@D@2@@2@Verror_code@2@V32@@Z 00000001800016c0 f i njsOracle.obj
 0001:00000880       ??_E_System_error@std@@UEAAPEAXI@Z 0000000180001880 f i * CIL library *:* CIL module *
 0001:00000880       ??_G_System_error@std@@UEAAPEAXI@Z 0000000180001880 f i njsOracle.obj
 0001:00000880       ??_Efailure@ios_base@std@@UEAAPEAXI@Z 0000000180001880 f i * CIL library *:* CIL module *
 0001:00000880       ??_Gfailure@ios_base@std@@UEAAPEAXI@Z 0000000180001880 f i njsOracle.obj
 0001:000008b0       ?name@_Iostream_error_category@std@@UEBAPEBDXZ 00000001800018b0 f i njsOracle.obj
 0001:000008c0       ?message@_Iostream_error_category@std@@UEBA?AV?$basic_string@DU?$char_traits@D@std@@V?$allocator@D@2@@2@H@Z 00000001800018c0 f i njsOracle.obj
 0001:00000940       ??_E_Iostream_error_category@std@@UEAAPEAXI@Z 0000000180001940 f i * CIL library *:* CIL module *
 0001:00000940       ??_G_Iostream_error_category@std@@UEAAPEAXI@Z 0000000180001940 f i njsOracle.obj
 0001:00000970       ??0failure@ios_base@std@@QEAA@PEBDAEBVerror_code@2@@Z 0000000180001970 f i njsOracle.obj
 0001:00000b00       ?_Doraise@failure@ios_base@std@@MEBAXXZ 0000000180001b00 f i njsOracle.obj
 0001:00000b20       ?clear@ios_base@std@@QEAAXH_N@Z 0000000180001b20 f i njsOracle.obj
 0001:00000bc0       ??_Eios_base@std@@UEAAPEAXI@Z 0000000180001bc0 f i * CIL library *:* CIL module *
 0001:00000bc0       ??_Gios_base@std@@UEAAPEAXI@Z 0000000180001bc0 f i njsOracle.obj
 0001:00000e80       ?New@?$Factory@VFunctionTemplate@v8@@@imp@Nan@@SA?AV?$Local@VFunctionTemplate@v8@@@v8@@P6AXAEBV?$FunctionCallbackInfo@VValue@v8@@@3@@ZV?$Local@VValue@v8@@@5@V?$Local@VSignature@v8@@@5@@Z 0000000180001e80 f i njsOracle.obj
 0001:00001040       ?ThrowError@Nan@@YAXPEBD@Z 0000000180002040 f i njsOracle.obj
 0001:000010e0       ??1HandleScope@Nan@@QEAA@XZ 00000001800020e0 f i njsOracle.obj
 0001:000010e0       ??1EscapableHandleScope@Nan@@QEAA@XZ 00000001800020e0 f i njsPool.obj
 0001:000010f0       ??1?$Persistent@VFunction@v8@@V?$NonCopyablePersistentTraits@VFunction@v8@@@2@@Nan@@QEAA@XZ 00000001800020f0 f i njsOracle.obj
 0001:000010f0       ??1?$Persistent@VObject@v8@@V?$NonCopyablePersistentTraits@VObject@v8@@@2@@Nan@@QEAA@XZ 00000001800020f0 f i njsOracle.obj
 0001:00001110       ?SetPrototypeMethod@Nan@@YAXV?$Local@VFunctionTemplate@v8@@@v8@@PEBDP6AXAEBV?$FunctionCallbackInfo@VValue@v8@@@1@@Z@Z 0000000180002110 f i njsOracle.obj
 0001:00001200       ?SetAccessor@Nan@@YAXV?$Local@VObjectTemplate@v8@@@v8@@V?$Local@VString@v8@@@3@P6AX1AEBV?$PropertyCallbackInfo@VValue@v8@@@1@@ZP6AX1V?$Local@VValue@v8@@@3@AEBV?$PropertyCallbackInfo@X@1@@Z4W4AccessControl@3@W4PropertyAttribute@3@V?$Local@VAccessorSignature@v8@@@3@@Z 0000000180002200 f i njsOracle.obj
 0001:000013c0       ??1ObjectWrap@Nan@@UEAA@XZ 00000001800023c0 f i njsOracle.obj
 0001:00001440       ?Wrap@ObjectWrap@Nan@@IEAAXV?$Local@VObject@v8@@@v8@@@Z 0000000180002440 f i njsOracle.obj
 0001:00001520       ?Ref@ObjectWrap@Nan@@MEAAXXZ 0000000180002520 f i njsOracle.obj
 0001:00001560       ?Unref@ObjectWrap@Nan@@MEAAXXZ 0000000180002560 f i njsOracle.obj
 0001:00001610       ?WeakCallback@ObjectWrap@Nan@@CAXAEBV?$WeakCallbackInfo@VObjectWrap@Nan@@@v8@@@Z 0000000180002610 f i njsOracle.obj
 0001:000016a0       ??_EObjectWrap@Nan@@UEAAPEAXI@Z 00000001800026a0 f i * CIL library *:* CIL module *
 0001:000016a0       ??_GObjectWrap@Nan@@UEAAPEAXI@Z 00000001800026a0 f i njsOracle.obj
 0001:000016e0       ??0connectionBaton@@QEAA@V?$Local@VFunction@v8@@@v8@@V?$Local@VObject@v8@@@2@@Z 00000001800026e0 f i njsOracle.obj
 0001:000018b0       ??1connectionBaton@@QEAA@XZ 00000001800028b0 f i njsOracle.obj
 0001:00001b00       ??0Oracledb@@AEAA@XZ       0000000180002b00 f   njsOracle.obj
 0001:00001de0       ??_EOracledb@@EEAAPEAXI@Z  0000000180002de0 f i * CIL library *:* CIL module *
 0001:00001de0       ??_GOracledb@@EEAAPEAXI@Z  0000000180002de0 f i njsOracle.obj
 0001:00001e20       ??1Oracledb@@EEAA@XZ       0000000180002e20 f   njsOracle.obj
 0001:00001fa0       ??_D?$basic_stringstream@DU?$char_traits@D@std@@V?$allocator@D@2@@std@@QEAAXXZ 0000000180002fa0 f i njsOracle.obj
 0001:00002090       ?Init@Oracledb@@SAXV?$Local@VObject@v8@@@v8@@@Z 0000000180003090 f   njsOracle.obj
 0001:000029b0       ?New@Oracledb@@CAXAEBV?$FunctionCallbackInfo@VValue@v8@@@Nan@@@Z 00000001800039b0 f   njsOracle.obj
 0001:00002ab0       ?GetPoolMin@Oracledb@@CAXV?$Local@VString@v8@@@v8@@AEBV?$PropertyCallbackInfo@VValue@v8@@@Nan@@@Z 0000000180003ab0 f   njsOracle.obj
 0001:00002bd0       ?SetPoolMin@Oracledb@@CAXV?$Local@VString@v8@@@v8@@V?$Local@VValue@v8@@@3@AEBV?$PropertyCallbackInfo@X@Nan@@@Z 0000000180003bd0 f   njsOracle.obj
 0001:00002e10       ?GetPoolMax@Oracledb@@CAXV?$Local@VString@v8@@@v8@@AEBV?$PropertyCallbackInfo@VValue@v8@@@Nan@@@Z 0000000180003e10 f   njsOracle.obj
 0001:00002f30       ?SetPoolMax@Oracledb@@CAXV?$Local@VString@v8@@@v8@@V?$Local@VValue@v8@@@3@AEBV?$PropertyCallbackInfo@X@Nan@@@Z 0000000180003f30 f   njsOracle.obj
 0001:00003170       ?GetPoolIncrement@Oracledb@@CAXV?$Local@VString@v8@@@v8@@AEBV?$PropertyCallbackInfo@VValue@v8@@@Nan@@@Z 0000000180004170 f   njsOracle.obj
 0001:000032f0       ?SetPoolIncrement@Oracledb@@CAXV?$Local@VString@v8@@@v8@@V?$Local@VValue@v8@@@3@AEBV?$PropertyCallbackInfo@X@Nan@@@Z 00000001800042f0 f   njsOracle.obj
 0001:00003530       ?GetPoolTimeout@Oracledb@@CAXV?$Local@VString@v8@@@v8@@AEBV?$PropertyCallbackInfo@VValue@v8@@@Nan@@@Z 0000000180004530 f   njsOracle.obj
 0001:00003650       ?SetPoolTimeout@Oracledb@@CAXV?$Local@VString@v8@@@v8@@V?$Local@VValue@v8@@@3@AEBV?$PropertyCallbackInfo@X@Nan@@@Z 0000000180004650 f   njsOracle.obj
 0001:00003890       ?GetMaxRows@Oracledb@@CAXV?$Local@VString@v8@@@v8@@AEBV?$PropertyCallbackInfo@VValue@v8@@@Nan@@@Z 0000000180004890 f   njsOracle.obj
 0001:00003a10       ?SetMaxRows@Oracledb@@CAXV?$Local@VString@v8@@@v8@@V?$Local@VValue@v8@@@3@AEBV?$PropertyCallbackInfo@X@Nan@@@Z 0000000180004a10 f   njsOracle.obj
 0001:00003cc0       ?GetOutFormat@Oracledb@@CAXV?$Local@VString@v8@@@v8@@AEBV?$PropertyCallbackInfo@VValue@v8@@@Nan@@@Z 0000000180004cc0 f   njsOracle.obj
 0001:00003de0       ?SetOutFormat@Oracledb@@CAXV?$Local@VString@v8@@@v8@@V?$Local@VValue@v8@@@3@AEBV?$PropertyCallbackInfo@X@Nan@@@Z 0000000180004de0 f   njsOracle.obj
 0001:00004020       ?GetStmtCacheSize@Oracledb@@CAXV?$Local@VString@v8@@@v8@@AEBV?$PropertyCallbackInfo@VValue@v8@@@Nan@@@Z 0000000180005020 f   njsOracle.obj
 0001:000041a0       ?SetStmtCacheSize@Oracledb@@CAXV?$Local@VString@v8@@@v8@@V?$Local@VValue@v8@@@3@AEBV?$PropertyCallbackInfo@X@Nan@@@Z 00000001800051a0 f   njsOracle.obj
 0001:000043e0       ?GetPrefetchRows@Oracledb@@CAXV?$Local@VString@v8@@@v8@@AEBV?$PropertyCallbackInfo@VValue@v8@@@Nan@@@Z 00000001800053e0 f   njsOracle.obj
 0001:00004500       ?SetPrefetchRows@Oracledb@@CAXV?$Local@VString@v8@@@v8@@V?$Local@VValue@v8@@@3@AEBV?$PropertyCallbackInfo@X@Nan@@@Z 0000000180005500 f   njsOracle.obj
 0001:00004740       ?GetAutoCommit@Oracledb@@CAXV?$Local@VString@v8@@@v8@@AEBV?$PropertyCallbackInfo@VValue@v8@@@Nan@@@Z 0000000180005740 f   njsOracle.obj
 0001:00004850       ?SetAutoCommit@Oracledb@@CAXV?$Local@VString@v8@@@v8@@V?$Local@VValue@v8@@@3@AEBV?$PropertyCallbackInfo@X@Nan@@@Z 0000000180005850 f   njsOracle.obj
 0001:00004930       ?GetExtendedMetaData@Oracledb@@CAXV?$Local@VString@v8@@@v8@@AEBV?$PropertyCallbackInfo@VValue@v8@@@Nan@@@Z 0000000180005930 f   njsOracle.obj
 0001:00004a40       ?SetExtendedMetaData@Oracledb@@CAXV?$Local@VString@v8@@@v8@@V?$Local@VValue@v8@@@3@AEBV?$PropertyCallbackInfo@X@Nan@@@Z 0000000180005a40 f   njsOracle.obj
 0001:00004b20       ?GetVersion@Oracledb@@CAXV?$Local@VString@v8@@@v8@@AEBV?$PropertyCallbackInfo@VValue@v8@@@Nan@@@Z 0000000180005b20 f   njsOracle.obj
 0001:00004b40       ?SetVersion@Oracledb@@CAXV?$Local@VString@v8@@@v8@@V?$Local@VValue@v8@@@3@AEBV?$PropertyCallbackInfo@X@Nan@@@Z 0000000180005b40 f   njsOracle.obj
 0001:00004c80       ?GetConnectionClass@Oracledb@@CAXV?$Local@VString@v8@@@v8@@AEBV?$PropertyCallbackInfo@VValue@v8@@@Nan@@@Z 0000000180005c80 f   njsOracle.obj
 0001:00004da0       ?SetConnectionClass@Oracledb@@CAXV?$Local@VString@v8@@@v8@@V?$Local@VValue@v8@@@3@AEBV?$PropertyCallbackInfo@X@Nan@@@Z 0000000180005da0 f   njsOracle.obj
 0001:00004f30       ?GetExternalAuth@Oracledb@@CAXV?$Local@VString@v8@@@v8@@AEBV?$PropertyCallbackInfo@VValue@v8@@@Nan@@@Z 0000000180005f30 f   njsOracle.obj
 0001:00005020       ?SetExternalAuth@Oracledb@@CAXV?$Local@VString@v8@@@v8@@V?$Local@VValue@v8@@@3@AEBV?$PropertyCallbackInfo@X@Nan@@@Z 0000000180006020 f   njsOracle.obj
 0001:00005100       ?GetLobPrefetchSize@Oracledb@@CAXV?$Local@VString@v8@@@v8@@AEBV?$PropertyCallbackInfo@VValue@v8@@@Nan@@@Z 0000000180006100 f   njsOracle.obj
 0001:00005280       ?SetLobPrefetchSize@Oracledb@@CAXV?$Local@VString@v8@@@v8@@V?$Local@VValue@v8@@@3@AEBV?$PropertyCallbackInfo@X@Nan@@@Z 0000000180006280 f   njsOracle.obj
 0001:000054c0       ?GetFetchAsString@Oracledb@@CAXV?$Local@VString@v8@@@v8@@AEBV?$PropertyCallbackInfo@VValue@v8@@@Nan@@@Z 00000001800064c0 f   njsOracle.obj
 0001:000056e0       ?SetFetchAsString@Oracledb@@CAXV?$Local@VString@v8@@@v8@@V?$Local@VValue@v8@@@3@AEBV?$PropertyCallbackInfo@X@Nan@@@Z 00000001800066e0 f   njsOracle.obj
 0001:00005b30       ?GetFetchAsBuffer@Oracledb@@CAXV?$Local@VString@v8@@@v8@@AEBV?$PropertyCallbackInfo@VValue@v8@@@Nan@@@Z 0000000180006b30 f   njsOracle.obj
 0001:00005d50       ?SetFetchAsBuffer@Oracledb@@CAXV?$Local@VString@v8@@@v8@@V?$Local@VValue@v8@@@3@AEBV?$PropertyCallbackInfo@X@Nan@@@Z 0000000180006d50 f   njsOracle.obj
 0001:000061a0       ?GetOracleClientVersion@Oracledb@@CAXV?$Local@VString@v8@@@v8@@AEBV?$PropertyCallbackInfo@VValue@v8@@@Nan@@@Z 00000001800071a0 f   njsOracle.obj
 0001:00006320       ?SetOracleClientVersion@Oracledb@@CAXV?$Local@VString@v8@@@v8@@V?$Local@VValue@v8@@@3@AEBV?$PropertyCallbackInfo@X@Nan@@@Z 0000000180007320 f   njsOracle.obj
 0001:00006460       ?GetPoolPingInterval@Oracledb@@CAXV?$Local@VString@v8@@@v8@@AEBV?$PropertyCallbackInfo@VValue@v8@@@Nan@@@Z 0000000180007460 f   njsOracle.obj
 0001:000065e0       ?SetPoolPingInterval@Oracledb@@CAXV?$Local@VString@v8@@@v8@@V?$Local@VValue@v8@@@3@AEBV?$PropertyCallbackInfo@X@Nan@@@Z 00000001800075e0 f   njsOracle.obj
 0001:00006820       ?GetConnection@Oracledb@@CAXAEBV?$FunctionCallbackInfo@VValue@v8@@@Nan@@@Z 0000000180007820 f   njsOracle.obj
 0001:00007570       ??_GconnectionBaton@@QEAAPEAXI@Z 0000000180008570 f i njsOracle.obj
 0001:000075a0       ?Async_GetConnection@Oracledb@@CAXPEAUuv_work_s@@@Z 00000001800085a0 f   njsOracle.obj
 0001:00007700       ?Async_AfterGetConnection@Oracledb@@CAXPEAUuv_work_s@@@Z 0000000180008700 f   njsOracle.obj
 0001:000079b0       ??1TryCatch@Nan@@QEAA@XZ   00000001800089b0 f i njsOracle.obj
 0001:000079c0       ?CreatePool@Oracledb@@CAXAEBV?$FunctionCallbackInfo@VValue@v8@@@Nan@@@Z 00000001800089c0 f   njsOracle.obj
 0001:00008ce0       ?Async_CreatePool@Oracledb@@CAXPEAUuv_work_s@@@Z 0000000180009ce0 f   njsOracle.obj
 0001:00008eb0       ?Async_AfterCreatePool@Oracledb@@CAXPEAUuv_work_s@@@Z 0000000180009eb0 f   njsOracle.obj
 0001:00009270       ??1?$_Yarn@_W@std@@QEAA@XZ 000000018000a270 f i njsOracle.obj
 0001:00009270       ??1?$_Yarn@D@std@@QEAA@XZ  000000018000a270 f i njsOracle.obj
 0001:000092a0       ??1fetchInfo@@QEAA@XZ      000000018000a2a0 f i njsConnection.obj
 0001:000092a0       ??1MetaInfo@@QEAA@XZ       000000018000a2a0 f i njsConnection.obj
 0001:000092a0       ??1?$basic_string@DU?$char_traits@D@std@@V?$allocator@D@2@@std@@QEAA@XZ 000000018000a2a0 f i njsOracle.obj
 0001:000092a0       ?_Tidy_deallocate@?$basic_string@DU?$char_traits@D@std@@V?$allocator@D@2@@std@@QEAAXXZ 000000018000a2a0 f i njsOracle.obj
 0001:00009310       ??4?$basic_string@DU?$char_traits@D@std@@V?$allocator@D@2@@std@@QEAAAEAV01@$$QEAV01@@Z 000000018000a310 f i njsOracle.obj
 0001:00009360       ??0?$basic_string@DU?$char_traits@D@std@@V?$allocator@D@2@@std@@QEAA@QEBD@Z 000000018000a360 f i njsOracle.obj
 0001:000093a0       ??0?$basic_string@DU?$char_traits@D@std@@V?$allocator@D@2@@std@@QEAA@AEBV01@@Z 000000018000a3a0 f i njsOracle.obj
 0001:00009480       ??0?$basic_stringstream@DU?$char_traits@D@std@@V?$allocator@D@2@@std@@QEAA@H@Z 000000018000a480 f i njsOracle.obj
 0001:000095b0       ?seekpos@?$basic_stringbuf@DU?$char_traits@D@std@@V?$allocator@D@2@@std@@MEAA?AV?$fpos@U_Mbstatet@@@2@V32@H@Z 000000018000a5b0 f i njsOracle.obj
 0001:000096c0       ?seekoff@?$basic_stringbuf@DU?$char_traits@D@std@@V?$allocator@D@2@@std@@MEAA?AV?$fpos@U_Mbstatet@@@2@_JHH@Z 000000018000a6c0 f i njsOracle.obj
 0001:00009850       ?underflow@?$basic_stringbuf@DU?$char_traits@D@std@@V?$allocator@D@2@@std@@MEAAHXZ 000000018000a850 f i njsOracle.obj
 0001:000098b0       ?pbackfail@?$basic_stringbuf@DU?$char_traits@D@std@@V?$allocator@D@2@@std@@MEAAHH@Z 000000018000a8b0 f i njsOracle.obj
 0001:00009900       ?overflow@?$basic_stringbuf@DU?$char_traits@D@std@@V?$allocator@D@2@@std@@MEAAHH@Z 000000018000a900 f i njsOracle.obj
 0001:00009b50       ??1?$basic_stringbuf@DU?$char_traits@D@std@@V?$allocator@D@2@@std@@UEAA@XZ 000000018000ab50 f i njsOracle.obj
 0001:00009c60       ??1?$basic_iostream@DU?$char_traits@D@std@@@std@@UEAA@XZ 000000018000ac60 f i njsOracle.obj
 0001:00009ce0       ??6?$basic_ostream@DU?$char_traits@D@std@@@std@@QEAAAEAV01@H@Z 000000018000ace0 f i njsOracle.obj
 0001:00009fa0       ??1?$basic_istream@DU?$char_traits@D@std@@@std@@UEAA@XZ 000000018000afa0 f i njsOracle.obj
 0001:00009fd0       ?sync@?$basic_streambuf@DU?$char_traits@D@std@@@std@@MEAAHXZ 000000018000afd0 f i njsOracle.obj
 0001:00009fd0       ?showmanyc@?$basic_streambuf@DU?$char_traits@D@std@@@std@@MEAA_JXZ 000000018000afd0 f i njsOracle.obj
 0001:00009fe0       ?setbuf@?$basic_streambuf@DU?$char_traits@D@std@@@std@@MEAAPEAV12@PEAD_J@Z 000000018000afe0 f i njsOracle.obj
 0001:00009ff0       ?seekpos@?$basic_streambuf@DU?$char_traits@D@std@@@std@@MEAA?AV?$fpos@U_Mbstatet@@@2@V32@H@Z 000000018000aff0 f i njsOracle.obj
 0001:00009ff0       ?seekoff@?$basic_streambuf@DU?$char_traits@D@std@@@std@@MEAA?AV?$fpos@U_Mbstatet@@@2@_JHH@Z 000000018000aff0 f i njsOracle.obj
 0001:0000a010       ?xsputn@?$basic_streambuf@DU?$char_traits@D@std@@@std@@MEAA_JPEBD_J@Z 000000018000b010 f i njsOracle.obj
 0001:0000a0d0       ?xsgetn@?$basic_streambuf@DU?$char_traits@D@std@@@std@@MEAA_JPEAD_J@Z 000000018000b0d0 f i njsOracle.obj
 0001:0000a1c0       ?uflow@?$basic_streambuf@DU?$char_traits@D@std@@@std@@MEAAHXZ 000000018000b1c0 f i njsOracle.obj
 0001:0000a200       ?underflow@?$basic_streambuf@DU?$char_traits@D@std@@@std@@MEAAHXZ 000000018000b200 f i njsOracle.obj
 0001:0000a200       ?overflow@?$basic_streambuf@DU?$char_traits@D@std@@@std@@MEAAHH@Z 000000018000b200 f i njsOracle.obj
 0001:0000a200       ?pbackfail@?$basic_streambuf@DU?$char_traits@D@std@@@std@@MEAAHH@Z 000000018000b200 f i njsOracle.obj
 0001:0000a210       ??1?$basic_streambuf@DU?$char_traits@D@std@@@std@@UEAA@XZ 000000018000b210 f i njsOracle.obj
 0001:0000a270       ??1?$basic_ios@DU?$char_traits@D@std@@@std@@UEAA@XZ 000000018000b270 f i njsOracle.obj
 0001:0000a280       ??_G?$basic_stringstream@DU?$char_traits@D@std@@V?$allocator@D@2@@std@@UEAAPEAXI@Z 000000018000b280 f i njsOracle.obj
 0001:0000a280       ??_E?$basic_stringstream@DU?$char_traits@D@std@@V?$allocator@D@2@@std@@UEAAPEAXI@Z 000000018000b280 f i * CIL library *:* CIL module *
 0001:0000a2c0       ??_G?$basic_stringbuf@DU?$char_traits@D@std@@V?$allocator@D@2@@std@@UEAAPEAXI@Z 000000018000b2c0 f i njsOracle.obj
 0001:0000a2c0       ??_E?$basic_stringbuf@DU?$char_traits@D@std@@V?$allocator@D@2@@std@@UEAAPEAXI@Z 000000018000b2c0 f i * CIL library *:* CIL module *
 0001:0000a300       ??_E?$basic_iostream@DU?$char_traits@D@std@@@std@@UEAAPEAXI@Z 000000018000b300 f i * CIL library *:* CIL module *
 0001:0000a300       ??_G?$basic_iostream@DU?$char_traits@D@std@@@std@@UEAAPEAXI@Z 000000018000b300 f i njsOracle.obj
 0001:0000a3c0       ??_E?$basic_ostream@DU?$char_traits@D@std@@@std@@UEAAPEAXI@Z 000000018000b3c0 f i * CIL library *:* CIL module *
 0001:0000a3c0       ??_G?$basic_ostream@DU?$char_traits@D@std@@@std@@UEAAPEAXI@Z 000000018000b3c0 f i njsOracle.obj
 0001:0000a430       ??_G?$basic_istream@DU?$char_traits@D@std@@@std@@UEAAPEAXI@Z 000000018000b430 f i njsOracle.obj
 0001:0000a430       ??_E?$basic_istream@DU?$char_traits@D@std@@@std@@UEAAPEAXI@Z 000000018000b430 f i * CIL library *:* CIL module *
 0001:0000a4a0       ??_E?$basic_streambuf@DU?$char_traits@D@std@@@std@@UEAAPEAXI@Z 000000018000b4a0 f i * CIL library *:* CIL module *
 0001:0000a4a0       ??_G?$basic_streambuf@DU?$char_traits@D@std@@@std@@UEAAPEAXI@Z 000000018000b4a0 f i njsOracle.obj
 0001:0000a520       ??_Glocale@std@@QEAAPEAXI@Z 000000018000b520 f i njsOracle.obj
 0001:0000a580       ??_G?$basic_ios@DU?$char_traits@D@std@@@std@@UEAAPEAXI@Z 000000018000b580 f i njsOracle.obj
 0001:0000a580       ??_E?$basic_ios@DU?$char_traits@D@std@@@std@@UEAAPEAXI@Z 000000018000b580 f i * CIL library *:* CIL module *
 0001:0000a5c0       ??1sentry@?$basic_ostream@DU?$char_traits@D@std@@@std@@QEAA@XZ 000000018000b5c0 f i njsOracle.obj
 0001:0000a660       ??0sentry@?$basic_ostream@DU?$char_traits@D@std@@@std@@QEAA@AEAV12@@Z 000000018000b660 f i njsOracle.obj
 0001:0000a800       ?do_put@?$num_put@DV?$ostreambuf_iterator@DU?$char_traits@D@std@@@std@@@std@@MEBA?AV?$ostreambuf_iterator@DU?$char_traits@D@std@@@2@V32@AEAVios_base@2@DPEBX@Z 000000018000b800 f i njsOracle.obj
 0001:0000a8a0       ?do_put@?$num_put@DV?$ostreambuf_iterator@DU?$char_traits@D@std@@@std@@@std@@MEBA?AV?$ostreambuf_iterator@DU?$char_traits@D@std@@@2@V32@AEAVios_base@2@DO@Z 000000018000b8a0 f i njsOracle.obj
 0001:0000ab60       ?do_put@?$num_put@DV?$ostreambuf_iterator@DU?$char_traits@D@std@@@std@@@std@@MEBA?AV?$ostreambuf_iterator@DU?$char_traits@D@std@@@2@V32@AEAVios_base@2@DN@Z 000000018000bb60 f i njsOracle.obj
 0001:0000ae20       ?do_put@?$num_put@DV?$ostreambuf_iterator@DU?$char_traits@D@std@@@std@@@std@@MEBA?AV?$ostreambuf_iterator@DU?$char_traits@D@std@@@2@V32@AEAVios_base@2@D_K@Z 000000018000be20 f i njsOracle.obj
 0001:0000af40       ?do_put@?$num_put@DV?$ostreambuf_iterator@DU?$char_traits@D@std@@@std@@@std@@MEBA?AV?$ostreambuf_iterator@DU?$char_traits@D@std@@@2@V32@AEAVios_base@2@D_J@Z 000000018000bf40 f i njsOracle.obj
 0001:0000b060       ?do_put@?$num_put@DV?$ostreambuf_iterator@DU?$char_traits@D@std@@@std@@@std@@MEBA?AV?$ostreambuf_iterator@DU?$char_traits@D@std@@@2@V32@AEAVios_base@2@DK@Z 000000018000c060 f i njsOracle.obj
 0001:0000b180       ?do_put@?$num_put@DV?$ostreambuf_iterator@DU?$char_traits@D@std@@@std@@@std@@MEBA?AV?$ostreambuf_iterator@DU?$char_traits@D@std@@@2@V32@AEAVios_base@2@DJ@Z 000000018000c180 f i njsOracle.obj
 0001:0000b2a0       ?do_put@?$num_put@DV?$ostreambuf_iterator@DU?$char_traits@D@std@@@std@@@std@@MEBA?AV?$ostreambuf_iterator@DU?$char_traits@D@std@@@2@V32@AEAVios_base@2@D_N@Z 000000018000c2a0 f i njsOracle.obj
 0001:0000b5a0       ?assign@?$basic_string@DU?$char_traits@D@std@@V?$allocator@D@2@@std@@QEAAAEAV12@_KD@Z 000000018000c5a0 f i njsOracle.obj
 0001:0000b720       ?assign@?$basic_string@DU?$char_traits@D@std@@V?$allocator@D@2@@std@@QEAAAEAV12@QEBD_K@Z 000000018000c720 f i njsOracle.obj
 0001:0000b890       ?append@?$basic_string@DU?$char_traits@D@std@@V?$allocator@D@2@@std@@QEAAAEAV12@QEBD_K@Z 000000018000c890 f i njsOracle.obj
 0001:0000b910       ?allocate@?$allocator@D@std@@QEAAPEAD_K@Z 000000018000c910 f i njsOracle.obj
 0001:0000b970       ?deallocate@?$allocator@D@std@@QEAAXQEAD_K@Z 000000018000c970 f i njsOracle.obj
 0001:0000b9b0       ??0?$basic_iostream@DU?$char_traits@D@std@@@std@@QEAA@PEAV?$basic_streambuf@DU?$char_traits@D@std@@@1@@Z 000000018000c9b0 f i njsOracle.obj
 0001:0000bb40       ?_Pnavail@?$basic_streambuf@DU?$char_traits@D@std@@@std@@IEBA_JXZ 000000018000cb40 f i njsOracle.obj
 0001:0000bb60       ?_Gnavail@?$basic_streambuf@DU?$char_traits@D@std@@@std@@IEBA_JXZ 000000018000cb60 f i njsOracle.obj
 0001:0000bb80       ??_G?$num_put@DV?$ostreambuf_iterator@DU?$char_traits@D@std@@@std@@@std@@MEAAPEAXI@Z 000000018000cb80 f i njsOracle.obj
 0001:0000bb80       ??_E?$num_put@DV?$ostreambuf_iterator@DU?$char_traits@D@std@@@std@@@std@@MEAAPEAXI@Z 000000018000cb80 f i * CIL library *:* CIL module *
 0001:0000bbb0       ?do_truename@?$numpunct@D@std@@MEBA?AV?$basic_string@DU?$char_traits@D@std@@V?$allocator@D@2@@2@XZ 000000018000cbb0 f i njsOracle.obj
 0001:0000bbf0       ?do_falsename@?$numpunct@D@std@@MEBA?AV?$basic_string@DU?$char_traits@D@std@@V?$allocator@D@2@@2@XZ 000000018000cbf0 f i njsOracle.obj
 0001:0000bc30       ?do_grouping@?$numpunct@D@std@@MEBA?AV?$basic_string@DU?$char_traits@D@std@@V?$allocator@D@2@@2@XZ 000000018000cc30 f i njsOracle.obj
 0001:0000bc70       ?do_thousands_sep@?$numpunct@D@std@@MEBADXZ 000000018000cc70 f i njsOracle.obj
 0001:0000bc80       ?do_decimal_point@?$numpunct@D@std@@MEBADXZ 000000018000cc80 f i njsOracle.obj
 0001:0000bc90       ??1_Sentry_base@?$basic_ostream@DU?$char_traits@D@std@@@std@@QEAA@XZ 000000018000cc90 f i njsOracle.obj
 0001:0000bcd0       ?_Iput@?$num_put@DV?$ostreambuf_iterator@DU?$char_traits@D@std@@@std@@@std@@AEBA?AV?$ostreambuf_iterator@DU?$char_traits@D@std@@@2@V32@AEAVios_base@2@DPEAD_K@Z 000000018000ccd0 f i njsOracle.obj
 0001:0000c390       ?_Fput@?$num_put@DV?$ostreambuf_iterator@DU?$char_traits@D@std@@@std@@@std@@AEBA?AV?$ostreambuf_iterator@DU?$char_traits@D@std@@@2@V32@AEAVios_base@2@DPEBD_K@Z 000000018000d390 f i njsOracle.obj
 0001:0000cad0       ??_G?$numpunct@D@std@@MEAAPEAXI@Z 000000018000dad0 f i njsOracle.obj
 0001:0000cad0       ??_E?$numpunct@D@std@@MEAAPEAXI@Z 000000018000dad0 f i * CIL library *:* CIL module *
 0001:0000cb30       ?_Xran@?$_String_val@U?$_Simple_types@D@std@@@std@@SAXXZ 000000018000db30 f i njsOracle.obj
 0001:0000cb50       ??$use_facet@V?$ctype@D@std@@@std@@YAAEBV?$ctype@D@0@AEBVlocale@0@@Z 000000018000db50 f i njsOracle.obj
 0001:0000cce0       ??$New@VString@v8@@V?$basic_string@DU?$char_traits@D@std@@V?$allocator@D@2@@std@@@Nan@@YA?AV?$MaybeLocal@VString@v8@@@v8@@V?$basic_string@DU?$char_traits@D@std@@V?$allocator@D@2@@std@@@Z 000000018000dce0 f i njsOracle.obj
 0001:0000cde0       ??$?6U?$char_traits@D@std@@@std@@YAAEAV?$basic_ostream@DU?$char_traits@D@std@@@0@AEAV10@PEBD@Z 000000018000dde0 f i njsOracle.obj
 0001:0000d030       ??$Unwrap@VOracledb@@@ObjectWrap@Nan@@SAPEAVOracledb@@V?$Local@VObject@v8@@@v8@@@Z 000000018000e030 f i njsOracle.obj
 0001:0000d030       ??$Unwrap@VConnection@@@ObjectWrap@Nan@@SAPEAVConnection@@V?$Local@VObject@v8@@@v8@@@Z 000000018000e030 f i njsOracle.obj
 0001:0000d030       ??$Unwrap@VResultSet@@@ObjectWrap@Nan@@SAPEAVResultSet@@V?$Local@VObject@v8@@@v8@@@Z 000000018000e030 f i njsConnection.obj
 0001:0000d030       ??$Unwrap@VPool@@@ObjectWrap@Nan@@SAPEAVPool@@V?$Local@VObject@v8@@@v8@@@Z 000000018000e030 f i njsOracle.obj
 0001:0000d030       ??$Unwrap@VILob@@@ObjectWrap@Nan@@SAPEAVILob@@V?$Local@VObject@v8@@@v8@@@Z 000000018000e030 f i njsConnection.obj
 0001:0000d0b0       ??$To@I@Nan@@YA?AV?$Maybe@I@v8@@V?$Local@VValue@v8@@@2@@Z 000000018000e0b0 f i njsOracle.obj
 0001:0000d130       ??$To@H@Nan@@YA?AV?$Maybe@H@v8@@V?$Local@VValue@v8@@@2@@Z 000000018000e130 f i njsOracle.obj
 0001:0000d1b0       ??$use_facet@V?$numpunct@D@std@@@std@@YAAEBV?$numpunct@D@0@AEBVlocale@0@@Z 000000018000e1b0 f i njsOracle.obj
 0001:0000d800       ?_Getcat@?$numpunct@D@std@@SA_KPEAPEBVfacet@locale@2@PEBV42@@Z 000000018000e800 f i njsOracle.obj
 0001:0000d990       ?_Xlen@?$basic_string@DU?$char_traits@D@std@@V?$allocator@D@2@@std@@SAXXZ 000000018000e990 f i njsOracle.obj
 0001:0000d9b0       ?sputn@?$basic_streambuf@DU?$char_traits@D@std@@@std@@QEAA_JPEBD_J@Z 000000018000e9b0 f i njsOracle.obj
 0001:0000da90       ??$_Immortalize_impl@V_Iostream_error_category@std@@@std@@YAHPEAX0PEAPEAX@Z 000000018000ea90 f i njsOracle.obj
 0001:0000daa8       ??_E?$basic_ostream@DU?$char_traits@D@std@@@std@@$4PPPPPPPM@A@EAAPEAXI@Z 000000018000eaa8 f i njsOracle.obj
 0001:0000dab4       ??_E?$basic_stringstream@DU?$char_traits@D@std@@V?$allocator@D@2@@std@@$4PPPPPPPM@A@EAAPEAXI@Z 000000018000eab4 f i njsOracle.obj
 0001:0000dac0       ??_E?$basic_istream@DU?$char_traits@D@std@@@std@@$4PPPPPPPM@A@EAAPEAXI@Z 000000018000eac0 f i njsOracle.obj
 0001:0000dacc       ??_E?$basic_iostream@DU?$char_traits@D@std@@@std@@$4PPPPPPPM@A@EAAPEAXI@Z 000000018000eacc f i njsOracle.obj
 0001:0000dae0       ??0poolBaton@@QEAA@V?$Local@VFunction@v8@@@v8@@V?$Local@VObject@v8@@@2@@Z 000000018000eae0 f i njsPool.obj
 0001:0000dc10       ??_GPool@@EEAAPEAXI@Z      000000018000ec10 f i njsPool.obj
 0001:0000dc10       ??_EPool@@EEAAPEAXI@Z      000000018000ec10 f i * CIL library *:* CIL module *
 0001:0000dcb0       ?Init@Pool@@SAXV?$Local@VObject@v8@@@v8@@@Z 000000018000ecb0 f   njsPool.obj
 0001:0000e1c0       ?New@Pool@@CAXAEBV?$FunctionCallbackInfo@VValue@v8@@@Nan@@@Z 000000018000f1c0 f   njsPool.obj
 0001:0000e230       ?getPoolProperty@Pool@@CA?AV?$Local@VPrimitive@v8@@@v8@@PEAV1@I@Z 000000018000f230 f   njsPool.obj
 0001:0000e3e0       ?getPoolProperty@Pool@@CA?AV?$Local@VPrimitive@v8@@@v8@@PEAV1@H@Z 000000018000f3e0 f   njsPool.obj
 0001:0000e590       ?GetPoolMin@Pool@@CAXV?$Local@VString@v8@@@v8@@AEBV?$PropertyCallbackInfo@VValue@v8@@@Nan@@@Z 000000018000f590 f   njsPool.obj
 0001:0000e690       ?GetPoolMax@Pool@@CAXV?$Local@VString@v8@@@v8@@AEBV?$PropertyCallbackInfo@VValue@v8@@@Nan@@@Z 000000018000f690 f   njsPool.obj
 0001:0000e790       ?GetPoolIncrement@Pool@@CAXV?$Local@VString@v8@@@v8@@AEBV?$PropertyCallbackInfo@VValue@v8@@@Nan@@@Z 000000018000f790 f   njsPool.obj
 0001:0000e890       ?GetPoolTimeout@Pool@@CAXV?$Local@VString@v8@@@v8@@AEBV?$PropertyCallbackInfo@VValue@v8@@@Nan@@@Z 000000018000f890 f   njsPool.obj
 0001:0000e990       ?GetConnectionsOpen@Pool@@CAXV?$Local@VString@v8@@@v8@@AEBV?$PropertyCallbackInfo@VValue@v8@@@Nan@@@Z 000000018000f990 f   njsPool.obj
 0001:0000ebc0       ?GetConnectionsInUse@Pool@@CAXV?$Local@VString@v8@@@v8@@AEBV?$PropertyCallbackInfo@VValue@v8@@@Nan@@@Z 000000018000fbc0 f   njsPool.obj
 0001:0000edf0       ?GetStmtCacheSize@Pool@@CAXV?$Local@VString@v8@@@v8@@AEBV?$PropertyCallbackInfo@VValue@v8@@@Nan@@@Z 000000018000fdf0 f   njsPool.obj
 0001:0000eef0       ?GetPoolPingInterval@Pool@@CAXV?$Local@VString@v8@@@v8@@AEBV?$PropertyCallbackInfo@VValue@v8@@@Nan@@@Z 000000018000fef0 f   njsPool.obj
 0001:0000eff0       ?setPoolProperty@Pool@@CAXPEAV1@V?$basic_string@DU?$char_traits@D@std@@V?$allocator@D@2@@std@@@Z 000000018000fff0 f   njsPool.obj
 0001:0000f2a0       ?SetPoolMin@Pool@@CAXV?$Local@VString@v8@@@v8@@V?$Local@VValue@v8@@@3@AEBV?$PropertyCallbackInfo@X@Nan@@@Z 00000001800102a0 f   njsPool.obj
 0001:0000f310       ?SetPoolMax@Pool@@CAXV?$Local@VString@v8@@@v8@@V?$Local@VValue@v8@@@3@AEBV?$PropertyCallbackInfo@X@Nan@@@Z 0000000180010310 f   njsPool.obj
 0001:0000f380       ?SetPoolIncrement@Pool@@CAXV?$Local@VString@v8@@@v8@@V?$Local@VValue@v8@@@3@AEBV?$PropertyCallbackInfo@X@Nan@@@Z 0000000180010380 f   njsPool.obj
 0001:0000f3f0       ?SetPoolTimeout@Pool@@CAXV?$Local@VString@v8@@@v8@@V?$Local@VValue@v8@@@3@AEBV?$PropertyCallbackInfo@X@Nan@@@Z 00000001800103f0 f   njsPool.obj
 0001:0000f460       ?SetConnectionsOpen@Pool@@CAXV?$Local@VString@v8@@@v8@@V?$Local@VValue@v8@@@3@AEBV?$PropertyCallbackInfo@X@Nan@@@Z 0000000180010460 f   njsPool.obj
 0001:0000f4d0       ?SetConnectionsInUse@Pool@@CAXV?$Local@VString@v8@@@v8@@V?$Local@VValue@v8@@@3@AEBV?$PropertyCallbackInfo@X@Nan@@@Z 00000001800104d0 f   njsPool.obj
 0001:0000f540       ?SetStmtCacheSize@Pool@@CAXV?$Local@VString@v8@@@v8@@V?$Local@VValue@v8@@@3@AEBV?$PropertyCallbackInfo@X@Nan@@@Z 0000000180010540 f   njsPool.obj
 0001:0000f5b0       ?SetPoolPingInterval@Pool@@CAXV?$Local@VString@v8@@@v8@@V?$Local@VValue@v8@@@3@AEBV?$PropertyCallbackInfo@X@Nan@@@Z 00000001800105b0 f   njsPool.obj
 0001:0000f620       ?GetConnection@Pool@@CAXAEBV?$FunctionCallbackInfo@VValue@v8@@@Nan@@@Z 0000000180010620 f   njsPool.obj
 0001:0000fad0       ??_GpoolBaton@@QEAAPEAXI@Z 0000000180010ad0 f i njsPool.obj
 0001:0000fc10       ?Async_GetConnection@Pool@@CAXPEAUuv_work_s@@@Z 0000000180010c10 f   njsPool.obj
 0001:0000ff40       ?Async_AfterGetConnection@Pool@@CAXPEAUuv_work_s@@@Z 0000000180010f40 f   njsPool.obj
 0001:000101f0       ?Terminate@Pool@@CAXAEBV?$FunctionCallbackInfo@VValue@v8@@@Nan@@@Z 00000001800111f0 f   njsPool.obj
 0001:00010660       ?Async_Terminate@Pool@@CAXPEAUuv_work_s@@@Z 0000000180011660 f   njsPool.obj
 0001:00010740       ?Async_AfterTerminate@Pool@@CAXPEAUuv_work_s@@@Z 0000000180011740 f   njsPool.obj
 0001:000108f0       ?ForceSet@Nan@@YA?AV?$Maybe@_N@v8@@V?$Local@VObject@v8@@@3@V?$Local@VValue@v8@@@3@1W4PropertyAttribute@3@@Z 00000001800118f0 f i njsConnection.obj
 0001:00010990       ??1RefCounter@@QEAA@XZ     0000000180011990 f i njsConnection.obj
 0001:000109a0       ??0MetaInfo@@QEAA@XZ       00000001800119a0 f i njsConnection.obj
 0001:000109f0       ??0fetchInfo@@QEAA@XZ      00000001800119f0 f i njsConnection.obj
 0001:00010a30       ??0eBaton@@QEAA@AEAIV?$Local@VFunction@v8@@@v8@@V?$Local@VObject@v8@@@2@@Z 0000000180011a30 f i njsConnection.obj
 0001:00010c40       ??1eBaton@@QEAA@XZ         0000000180011c40 f i njsConnection.obj
 0001:00011340       ??_EMetaInfo@@QEAAPEAXI@Z  0000000180012340 f i njsConnection.obj
 0001:00011390       ??_EfetchInfo@@QEAAPEAXI@Z 0000000180012390 f i njsConnection.obj
 0001:000113e0       ?GetValueType@Connection@@CA?AW4ValueType@@V?$Local@VValue@v8@@@v8@@@Z 00000001800123e0 f i njsConnection.obj
 0001:000114e0       ??_EConnection@@EEAAPEAXI@Z 00000001800124e0 f i * CIL library *:* CIL module *
 0001:000114e0       ??_GConnection@@EEAAPEAXI@Z 00000001800124e0 f i njsConnection.obj
 0001:00011580       ?setConnection@Connection@@QEAAXPEAVConn@dpi@@PEAVOracledb@@V?$Local@VObject@v8@@@v8@@@Z 0000000180012580 f   njsConnection.obj
 0001:00011600       ?Init@Connection@@SAXV?$Local@VObject@v8@@@v8@@@Z 0000000180012600 f   njsConnection.obj
 0001:00011a30       ?New@Connection@@CAXAEBV?$FunctionCallbackInfo@VValue@v8@@@Nan@@@Z 0000000180012a30 f   njsConnection.obj
 0001:00011aa0       ?connectionPropertyException@Connection@@CAXPEAV1@W4NJSErrorType@@V?$basic_string@DU?$char_traits@D@std@@V?$allocator@D@2@@std@@@Z 0000000180012aa0 f   njsConnection.obj
 0001:00011d10       ?GetStmtCacheSize@Connection@@CAXV?$Local@VString@v8@@@v8@@AEBV?$PropertyCallbackInfo@VValue@v8@@@Nan@@@Z 0000000180012d10 f   njsConnection.obj
 0001:00011f60       ?SetStmtCacheSize@Connection@@CAXV?$Local@VString@v8@@@v8@@V?$Local@VValue@v8@@@3@AEBV?$PropertyCallbackInfo@X@Nan@@@Z 0000000180012f60 f   njsConnection.obj
 0001:00012050       ?GetAction@Connection@@CAXV?$Local@VString@v8@@@v8@@AEBV?$PropertyCallbackInfo@VValue@v8@@@Nan@@@Z 0000000180013050 f   njsConnection.obj
 0001:00012050       ?GetClientId@Connection@@CAXV?$Local@VString@v8@@@v8@@AEBV?$PropertyCallbackInfo@VValue@v8@@@Nan@@@Z 0000000180013050 f   njsConnection.obj
 0001:00012050       ?GetModule@Connection@@CAXV?$Local@VString@v8@@@v8@@AEBV?$PropertyCallbackInfo@VValue@v8@@@Nan@@@Z 0000000180013050 f   njsConnection.obj
 0001:00012070       ?SetClientId@Connection@@CAXV?$Local@VString@v8@@@v8@@V?$Local@VValue@v8@@@3@AEBV?$PropertyCallbackInfo@X@Nan@@@Z 0000000180013070 f   njsConnection.obj
 0001:00012460       ?SetModule@Connection@@CAXV?$Local@VString@v8@@@v8@@V?$Local@VValue@v8@@@3@AEBV?$PropertyCallbackInfo@X@Nan@@@Z 0000000180013460 f   njsConnection.obj
 0001:00012850       ?SetAction@Connection@@CAXV?$Local@VString@v8@@@v8@@V?$Local@VValue@v8@@@3@AEBV?$PropertyCallbackInfo@X@Nan@@@Z 0000000180013850 f   njsConnection.obj
 0001:00012c40       ?GetOracleServerVersion@Connection@@CAXV?$Local@VString@v8@@@v8@@AEBV?$PropertyCallbackInfo@VValue@v8@@@Nan@@@Z 0000000180013c40 f   njsConnection.obj
 0001:00012f10       ?SetOracleServerVersion@Connection@@CAXV?$Local@VString@v8@@@v8@@V?$Local@VValue@v8@@@3@AEBV?$PropertyCallbackInfo@X@Nan@@@Z 0000000180013f10 f   njsConnection.obj
 0001:00013000       ?Execute@Connection@@CAXAEBV?$FunctionCallbackInfo@VValue@v8@@@Nan@@@Z 0000000180014000 f   njsConnection.obj
 0001:00013830       ?ProcessBinds@Connection@@CAXAEBV?$FunctionCallbackInfo@VValue@v8@@@Nan@@IPEAUeBaton@@@Z 0000000180014830 f   njsConnection.obj
 0001:00013b00       ?ProcessOptions@Connection@@CAXAEBV?$FunctionCallbackInfo@VValue@v8@@@Nan@@IPEAUeBaton@@@Z 0000000180014b00 f   njsConnection.obj
 0001:00014a00       ?GetBinds@Connection@@CAXV?$Local@VObject@v8@@@v8@@PEAUeBaton@@@Z 0000000180015a00 f   njsConnection.obj
 0001:00015030       ?GetBindUnit@Connection@@CAXV?$Local@VValue@v8@@@v8@@PEAUBind@@_NPEAUeBaton@@@Z 0000000180016030 f   njsConnection.obj
 0001:00015eb0       ?GetOutBindParams@Connection@@CAXGPEAUBind@@PEAUeBaton@@@Z 0000000180016eb0 f   njsConnection.obj
 0001:00016120       ?GetInBindParams@Connection@@CAXV?$Local@VValue@v8@@@v8@@PEAUBind@@PEAUeBaton@@@Z 0000000180017120 f   njsConnection.obj
 0001:000161a0       ?GetInBindParamsScalar@Connection@@CAXV?$Local@VValue@v8@@@v8@@PEAUBind@@PEAUeBaton@@@Z 00000001800171a0 f   njsConnection.obj
 0001:00016fd0       ?GetInBindParamsArray@Connection@@CAXV?$Local@VArray@v8@@@v8@@PEAUBind@@PEAUeBaton@@@Z 0000000180017fd0 f   njsConnection.obj
 0001:00017ad0       ?AllocateBindArray@Connection@@CA_NGPEAUBind@@PEAUeBaton@@PEA_K@Z 0000000180018ad0 f   njsConnection.obj
 0001:00017e40       ?Async_Execute@Connection@@CAXPEAUuv_work_s@@@Z 0000000180018e40 f   njsConnection.obj
 0001:00018c40       ?LOB2StringOrBuffer@Connection@@CAXPEAUeBaton@@I_K1@Z 0000000180019c40 f   njsConnection.obj
 0001:00019050       ?StringOrBuffer2LOB@Connection@@CAXPEAUeBaton@@IE@Z 000000018001a050 f   njsConnection.obj
 0001:00019290       ?Descr2StringOrBuffer@Connection@@CAXPEAUeBaton@@@Z 000000018001a290 f   njsConnection.obj
 0001:000194c0       ?PrepareAndBind@Connection@@CAXPEAUeBaton@@@Z 000000018001a4c0 f   njsConnection.obj
 0001:00019e30       ?CopyMetaData@Connection@@SAXPEAUMetaInfo@@PEAUeBaton@@PEBUMetaData@dpi@@I@Z 000000018001ae30 f   njsConnection.obj
 0001:0001a340       ?SourceDBType2TargetDBType@Connection@@CAGI@Z 000000018001b340 f   njsConnection.obj
 0001:0001a480       ?GetTargetType@Connection@@CAGPEAUeBaton@@AEAV?$basic_string@DU?$char_traits@D@std@@V?$allocator@D@2@@std@@G@Z 000000018001b480 f   njsConnection.obj
 0001:0001a7a0       ?DoDefines@Connection@@SAXPEAUeBaton@@@Z 000000018001b7a0 f   njsConnection.obj
 0001:0001b820       ?DoFetch@Connection@@SAXPEAUeBaton@@@Z 000000018001c820 f   njsConnection.obj
 0001:0001bbf0       ?Descr2protoILob@Connection@@CAXPEAUeBaton@@II@Z 000000018001cbf0 f   njsConnection.obj
 0001:0001bf60       ?Async_AfterExecute@Connection@@CAXPEAUuv_work_s@@@Z 000000018001cf60 f   njsConnection.obj
 0001:0001cd20       ?GetMetaData@Connection@@SA?AV?$Local@VValue@v8@@@v8@@PEBUMetaInfo@@I_N@Z 000000018001dd20 f   njsConnection.obj
 0001:0001d5c0       ?GetRows@Connection@@SA?AV?$Local@VValue@v8@@@v8@@PEAUeBaton@@@Z 000000018001e5c0 f   njsConnection.obj
 0001:0001db30       ?ToV8Value@Connection@@CA?AV?$Local@VValue@v8@@@v8@@PEAUeBaton@@_NII@Z 000000018001eb30 f   njsConnection.obj
 0001:0001dd40       ?Bind2V8Value@Connection@@CA?AV?$Local@VValue@v8@@@v8@@PEAUeBaton@@PEAUBind@@I@Z 000000018001ed40 f   njsConnection.obj
 0001:0001dfa0       ?Define2V8Value@Connection@@CA?AV?$Local@VValue@v8@@@v8@@PEAUeBaton@@IIPEAUDefine@@PEAUExtDefine@@@Z 000000018001efa0 f   njsConnection.obj
 0001:0001e3f0       ?RefCursor2V8Value@Connection@@CA?AV?$Local@VValue@v8@@@v8@@PEAUeBaton@@PEAUBind@@PEAUExtBind@@@Z 000000018001f3f0 f   njsConnection.obj
 0001:0001e5c0       ?ToV8ArrayValue@Connection@@CA?AV?$Local@VValue@v8@@@v8@@PEAUeBaton@@PEAUBind@@K@Z 000000018001f5c0 f   njsConnection.obj
 0001:0001ebb0       ?GetOutBinds@Connection@@CA?AV?$Local@VValue@v8@@@v8@@PEAUeBaton@@@Z 000000018001fbb0 f   njsConnection.obj
 0001:0001ec50       ?GetOutBindArray@Connection@@CA?AV?$Local@VValue@v8@@@v8@@PEAUeBaton@@@Z 000000018001fc50 f   njsConnection.obj
 0001:0001eeb0       ?GetOutBindObject@Connection@@CA?AV?$Local@VValue@v8@@@v8@@PEAUeBaton@@@Z 000000018001feb0 f   njsConnection.obj
 0001:0001f210       ?Release@Connection@@CAXAEBV?$FunctionCallbackInfo@VValue@v8@@@Nan@@@Z 0000000180020210 f   njsConnection.obj
 0001:0001f870       ?Async_Release@Connection@@CAXPEAUuv_work_s@@@Z 0000000180020870 f   njsConnection.obj
 0001:0001fa60       ?Async_AfterRelease@Connection@@CAXPEAUuv_work_s@@@Z 0000000180020a60 f   njsConnection.obj
 0001:0001fcf0       ?Commit@Connection@@CAXAEBV?$FunctionCallbackInfo@VValue@v8@@@Nan@@@Z 0000000180020cf0 f   njsConnection.obj
 0001:00020190       ?Async_Commit@Connection@@CAXPEAUuv_work_s@@@Z 0000000180021190 f   njsConnection.obj
 0001:00020220       ?Async_AfterRollback@Connection@@CAXPEAUuv_work_s@@@Z 0000000180021220 f   njsConnection.obj
 0001:00020220       ?Async_AfterBreak@Connection@@CAXPEAUuv_work_s@@@Z 0000000180021220 f   njsConnection.obj
 0001:00020220       ?Async_AfterCommit@Connection@@CAXPEAUuv_work_s@@@Z 0000000180021220 f   njsConnection.obj
 0001:000203c0       ?Rollback@Connection@@CAXAEBV?$FunctionCallbackInfo@VValue@v8@@@Nan@@@Z 00000001800213c0 f   njsConnection.obj
 0001:00020860       ?Async_Rollback@Connection@@CAXPEAUuv_work_s@@@Z 0000000180021860 f   njsConnection.obj
 0001:000208f0       ?Break@Connection@@CAXAEBV?$FunctionCallbackInfo@VValue@v8@@@Nan@@@Z 00000001800218f0 f   njsConnection.obj
 0001:00020d90       ?Async_Break@Connection@@CAXPEAUuv_work_s@@@Z 0000000180021d90 f   njsConnection.obj
 0001:00020e20       ?CreateLob@Connection@@CAXAEBV?$FunctionCallbackInfo@VValue@v8@@@Nan@@@Z 0000000180021e20 f   njsConnection.obj
 0001:00021480       ?Async_CreateLob@Connection@@CAXPEAUuv_work_s@@@Z 0000000180022480 f   njsConnection.obj
 0001:00021620       ?Async_AfterCreateLob@Connection@@CAXPEAUuv_work_s@@@Z 0000000180022620 f   njsConnection.obj
 0001:00021850       ?UpdateDateValue@Connection@@CAXPEAUeBaton@@PEAUBind@@I@Z 0000000180022850 f   njsConnection.obj
 0001:00021c40       ?cbDynBufferAllocate@Connection@@CAXPEAX_NII@Z 0000000180022c40 f   njsConnection.obj
 0001:00022520       ?cbDynBufferGet@Connection@@CAHPEAX_JIKKPEAPEAX22PEAPEAGPEAE@Z 0000000180023520 f   njsConnection.obj
 0001:00022780       ?cbDynDefine@Connection@@CAHPEAXIPEAPEAXPEAPEAI1PEAPEAG@Z 0000000180023780 f   njsConnection.obj
 0001:00022860       ?NewLob@Connection@@CA?AV?$Local@VValue@v8@@@v8@@PEAUeBaton@@PEAVProtoILob@@_N@Z 0000000180023860 f   njsConnection.obj
 0001:00022ac0       ??$emplace_back@AEBQEAV?$Persistent@VObject@v8@@V?$NonCopyablePersistentTraits@VObject@v8@@@2@@Nan@@@?$vector@PEAV?$Persistent@VObject@v8@@V?$NonCopyablePersistentTraits@VObject@v8@@@2@@Nan@@V?$allocator@PEAV?$Persistent@VObject@v8@@V?$NonCopyablePersistentTraits@VObject@v8@@@2@@Nan@@@std@@@std@@QEAAXAEBQEAV?$Persistent@VObject@v8@@V?$NonCopyablePersistentTraits@VObject@v8@@@2@@Nan@@@Z 0000000180023ac0 f i njsConnection.obj
 0001:00022c50       ??1?$vector@PEAUExtBind@@V?$allocator@PEAUExtBind@@@std@@@std@@QEAA@XZ 0000000180023c50 f i njsConnection.obj
 0001:00022c50       ??1?$vector@PEAV?$Persistent@VObject@v8@@V?$NonCopyablePersistentTraits@VObject@v8@@@2@@Nan@@V?$allocator@PEAV?$Persistent@VObject@v8@@V?$NonCopyablePersistentTraits@VObject@v8@@@2@@Nan@@@std@@@std@@QEAA@XZ 0000000180023c50 f i njsConnection.obj
 0001:00022c50       ?_Tidy@?$vector@PEAUBind@@V?$allocator@PEAUBind@@@std@@@std@@AEAAXXZ 0000000180023c50 f i njsConnection.obj
 0001:00022c50       ??1?$vector@PEAUExtDefine@@V?$allocator@PEAUExtDefine@@@std@@@std@@QEAA@XZ 0000000180023c50 f i njsConnection.obj
 0001:00022cd0       ?resize@?$vector@PEAUExtDefine@@V?$allocator@PEAUExtDefine@@@std@@@std@@QEAAX_KAEBQEAUExtDefine@@@Z 0000000180023cd0 f i njsConnection.obj
 0001:00022e00       ?push_back@?$vector@PEAUExtBind@@V?$allocator@PEAUExtBind@@@std@@@std@@QEAAX$$QEAPEAUExtBind@@@Z 0000000180023e00 f i njsConnection.obj
 0001:00022ee0       ?push_back@?$vector@PEAUBind@@V?$allocator@PEAUBind@@@std@@@std@@QEAAXAEBQEAUBind@@@Z 0000000180023ee0 f i njsConnection.obj
 0001:00023020       ??1?$vector@PEAUBind@@V?$allocator@PEAUBind@@@std@@@std@@QEAA@XZ 0000000180024020 f i njsConnection.obj
 0001:00023030       ?_Xlength@?$vector@PEAUBind@@V?$allocator@PEAUBind@@@std@@@std@@CAXXZ 0000000180024030 f i njsConnection.obj
 0001:00023030       ?_Xlength@?$vector@PEAUExtDefine@@V?$allocator@PEAUExtDefine@@@std@@@std@@CAXXZ 0000000180024030 f i njsConnection.obj
 0001:00023030       ?_Xlength@?$vector@PEAV?$Persistent@VObject@v8@@V?$NonCopyablePersistentTraits@VObject@v8@@@2@@Nan@@V?$allocator@PEAV?$Persistent@VObject@v8@@V?$NonCopyablePersistentTraits@VObject@v8@@@2@@Nan@@@std@@@std@@CAXXZ 0000000180024030 f i njsConnection.obj
 0001:00023030       ?_Xlength@?$vector@PEAUExtBind@@V?$allocator@PEAUExtBind@@@std@@@std@@CAXXZ 0000000180024030 f i njsConnection.obj
 0001:00023050       ?_Change_array@?$vector@PEAUExtBind@@V?$allocator@PEAUExtBind@@@std@@@std@@AEAAXQEAPEAUExtBind@@_K1@Z 0000000180024050 f i njsConnection.obj
 0001:00023050       ?_Change_array@?$vector@PEAUExtDefine@@V?$allocator@PEAUExtDefine@@@std@@@std@@AEAAXQEAPEAUExtDefine@@_K1@Z 0000000180024050 f i njsConnection.obj
 0001:00023100       ?allocate@?$allocator@PEAUExtBind@@@std@@QEAAPEAPEAUExtBind@@_K@Z 0000000180024100 f i njsConnection.obj
 0001:00023100       ?allocate@?$allocator@PEAUBind@@@std@@QEAAPEAPEAUBind@@_K@Z 0000000180024100 f i njsConnection.obj
 0001:00023100       ?allocate@?$allocator@PEAUExtDefine@@@std@@QEAAPEAPEAUExtDefine@@_K@Z 0000000180024100 f i njsConnection.obj
 0001:00023170       ??$New@VDate@v8@@O@Nan@@YA?AV?$MaybeLocal@VDate@v8@@@v8@@O@Z 0000000180024170 f i njsConnection.obj
 0001:00023390       ??0rsBaton@@QEAA@AEAIV?$Local@VFunction@v8@@@v8@@V?$Local@VObject@v8@@@2@2@Z 0000000180024390 f i njsResultSet.obj
 0001:00023480       ??_GResultSet@@UEAAPEAXI@Z 0000000180024480 f i njsResultSet.obj
 0001:00023480       ??_EResultSet@@UEAAPEAXI@Z 0000000180024480 f i * CIL library *:* CIL module *
 0001:00023540       ?setResultSet@ResultSet@@QEAAXPEAVStmt@dpi@@PEAUeBaton@@IPEBUMetaInfo@@@Z 0000000180024540 f   njsResultSet.obj
 0001:00023810       ?Init@ResultSet@@SAXV?$Local@VObject@v8@@@v8@@@Z 0000000180024810 f   njsResultSet.obj
 0001:00023a50       ?New@ResultSet@@CAXAEBV?$FunctionCallbackInfo@VValue@v8@@@Nan@@@Z 0000000180024a50 f   njsResultSet.obj
 0001:00023ac0       ?GetMetaData@ResultSet@@CAXV?$Local@VString@v8@@@v8@@AEBV?$PropertyCallbackInfo@VValue@v8@@@Nan@@@Z 0000000180024ac0 f   njsResultSet.obj
 0001:00023d80       ?SetMetaData@ResultSet@@CAXV?$Local@VString@v8@@@v8@@V?$Local@VValue@v8@@@3@AEBV?$PropertyCallbackInfo@X@Nan@@@Z 0000000180024d80 f   njsResultSet.obj
 0001:00024070       ?GetRow@ResultSet@@CAXAEBV?$FunctionCallbackInfo@VValue@v8@@@Nan@@@Z 0000000180025070 f   njsResultSet.obj
 0001:00024500       ?GetRows@ResultSet@@CAXAEBV?$FunctionCallbackInfo@VValue@v8@@@Nan@@@Z 0000000180025500 f   njsResultSet.obj
 0001:00024af0       ?GetRowsCommon@ResultSet@@CAXPEAUrsBaton@@@Z 0000000180025af0 f   njsResultSet.obj
 0001:00024d10       ??_GrsBaton@@QEAAPEAXI@Z   0000000180025d10 f i njsResultSet.obj
 0001:00024df0       ?Async_GetRows@ResultSet@@CAXPEAUuv_work_s@@@Z 0000000180025df0 f   njsResultSet.obj
 0001:000250b0       ?Async_AfterGetRows@ResultSet@@CAXPEAUuv_work_s@@@Z 00000001800260b0 f   njsResultSet.obj
 0001:000252d0       ?Close@ResultSet@@CAXAEBV?$FunctionCallbackInfo@VValue@v8@@@Nan@@@Z 00000001800262d0 f   njsResultSet.obj
 0001:00025870       ?Async_Close@ResultSet@@CAXPEAUuv_work_s@@@Z 0000000180026870 f   njsResultSet.obj
 0001:00025950       ?Async_AfterClose@ResultSet@@CAXPEAUuv_work_s@@@Z 0000000180026950 f   njsResultSet.obj
 0001:00025b20       ?clearFetchBuffer@ResultSet@@AEAAXI@Z 0000000180026b20 f   njsResultSet.obj
 0001:00025db0       ?getErrorMsg@NJSMessages@@SA?AV?$basic_string@DU?$char_traits@D@std@@V?$allocator@D@2@@std@@W4NJSErrorType@@ZZ 0000000180026db0 f   njsMessages.obj
 0001:00025eb0       ??0LobBaton@@QEAA@AEAIV?$Local@VFunction@v8@@@v8@@V?$Local@VObject@v8@@@2@@Z 0000000180026eb0 f i njsIntLob.obj
 0001:00025fe0       ??_EILob@@EEAAPEAXI@Z      0000000180026fe0 f i * CIL library *:* CIL module *
 0001:00025fe0       ??_GILob@@EEAAPEAXI@Z      0000000180026fe0 f i njsIntLob.obj
 0001:000260e0       ?cleanupDPI@ILob@@QEAAXXZ  00000001800270e0 f   njsIntLob.obj
 0001:00026190       ?cleanupNJS@ILob@@QEAAXXZ  0000000180027190 f   njsIntLob.obj
 0001:000261f0       ?setILob@ILob@@QEAAXPEAUeBaton@@PEAVProtoILob@@_N@Z 00000001800271f0 f   njsIntLob.obj
 0001:00026380       ?hasILobInstance@ILob@@SA_NV?$Local@VObject@v8@@@v8@@@Z 0000000180027380 f   njsIntLob.obj
 0001:000264c0       ?Init@ILob@@SAXV?$Local@VObject@v8@@@v8@@@Z 00000001800274c0 f   njsIntLob.obj
 0001:00026990       ?New@ILob@@CAXAEBV?$FunctionCallbackInfo@VValue@v8@@@Nan@@@Z 0000000180027990 f   njsIntLob.obj
 0001:00026a50       ?Release@ILob@@CAXAEBV?$FunctionCallbackInfo@VValue@v8@@@Nan@@@Z 0000000180027a50 f   njsIntLob.obj
 0001:00026d10       ?Close@ILob@@CAXAEBV?$FunctionCallbackInfo@VValue@v8@@@Nan@@@Z 0000000180027d10 f   njsIntLob.obj
 0001:00027280       ??_GLobBaton@@QEAAPEAXI@Z  0000000180028280 f i njsIntLob.obj
 0001:00027370       ?Async_Close@ILob@@CAXPEAUuv_work_s@@@Z 0000000180028370 f   njsIntLob.obj
 0001:000273a0       ?Async_AfterClose@ILob@@CAXPEAUuv_work_s@@@Z 00000001800283a0 f   njsIntLob.obj
 0001:00027580       ?lobPropertyException@ILob@@CAXPEAV1@W4NJSErrorType@@V?$basic_string@DU?$char_traits@D@std@@V?$allocator@D@2@@std@@@Z 0000000180028580 f   njsIntLob.obj
 0001:000277f0       ?GetChunkSize@ILob@@CAXV?$Local@VString@v8@@@v8@@AEBV?$PropertyCallbackInfo@VValue@v8@@@Nan@@@Z 00000001800287f0 f   njsIntLob.obj
 0001:00027b70       ?SetChunkSize@ILob@@CAXV?$Local@VString@v8@@@v8@@V?$Local@VValue@v8@@@3@AEBV?$PropertyCallbackInfo@X@Nan@@@Z 0000000180028b70 f   njsIntLob.obj
 0001:00027c60       ?GetLength@ILob@@CAXV?$Local@VString@v8@@@v8@@AEBV?$PropertyCallbackInfo@VValue@v8@@@Nan@@@Z 0000000180028c60 f   njsIntLob.obj
 0001:00027fd0       ?SetLength@ILob@@CAXV?$Local@VString@v8@@@v8@@V?$Local@VValue@v8@@@3@AEBV?$PropertyCallbackInfo@X@Nan@@@Z 0000000180028fd0 f   njsIntLob.obj
 0001:000280c0       ?GetPieceSize@ILob@@CAXV?$Local@VString@v8@@@v8@@AEBV?$PropertyCallbackInfo@VValue@v8@@@Nan@@@Z 00000001800290c0 f   njsIntLob.obj
 0001:00028440       ?SetPieceSize@ILob@@CAXV?$Local@VString@v8@@@v8@@V?$Local@VValue@v8@@@3@AEBV?$PropertyCallbackInfo@X@Nan@@@Z 0000000180029440 f   njsIntLob.obj
 0001:000289b0       ?GetOffset@ILob@@CAXV?$Local@VString@v8@@@v8@@AEBV?$PropertyCallbackInfo@VValue@v8@@@Nan@@@Z 00000001800299b0 f   njsIntLob.obj
 0001:00028d30       ?SetOffset@ILob@@CAXV?$Local@VString@v8@@@v8@@V?$Local@VValue@v8@@@3@AEBV?$PropertyCallbackInfo@X@Nan@@@Z 0000000180029d30 f   njsIntLob.obj
 0001:000291c0       ?GetType@ILob@@CAXV?$Local@VString@v8@@@v8@@AEBV?$PropertyCallbackInfo@VValue@v8@@@Nan@@@Z 000000018002a1c0 f   njsIntLob.obj
 0001:00029300       ?SetType@ILob@@CAXV?$Local@VString@v8@@@v8@@V?$Local@VValue@v8@@@3@AEBV?$PropertyCallbackInfo@X@Nan@@@Z 000000018002a300 f   njsIntLob.obj
 0001:000293f0       ?GetIsAutoCloseLob@ILob@@CAXV?$Local@VString@v8@@@v8@@AEBV?$PropertyCallbackInfo@VValue@v8@@@Nan@@@Z 000000018002a3f0 f   njsIntLob.obj
 0001:00029500       ?SetIsAutoCloseLob@ILob@@CAXV?$Local@VString@v8@@@v8@@V?$Local@VValue@v8@@@3@AEBV?$PropertyCallbackInfo@X@Nan@@@Z 000000018002a500 f   njsIntLob.obj
 0001:000295f0       ?GetIsValid@ILob@@CAXV?$Local@VString@v8@@@v8@@AEBV?$PropertyCallbackInfo@VValue@v8@@@Nan@@@Z 000000018002a5f0 f   njsIntLob.obj
 0001:00029700       ?SetIsValid@ILob@@CAXV?$Local@VString@v8@@@v8@@V?$Local@VValue@v8@@@3@AEBV?$PropertyCallbackInfo@X@Nan@@@Z 000000018002a700 f   njsIntLob.obj
 0001:000297f0       ?Read@ILob@@CAXAEBV?$FunctionCallbackInfo@VValue@v8@@@Nan@@@Z 000000018002a7f0 f   njsIntLob.obj
 0001:00029d40       ?Async_Read@ILob@@CAXPEAUuv_work_s@@@Z 000000018002ad40 f   njsIntLob.obj
 0001:00029ea0       ?Async_AfterRead@ILob@@CAXPEAUuv_work_s@@@Z 000000018002aea0 f   njsIntLob.obj
 0001:0002a0e0       ?Write@ILob@@CAXAEBV?$FunctionCallbackInfo@VValue@v8@@@Nan@@@Z 000000018002b0e0 f   njsIntLob.obj
 0001:0002a7d0       ?Async_Write@ILob@@CAXPEAUuv_work_s@@@Z 000000018002b7d0 f   njsIntLob.obj
 0001:0002a920       ?Async_AfterWrite@ILob@@CAXPEAUuv_work_s@@@Z 000000018002b920 f   njsIntLob.obj
 0001:0002aac0       ??0ProtoILob@@QEAA@PEAUeBaton@@PEAUDescriptor@dpi@@G@Z 000000018002bac0 f   njsIntLob.obj
 0001:0002aca0       ?cleanup@ProtoILob@@AEAAXXZ 000000018002bca0 f   njsIntLob.obj
 0001:0002acf0       ??_GEnv@dpi@@MEAAPEAXI@Z   000000018002bcf0 f i dpiEnv.obj
 0001:0002acf0       ??_EEnv@dpi@@MEAAPEAXI@Z   000000018002bcf0 f i * CIL library *:* CIL module *
 0001:0002ad20       ??1Env@dpi@@MEAA@XZ        000000018002bd20 f   dpiEnv.obj
 0001:0002ad30       ??0exception@stdext@@QEAA@AEBV01@@Z 000000018002bd30 f i dpiEnvImpl.obj
 0001:0002ad50       ??0EnvImpl@@QEAA@AEBV?$basic_string@DU?$char_traits@D@std@@V?$allocator@D@2@@std@@II@Z 000000018002bd50 f   dpiEnvImpl.obj
 0001:0002af90       ??_GEnvImpl@@UEAAPEAXI@Z   000000018002bf90 f i dpiEnvImpl.obj
 0001:0002af90       ??_EEnvImpl@@UEAAPEAXI@Z   000000018002bf90 f i * CIL library *:* CIL module *
 0001:0002b050       ??0ExceptionImpl@@QEAA@AEBV0@@Z 000000018002c050 f i dpiEnvImpl.obj
 0001:0002b0c0       ??0Exception@dpi@@QEAA@AEBV01@@Z 000000018002c0c0 f i dpiEnvImpl.obj
 0001:0002b0e0       ??_EExceptionImpl@@UEAAPEAXI@Z 000000018002c0e0 f i * CIL library *:* CIL module *
 0001:0002b0e0       ??_GExceptionImpl@@UEAAPEAXI@Z 000000018002c0e0 f i dpiEnvImpl.obj
 0001:0002b1e0       ?terminate@EnvImpl@@UEAAXXZ 000000018002c1e0 f   dpiEnvImpl.obj
 0001:0002b230       ?poolMax@EnvImpl@@UEAAXI@Z 000000018002c230 f   dpiEnvImpl.obj
 0001:0002b240       ?poolMax@EnvImpl@@UEBAIXZ  000000018002c240 f   dpiEnvImpl.obj
 0001:0002b250       ?poolMin@EnvImpl@@UEAAXI@Z 000000018002c250 f   dpiEnvImpl.obj
 0001:0002b260       ?poolMin@EnvImpl@@UEBAIXZ  000000018002c260 f   dpiEnvImpl.obj
 0001:0002b270       ?poolIncrement@EnvImpl@@UEAAXI@Z 000000018002c270 f   dpiEnvImpl.obj
 0001:0002b280       ?poolIncrement@EnvImpl@@UEBAIXZ 000000018002c280 f   dpiEnvImpl.obj
 0001:0002b290       ?poolTimeout@EnvImpl@@UEAAXI@Z 000000018002c290 f   dpiEnvImpl.obj
 0001:0002b2a0       ?poolTimeout@EnvImpl@@UEBAIXZ 000000018002c2a0 f   dpiEnvImpl.obj
 0001:0002b2b0       ?drvName@EnvImpl@@UEAAAEBV?$basic_string@DU?$char_traits@D@std@@V?$allocator@D@2@@std@@XZ 000000018002c2b0 f   dpiEnvImpl.obj
 0001:0002b2c0       ?externalAuth@EnvImpl@@UEAAX_N@Z 000000018002c2c0 f   dpiEnvImpl.obj
 0001:0002b2d0       ?externalAuth@EnvImpl@@UEBA_NXZ 000000018002c2d0 f   dpiEnvImpl.obj
 0001:0002b2e0       ?isEventEnabled@EnvImpl@@UEAAX_N@Z 000000018002c2e0 f   dpiEnvImpl.obj
 0001:0002b2f0       ?isEventEnabled@EnvImpl@@UEBA_NXZ 000000018002c2f0 f   dpiEnvImpl.obj
 0001:0002b300       ?poolMax@PoolImpl@@UEBAHXZ 000000018002c300 f   dpiPoolImpl.obj
 0001:0002b300       ?clientcharset@EnvImpl@@UEBAIXZ 000000018002c300 f   dpiEnvImpl.obj
 0001:0002b300       ?getLOBCharExpansionRatio@ConnImpl@@UEAAIXZ 000000018002c300 f   dpiConnImpl.obj
 0001:0002b310       ?clientncharset@EnvImpl@@UEBAIXZ 000000018002c310 f   dpiEnvImpl.obj
 0001:0002b320       ?createPool@EnvImpl@@UEAAPEAVSPool@dpi@@AEBV?$basic_string@DU?$char_traits@D@std@@V?$allocator@D@2@@std@@00HHHHH_N1H@Z 000000018002c320 f   dpiEnvImpl.obj
 0001:0002b430       ?getConnection@EnvImpl@@UEAAPEAVConn@dpi@@AEBV?$basic_string@DU?$char_traits@D@std@@V?$allocator@D@2@@std@@00H0_NW4DBPrivileges@3@@Z 000000018002c430 f   dpiEnvImpl.obj
 0001:0002b4e0       ?terminatePool@EnvImpl@@UEAAXPEAVPoolImpl@@@Z 000000018002c4e0 f   dpiEnvImpl.obj
 0001:0002b500       ?releaseConnection@PoolImpl@@UEAAXPEAVConnImpl@@@Z 000000018002c500 f   dpiPoolImpl.obj
 0001:0002b500       ?releaseConnection@EnvImpl@@UEAAXPEAVConnImpl@@@Z 000000018002c500 f   dpiEnvImpl.obj
 0001:0002b520       ?cleanup@EnvImpl@@AEAAXXZ  000000018002c520 f   dpiEnvImpl.obj
 0001:0002b550       ?getDateTimeArray@EnvImpl@@UEBAPEAVDateTimeArray@dpi@@PEAUOCIError@@@Z 000000018002c550 f   dpiEnvImpl.obj
 0001:0002b5a0       ?releaseDateTimeArray@EnvImpl@@UEBAXPEAVDateTimeArray@dpi@@@Z 000000018002c5a0 f   dpiEnvImpl.obj
 0001:0002b5c0       ?allocHandle@EnvImpl@@UEAAPEAUDpiHandle@dpi@@W4HandleType@3@@Z 000000018002c5c0 f   dpiEnvImpl.obj
 0001:0002b610       ?allocDescriptor@EnvImpl@@UEAAPEAUDescriptor@dpi@@W4DescriptorType@3@@Z 000000018002c610 f   dpiEnvImpl.obj
 0001:0002b660       ?allocDescriptorArray@EnvImpl@@UEAAXW4DescriptorType@dpi@@IQEAPEAUDescriptor@3@@Z 000000018002c660 f   dpiEnvImpl.obj
 0001:0002b6a0       ?envHandle@EnvImpl@@UEBAPEAUDpiHandle@dpi@@XZ 000000018002c6a0 f   dpiEnvImpl.obj
 0001:0002b6b0       ??0ExceptionImpl@@QEAA@W4DpiError@dpi@@@Z 000000018002c6b0 f   dpiExceptionImpl.obj
 0001:0002b950       ??0ExceptionImpl@@QEAA@PEBDH0@Z 000000018002c950 f   dpiExceptionImpl.obj
 0001:0002ba00       ??1ExceptionImpl@@UEAA@XZ  000000018002ca00 f   dpiExceptionImpl.obj
 0001:0002bae0       ?what@ExceptionImpl@@UEBAPEBDXZ 000000018002cae0 f   dpiExceptionImpl.obj
 0001:0002baf0       ?errnum@ExceptionImpl@@UEBAHXZ 000000018002caf0 f   dpiExceptionImpl.obj
 0001:0002bb00       ?origin@ExceptionImpl@@UEBAPEBDXZ 000000018002cb00 f   dpiExceptionImpl.obj
 0001:0002bb10       ??$_Insert_string@DU?$char_traits@D@std@@_K@std@@YAAEAV?$basic_ostream@DU?$char_traits@D@std@@@0@AEAV10@QEBD_K@Z 000000018002cb10 f i dpiExceptionImpl.obj
 0001:0002bd70       ??1Conn@dpi@@MEAA@XZ       000000018002cd70 f i dpiConnImpl.obj
 0001:0002bd80       ??_GConn@dpi@@MEAAPEAXI@Z  000000018002cd80 f i dpiConnImpl.obj
 0001:0002bd80       ??_EConn@dpi@@MEAAPEAXI@Z  000000018002cd80 f i * CIL library *:* CIL module *
 0001:0002bdb0       ?tagMatched@ConnImpl@@UEAAHXZ 000000018002cdb0 f i dpiConnImpl.obj
 0001:0002bdc0       ?tag@ConnImpl@@UEAAAEAV?$basic_string@DU?$char_traits@D@std@@V?$allocator@D@2@@std@@XZ 000000018002cdc0 f i dpiConnImpl.obj
 0001:0002bdd0       ?getSvch@ConnImpl@@UEAAPEAUDpiHandle@dpi@@XZ 000000018002cdd0 f i dpiConnImpl.obj
 0001:0002bde0       ?getErrh@ConnImpl@@UEAAPEAUDpiHandle@dpi@@XZ 000000018002cde0 f i dpiConnImpl.obj
 0001:0002bdf0       ??0ConnImpl@@QEAA@PEAVEnvImpl@@PEAUOCIEnv@@_NIAEBV?$basic_string@DU?$char_traits@D@std@@V?$allocator@D@2@@std@@333W4DBPrivileges@dpi@@@Z 000000018002cdf0 f   dpiConnImpl.obj
 0001:0002c060       ??0ConnImpl@@QEAA@PEAVPoolImpl@@PEAUOCIEnv@@_NPEAEIAEBV?$basic_string@DU?$char_traits@D@std@@V?$allocator@D@2@@std@@444HW4DBPrivileges@dpi@@H@Z 000000018002d060 f   dpiConnImpl.obj
 0001:0002c1e0       ??_GConnImpl@@UEAAPEAXI@Z  000000018002d1e0 f i dpiConnImpl.obj
 0001:0002c1e0       ??_EConnImpl@@UEAAPEAXI@Z  000000018002d1e0 f i * CIL library *:* CIL module *
 0001:0002c360       ?release@ConnImpl@@UEAAXAEBV?$basic_string@DU?$char_traits@D@std@@V?$allocator@D@2@@std@@H@Z 000000018002d360 f   dpiConnImpl.obj
 0001:0002c4a0       ?releaseStmt@ConnImpl@@UEAAXPEAVStmt@dpi@@@Z 000000018002d4a0 f   dpiConnImpl.obj
 0001:0002c4c0       ?stmtCacheSize@ConnImpl@@UEAAXI@Z 000000018002d4c0 f   dpiConnImpl.obj
 0001:0002c510       ?getVarCharByteExpansionRatio@ConnImpl@@UEAAIXZ 000000018002d510 f   dpiConnImpl.obj
 0001:0002c520       ?stmtCacheSize@ConnImpl@@UEBAIXZ 000000018002d520 f   dpiConnImpl.obj
 0001:0002c570       ?lobPrefetchSize@ConnImpl@@UEBAIXZ 000000018002d570 f   dpiConnImpl.obj
 0001:0002c5c0       ?clientId@ConnImpl@@UEAAXAEBV?$basic_string@DU?$char_traits@D@std@@V?$allocator@D@2@@std@@@Z 000000018002d5c0 f   dpiConnImpl.obj
 0001:0002c610       ?module@ConnImpl@@UEAAXAEBV?$basic_string@DU?$char_traits@D@std@@V?$allocator@D@2@@std@@@Z 000000018002d610 f   dpiConnImpl.obj
 0001:0002c660       ?action@ConnImpl@@UEAAXAEBV?$basic_string@DU?$char_traits@D@std@@V?$allocator@D@2@@std@@@Z 000000018002d660 f   dpiConnImpl.obj
 0001:0002c6b0       ?getStmt@ConnImpl@@UEAAPEAVStmt@dpi@@AEBV?$basic_string@DU?$char_traits@D@std@@V?$allocator@D@2@@std@@@Z 000000018002d6b0 f   dpiConnImpl.obj
 0001:0002c700       ?commit@ConnImpl@@UEAAXXZ  000000018002d700 f   dpiConnImpl.obj
 0001:0002c730       ?rollback@ConnImpl@@UEAAXXZ 000000018002d730 f   dpiConnImpl.obj
 0001:0002c760       ?breakExecution@ConnImpl@@UEAAXXZ 000000018002d760 f   dpiConnImpl.obj
 0001:0002c7b0       ?setErrState@ConnImpl@@UEAAXH@Z 000000018002d7b0 f   dpiConnImpl.obj
 0001:0002c7f0       ?getServerVersion@ConnImpl@@UEAAIXZ 000000018002d7f0 f   dpiConnImpl.obj
 0001:0002c870       ?initConnImpl@ConnImpl@@AEAAX_N0AEBV?$basic_string@DU?$char_traits@D@std@@V?$allocator@D@2@@std@@PEAEI111HAEAV23@AEAHW4DBPrivileges@dpi@@@Z 000000018002d870 f   dpiConnImpl.obj
 0001:0002cdb0       ?cleanup@ConnImpl@@AEAAXXZ 000000018002ddb0 f   dpiConnImpl.obj
 0001:0002cec0       ??_GDateTimeArray@dpi@@UEAAPEAXI@Z 000000018002dec0 f i dpiDateTimeArrayImpl.obj
 0001:0002cec0       ??_EDateTimeArray@dpi@@UEAAPEAXI@Z 000000018002dec0 f i * CIL library *:* CIL module *
 0001:0002cef0       ??_EDateTimeArrayImpl@dpi@@UEAAPEAXI@Z 000000018002def0 f i * CIL library *:* CIL module *
 0001:0002cef0       ??_GDateTimeArrayImpl@dpi@@UEAAPEAXI@Z 000000018002def0 f i dpiDateTimeArrayImpl.obj
 0001:0002cf50       ?init@DateTimeArrayImpl@dpi@@UEAAPEAXH@Z 000000018002df50 f   dpiDateTimeArrayImpl.obj
 0001:0002d050       ?release@DateTimeArrayImpl@dpi@@UEAAXXZ 000000018002e050 f   dpiDateTimeArrayImpl.obj
 0001:0002d0c0       ?getDateTime@DateTimeArrayImpl@dpi@@UEAAOH@Z 000000018002e0c0 f   dpiDateTimeArrayImpl.obj
 0001:0002d280       ?setDateTime@DateTimeArrayImpl@dpi@@UEAAXHO@Z 000000018002e280 f   dpiDateTimeArrayImpl.obj
 0001:0002d4b0       ??1SPool@dpi@@MEAA@XZ      000000018002e4b0 f i dpiPoolImpl.obj
 0001:0002d4c0       ??_GSPool@dpi@@MEAAPEAXI@Z 000000018002e4c0 f i dpiPoolImpl.obj
 0001:0002d4c0       ??_ESPool@dpi@@MEAAPEAXI@Z 000000018002e4c0 f i * CIL library *:* CIL module *
 0001:0002d4f0       ??0PoolImpl@@QEAA@PEAVEnvImpl@@PEAUOCIEnv@@AEBV?$basic_string@DU?$char_traits@D@std@@V?$allocator@D@2@@std@@22HHHH_NH3H@Z 000000018002e4f0 f   dpiPoolImpl.obj
 0001:0002d930       ??_GPoolImpl@@UEAAPEAXI@Z  000000018002e930 f i dpiPoolImpl.obj
 0001:0002d930       ??_EPoolImpl@@UEAAPEAXI@Z  000000018002e930 f i * CIL library *:* CIL module *
 0001:0002d980       ?terminate@PoolImpl@@UEAAXXZ 000000018002e980 f   dpiPoolImpl.obj
 0001:0002da10       ?poolTimeout@PoolImpl@@UEAAXI@Z 000000018002ea10 f   dpiPoolImpl.obj
 0001:0002da60       ?stmtCacheSize@PoolImpl@@UEAAXI@Z 000000018002ea60 f   dpiPoolImpl.obj
 0001:0002dab0       ?connectionsOpen@PoolImpl@@UEBAIXZ 000000018002eab0 f   dpiPoolImpl.obj
 0001:0002db00       ?connectionsInUse@PoolImpl@@UEBAIXZ 000000018002eb00 f   dpiPoolImpl.obj
 0001:0002db50       ?getConnection@PoolImpl@@UEAAPEAVConn@dpi@@AEBV?$basic_string@DU?$char_traits@D@std@@V?$allocator@D@2@@std@@000HW4DBPrivileges@3@@Z 000000018002eb50 f   dpiPoolImpl.obj
 0001:0002dc10       ?cleanup@PoolImpl@@AEAAXXZ 000000018002ec10 f   dpiPoolImpl.obj
 0001:0002dc90       ??1Stmt@dpi@@UEAA@XZ       000000018002ec90 f i dpiStmtImpl.obj
 0001:0002dca0       ??_EStmt@dpi@@UEAAPEAXI@Z  000000018002eca0 f i * CIL library *:* CIL module *
 0001:0002dca0       ??_GStmt@dpi@@UEAAPEAXI@Z  000000018002eca0 f i dpiStmtImpl.obj
 0001:0002dcd0       ?getError@StmtImpl@@UEAAPEAUOCIError@@XZ 000000018002ecd0 f i dpiStmtImpl.obj
 0001:0002dce0       ??0StmtImpl@@QEAA@PEAUOCIEnv@@PEAVConnImpl@@PEAUOCISvcCtx@@AEBV?$basic_string@DU?$char_traits@D@std@@V?$allocator@D@2@@std@@@Z 000000018002ece0 f   dpiStmtImpl.obj
 0001:0002de10       ??_GStmtImpl@@UEAAPEAXI@Z  000000018002ee10 f i dpiStmtImpl.obj
 0001:0002de10       ??_EStmtImpl@@UEAAPEAXI@Z  000000018002ee10 f i * CIL library *:* CIL module *
 0001:0002de70       ?stmtType@StmtImpl@@UEBA?AW4DpiStmtType@dpi@@XZ 000000018002ee70 f   dpiStmtImpl.obj
 0001:0002ded0       ?rowsAffected@StmtImpl@@UEBA_KXZ 000000018002eed0 f   dpiStmtImpl.obj
 0001:0002df30       ?numCols@StmtImpl@@UEAAIXZ 000000018002ef30 f   dpiStmtImpl.obj
 0001:0002df90       ?prefetchRows@StmtImpl@@UEAAXI@Z 000000018002ef90 f   dpiStmtImpl.obj
 0001:0002dfe0       ?bind@StmtImpl@@UEAAXIGPEAX_JPEAFPEAII3PEAUDpiBindCallbackCtx@dpi@@@Z 000000018002efe0 f   dpiStmtImpl.obj
 0001:0002e120       ?bind@StmtImpl@@UEAAXPEBEHIGPEAX_JPEAFPEAII4PEAUDpiBindCallbackCtx@dpi@@@Z 000000018002f120 f   dpiStmtImpl.obj
 0001:0002e280       ?execute@StmtImpl@@UEAAXH_N@Z 000000018002f280 f   dpiStmtImpl.obj
 0001:0002e2d0       ?release@StmtImpl@@UEAAXXZ 000000018002f2d0 f   dpiStmtImpl.obj
 0001:0002e310       ?define@StmtImpl@@UEAAXIGPEAX_JPEAFPEAIPEAUDpiDefineCallbackCtx@dpi@@@Z 000000018002f310 f   dpiStmtImpl.obj
 0001:0002e440       ?fetch@StmtImpl@@UEAAXI@Z  000000018002f440 f   dpiStmtImpl.obj
 0001:0002e490       ?rowsFetched@StmtImpl@@UEBAIXZ 000000018002f490 f   dpiStmtImpl.obj
 0001:0002e4e0       ?getMetaData@StmtImpl@@UEAAPEBUMetaData@dpi@@_N@Z 000000018002f4e0 f   dpiStmtImpl.obj
 0001:0002e820       ?cleanup@StmtImpl@@AEAAXXZ 000000018002f820 f   dpiStmtImpl.obj
 0001:0002e8c0       ?inbindCallback@StmtImpl@@SAHPEAXPEAUOCIBind@@IIPEAPEAXPEAIPEAE2@Z 000000018002f8c0 f   dpiStmtImpl.obj
 0001:0002e900       ?outbindCallback@StmtImpl@@SAHPEAXPEAUOCIBind@@IIPEAPEAXPEAPEAIPEAE2PEAPEAG@Z 000000018002f900 f   dpiStmtImpl.obj
 0001:0002ea20       ?defineCallback@StmtImpl@@SAHPEAXPEAUOCIDefine@@IPEAPEAXPEAPEAIPEAE2PEAPEAG@Z 000000018002fa20 f   dpiStmtImpl.obj
 0001:0002ea70       ?isReturning@StmtImpl@@UEAA_NXZ 000000018002fa70 f   dpiStmtImpl.obj
 0001:0002eaf0       ?getState@StmtImpl@@UEAAIXZ 000000018002faf0 f   dpiStmtImpl.obj
 0001:0002ec8c       __imp_load_uv_queue_work   000000018002fc8c f   node:node.exe
 0001:0002ec98       __tailMerge_node_exe       000000018002fc98     node:node.exe
 0001:0002ed11       __imp_load_?Global@Context@v8@@QEAA?AV?$Local@VObject@v8@@@2@XZ 000000018002fd11 f   node:node.exe
 0001:0002ed1d       __imp_load_?Value@External@v8@@QEBAPEAXXZ 000000018002fd1d f   node:node.exe
 0001:0002ed29       __imp_load_?New@External@v8@@SA?AV?$Local@VExternal@v8@@@2@PEAVIsolate@2@PEAX@Z 000000018002fd29 f   node:node.exe
 0001:0002ed35       __imp_load_?NewFromUnsigned@Integer@v8@@SA?AV?$Local@VInteger@v8@@@2@PEAVIsolate@2@I@Z 000000018002fd35 f   node:node.exe
 0001:0002ed41       __imp_load_?New@Integer@v8@@SA?AV?$Local@VInteger@v8@@@2@PEAVIsolate@2@H@Z 000000018002fd41 f   node:node.exe
 0001:0002ed4d       __imp_load_?New@Signature@v8@@SA?AV?$Local@VSignature@v8@@@2@PEAVIsolate@2@V?$Local@VFunctionTemplate@v8@@@2@@Z 000000018002fd4d f   node:node.exe
 0001:0002ed59       __imp_load_?ThrowException@Isolate@v8@@QEAA?AV?$Local@VValue@v8@@@2@V32@@Z 000000018002fd59 f   node:node.exe
 0001:0002ed65       __imp_load_?GetCurrentContext@Isolate@v8@@QEAA?AV?$Local@VContext@v8@@@2@XZ 000000018002fd65 f   node:node.exe
 0001:0002ed71       __imp_load_?GetCurrent@Isolate@v8@@SAPEAV12@XZ 000000018002fd71 f   node:node.exe
 0001:0002ed7d       __imp_load_?CreateHandle@HandleScope@v8@@KAPEAPEAVObject@internal@2@PEAVIsolate@42@PEAV342@@Z 000000018002fd7d f   node:node.exe
 0001:0002ed89       __imp_load_?CreateHandle@HandleScope@v8@@CAPEAPEAVObject@internal@2@PEAVHeapObject@42@PEAV342@@Z 000000018002fd89 f   node:node.exe
 0001:0002ed95       __imp_load_??1HandleScope@v8@@QEAA@XZ 000000018002fd95 f   node:node.exe
 0001:0002eda1       __imp_load_??0HandleScope@v8@@QEAA@PEAVIsolate@1@@Z 000000018002fda1 f   node:node.exe
 0001:0002edad       __imp_load_?Set@Template@v8@@QEAAXV?$Local@VName@v8@@@2@V?$Local@VData@v8@@@2@W4PropertyAttribute@2@@Z 000000018002fdad f   node:node.exe
 0001:0002edb9       __imp_load_?Error@Exception@v8@@SA?AV?$Local@VValue@v8@@@2@V?$Local@VString@v8@@@2@@Z 000000018002fdb9 f   node:node.exe
 0001:0002edc5       __imp_load_?New@Array@v8@@SA?AV?$Local@VArray@v8@@@2@PEAVIsolate@2@H@Z 000000018002fdc5 f   node:node.exe
 0001:0002edd1       __imp_load_?Length@Array@v8@@QEBAIXZ 000000018002fdd1 f   node:node.exe
 0001:0002eddd       __imp_load_?SetClassName@FunctionTemplate@v8@@QEAAXV?$Local@VString@v8@@@2@@Z 000000018002fddd f   node:node.exe
 0001:0002ede9       __imp_load_?PrototypeTemplate@FunctionTemplate@v8@@QEAA?AV?$Local@VObjectTemplate@v8@@@2@XZ 000000018002fde9 f   node:node.exe
 0001:0002edf5       __imp_load_?InstanceTemplate@FunctionTemplate@v8@@QEAA?AV?$Local@VObjectTemplate@v8@@@2@XZ 000000018002fdf5 f   node:node.exe
 0001:0002ee01       __imp_load_?GetFunction@FunctionTemplate@v8@@QEAA?AV?$Local@VFunction@v8@@@2@XZ 000000018002fe01 f   node:node.exe
 0001:0002ee0d       __imp_load_?GetFunction@FunctionTemplate@v8@@QEAA?AV?$MaybeLocal@VFunction@v8@@@2@V?$Local@VContext@v8@@@2@@Z 000000018002fe0d f   node:node.exe
 0001:0002ee19       __imp_load_?New@FunctionTemplate@v8@@SA?AV?$Local@VFunctionTemplate@v8@@@2@PEAVIsolate@2@P6AXAEBV?$FunctionCallbackInfo@VValue@v8@@@2@@ZV?$Local@VValue@v8@@@2@V?$Local@VSignature@v8@@@2@HW4ConstructorBehavior@2@@Z 000000018002fe19 f   node:node.exe
 0001:0002ee25       __imp_load_?Value@Boolean@v8@@QEBA_NXZ 000000018002fe25 f   node:node.exe
 0001:0002ee31       __imp_load_?ToLocalEmpty@V8@v8@@CAXXZ 000000018002fe31 f   node:node.exe
 0001:0002ee3d       __imp_load_?FromJustIsNothing@V8@v8@@CAXXZ 000000018002fe3d f   node:node.exe
 0001:0002ee49       __imp_load_?ClearWeak@V8@v8@@CAPEAXPEAPEAVObject@internal@2@@Z 000000018002fe49 f   node:node.exe
 0001:0002ee55       __imp_load_?MakeWeak@V8@v8@@CAXPEAPEAVObject@internal@2@PEAXP6AXAEBV?$WeakCallbackInfo@X@2@@ZW4WeakCallbackType@2@@Z 000000018002fe55 f   node:node.exe
 0001:0002ee61       __imp_load_?DisposeGlobal@V8@v8@@CAXPEAPEAVObject@internal@2@@Z 000000018002fe61 f   node:node.exe
 0001:0002ee6d       __imp_load_?GlobalizeReference@V8@v8@@CAPEAPEAVObject@internal@2@PEAVIsolate@42@PEAPEAV342@@Z 000000018002fe6d f   node:node.exe
 0001:0002ee79       __imp_load_?Int32Value@Value@v8@@QEBA?AV?$Maybe@H@2@V?$Local@VContext@v8@@@2@@Z 000000018002fe79 f   node:node.exe
 0001:0002ee85       __imp_load_?Uint32Value@Value@v8@@QEBA?AV?$Maybe@I@2@V?$Local@VContext@v8@@@2@@Z 000000018002fe85 f   node:node.exe
 0001:0002ee91       __imp_load_?ToInteger@Value@v8@@QEBA?AV?$MaybeLocal@VInteger@v8@@@2@V?$Local@VContext@v8@@@2@@Z 000000018002fe91 f   node:node.exe
 0001:0002ee9d       __imp_load_?IsUint32@Value@v8@@QEBA_NXZ 000000018002fe9d f   node:node.exe
 0001:0002eea9       __imp_load_?IsInt32@Value@v8@@QEBA_NXZ 000000018002fea9 f   node:node.exe
 0001:0002eeb5       __imp_load_?IsNumber@Value@v8@@QEBA_NXZ 000000018002feb5 f   node:node.exe
 0001:0002eec1       __imp_load_?IsObject@Value@v8@@QEBA_NXZ 000000018002fec1 f   node:node.exe
 0001:0002eecd       __imp_load_?IsArray@Value@v8@@QEBA_NXZ 000000018002fecd f   node:node.exe
 0001:0002eed9       __imp_load_?IsFunction@Value@v8@@QEBA_NXZ 000000018002fed9 f   node:node.exe
 0001:0002eee5       __imp_load_?HasCaught@TryCatch@v8@@QEBA_NXZ 000000018002fee5 f   node:node.exe
 0001:0002eef1       __imp_load_??1TryCatch@v8@@QEAA@XZ 000000018002fef1 f   node:node.exe
 0001:0002eefd       __imp_load_??0TryCatch@v8@@QEAA@PEAVIsolate@1@@Z 000000018002fefd f   node:node.exe
 0001:0002ef09       __imp_load_?Escape@EscapableHandleScope@v8@@AEAAPEAPEAVObject@internal@2@PEAPEAV342@@Z 000000018002ff09 f   node:node.exe
 0001:0002ef15       __imp_load_??0EscapableHandleScope@v8@@QEAA@PEAVIsolate@1@@Z 000000018002ff15 f   node:node.exe
 0001:0002ef21       __imp_load_??1Utf8Value@String@v8@@QEAA@XZ 000000018002ff21 f   node:node.exe
 0001:0002ef2d       __imp_load_??0Utf8Value@String@v8@@QEAA@V?$Local@VValue@v8@@@2@@Z 000000018002ff2d f   node:node.exe
 0001:0002ef39       __imp_load_?NewFromUtf8@String@v8@@SA?AV?$MaybeLocal@VString@v8@@@2@PEAVIsolate@2@PEBDW4NewStringType@2@H@Z 000000018002ff39 f   node:node.exe
 0001:0002ef45       __imp_load_?SlowGetAlignedPointerFromInternalField@Object@v8@@AEAAPEAXH@Z 000000018002ff45 f   node:node.exe
 0001:0002ef51       __imp_load_?SlowGetInternalField@Object@v8@@AEAA?AV?$Local@VValue@v8@@@2@H@Z 000000018002ff51 f   node:node.exe
 0001:0002ef5d       __imp_load_?SetAlignedPointerInInternalField@Object@v8@@QEAAXHPEAX@Z 000000018002ff5d f   node:node.exe
 0001:0002ef69       __imp_load_?SetInternalField@Object@v8@@QEAAXHV?$Local@VValue@v8@@@2@@Z 000000018002ff69 f   node:node.exe
 0001:0002ef75       __imp_load_?InternalFieldCount@Object@v8@@QEAAHXZ 000000018002ff75 f   node:node.exe
 0001:0002ef81       __imp_load_?Get@Object@v8@@QEAA?AV?$Local@VValue@v8@@@2@V32@@Z 000000018002ff81 f   node:node.exe
 0001:0002ef8d       __imp_load_?Get@Object@v8@@QEAA?AV?$Local@VValue@v8@@@2@I@Z 000000018002ff8d f   node:node.exe
 0001:0002ef99       __imp_load_?Set@Object@v8@@QEAA?AV?$Maybe@_N@2@V?$Local@VContext@v8@@@2@V?$Local@VValue@v8@@@2@1@Z 000000018002ff99 f   node:node.exe
 0001:0002efa5       __imp_load_?Set@Object@v8@@QEAA_NIV?$Local@VValue@v8@@@2@@Z 000000018002ffa5 f   node:node.exe
 0001:0002efb1       __imp_load_?SetInternalFieldCount@ObjectTemplate@v8@@QEAAXH@Z 000000018002ffb1 f   node:node.exe
 0001:0002efbd       __imp_load_?SetAccessor@ObjectTemplate@v8@@QEAAXV?$Local@VName@v8@@@2@P6AX0AEBV?$PropertyCallbackInfo@VValue@v8@@@2@@ZP6AX0V?$Local@VValue@v8@@@2@AEBV?$PropertyCallbackInfo@X@2@@Z3W4AccessControl@2@W4PropertyAttribute@2@V?$Local@VAccessorSignature@v8@@@2@@Z 000000018002ffbd f   node:node.exe
 0001:0002efc9       __imp_load_?NewInstance@ObjectTemplate@v8@@QEAA?AV?$MaybeLocal@VObject@v8@@@2@V?$Local@VContext@v8@@@2@@Z 000000018002ffc9 f   node:node.exe
 0001:0002efd5       __imp_load_?New@ObjectTemplate@v8@@SA?AV?$Local@VObjectTemplate@v8@@@2@PEAVIsolate@2@V?$Local@VFunctionTemplate@v8@@@2@@Z 000000018002ffd5 f   node:node.exe
 0001:0002efe1       __imp_load_?FatalException@node@@YAXPEAVIsolate@v8@@AEBVTryCatch@3@@Z 000000018002ffe1 f   node:node.exe
 0001:0002efed       __imp_load_node_module_register 000000018002ffed f   node:node.exe
 0001:0002eff9       __imp_load_?MakeCallback@node@@YA?AV?$Local@VValue@v8@@@v8@@PEAVIsolate@3@V?$Local@VObject@v8@@@3@V?$Local@VFunction@v8@@@3@HPEAV23@@Z 000000018002fff9 f   node:node.exe
 0001:0002f005       __imp_load_uv_default_loop 0000000180030005 f   node:node.exe
 0001:0002f011       __imp_load_?ToObject@Value@v8@@QEBA?AV?$Local@VObject@v8@@@2@XZ 0000000180030011 f   node:node.exe
 0001:0002f01d       __imp_load_?ToString@Value@v8@@QEBA?AV?$Local@VString@v8@@@2@XZ 000000018003001d f   node:node.exe
 0001:0002f029       __imp_load_?ToBoolean@Value@v8@@QEBA?AV?$Local@VBoolean@v8@@@2@XZ 0000000180030029 f   node:node.exe
 0001:0002f035       __imp_load_?NewInstance@Function@v8@@QEBA?AV?$MaybeLocal@VObject@v8@@@2@V?$Local@VContext@v8@@@2@@Z 0000000180030035 f   node:node.exe
 0001:0002f041       __imp_load_??1EscapableHandleScope@v8@@QEAA@XZ 0000000180030041 f   node:node.exe
 0001:0002f04d       __imp_load_?New@Date@v8@@SA?AV?$MaybeLocal@VValue@v8@@@2@V?$Local@VContext@v8@@@2@N@Z 000000018003004d f   node:node.exe
 0001:0002f059       __imp_load_?NumberValue@Value@v8@@QEBANXZ 0000000180030059 f   node:node.exe
 0001:0002f065       __imp_load_?IsDate@Value@v8@@QEBA_NXZ 0000000180030065 f   node:node.exe
 0001:0002f071       __imp_load_?New@Number@v8@@SA?AV?$Local@VNumber@v8@@@2@PEAVIsolate@2@N@Z 0000000180030071 f   node:node.exe
 0001:0002f07d       __imp_load_?New@Object@v8@@SA?AV?$Local@VObject@v8@@@2@PEAVIsolate@2@@Z 000000018003007d f   node:node.exe
 0001:0002f089       __imp_load_?GetOwnPropertyNames@Object@v8@@QEAA?AV?$Local@VArray@v8@@@2@XZ 0000000180030089 f   node:node.exe
 0001:0002f095       __imp_load_?ForceSet@Object@v8@@QEAA?AV?$Maybe@_N@2@V?$Local@VContext@v8@@@2@V?$Local@VValue@v8@@@2@1W4PropertyAttribute@2@@Z 0000000180030095 f   node:node.exe
 0001:0002f0a1       __imp_load_?Set@Object@v8@@QEAA?AV?$Maybe@_N@2@V?$Local@VContext@v8@@@2@IV?$Local@VValue@v8@@@2@@Z 00000001800300a1 f   node:node.exe
 0001:0002f0ad       __imp_load_?Call@Function@v8@@QEAA?AV?$Local@VValue@v8@@@2@V32@HQEAV32@@Z 00000001800300ad f   node:node.exe
 0001:0002f0b9       __imp_load_?HasInstance@Buffer@node@@YA_NV?$Local@VValue@v8@@@v8@@@Z 00000001800300b9 f   node:node.exe
 0001:0002f0c5       __imp_load_?HasInstance@Buffer@node@@YA_NV?$Local@VObject@v8@@@v8@@@Z 00000001800300c5 f   node:node.exe
 0001:0002f0d1       __imp_load_?Data@Buffer@node@@YAPEADV?$Local@VObject@v8@@@v8@@@Z 00000001800300d1 f   node:node.exe
 0001:0002f0dd       __imp_load_?Copy@Buffer@node@@YA?AV?$MaybeLocal@VObject@v8@@@v8@@PEAVIsolate@4@PEBD_K@Z 00000001800300dd f   node:node.exe
 0001:0002f0e9       __imp_load_?Length@Buffer@node@@YA_KV?$Local@VObject@v8@@@v8@@@Z 00000001800300e9 f   node:node.exe
 0001:0002f0f5       __imp_load_?HasInstance@FunctionTemplate@v8@@QEAA_NV?$Local@VValue@v8@@@2@@Z 00000001800300f5 f   node:node.exe
 0001:0002f104       ??0_Init_locks@std@@QEAA@XZ 0000000180030104 f   libcpmt:xlock.obj
 0001:0002f150       ??0_Lockit@std@@QEAA@H@Z   0000000180030150 f   libcpmt:xlock.obj
 0001:0002f18c       ??1_Init_locks@std@@QEAA@XZ 000000018003018c f   libcpmt:xlock.obj
 0001:0002f1d0       ??1_Lockit@std@@QEAA@XZ    00000001800301d0 f   libcpmt:xlock.obj
 0001:0002f204       ??0exception@std@@QEAA@AEBV01@@Z 0000000180030204 f i libcpmt:xonce.obj
 0001:0002f23c       ?_Execute_once@std@@YAHAEAUonce_flag@1@P6AHPEAX1PEAPEAX@Z1@Z 000000018003023c f   libcpmt:xonce.obj
 0001:0002f244       ?what@exception@std@@UEBAPEBDXZ 0000000180030244 f i libcpmt:xonce.obj
 0001:0002f258       ??4?$_Yarn@D@std@@QEAAAEAV01@PEBD@Z 0000000180030258 f i libcpmt:locale0.obj
 0001:0002f2d0       ??_G_Fac_node@std@@QEAAPEAXI@Z 00000001800302d0 f i libcpmt:locale0.obj
 0001:0002f35c       ??_E_Locimp@locale@std@@MEAAPEAXI@Z 000000018003035c f i libcpmt:locale0.obj
 0001:0002f35c       ??_G_Locimp@locale@std@@MEAAPEAXI@Z 000000018003035c f i libcpmt:locale0.obj
 0001:0002f3c8       ?_Facet_Register@std@@YAXPEAV_Facet_base@1@@Z 00000001800303c8 f   libcpmt:locale0.obj
 0001:0002f400       ?_Getgloballocale@locale@std@@CAPEAV_Locimp@12@XZ 0000000180030400 f   libcpmt:locale0.obj
 0001:0002f408       ?_Init@locale@std@@CAPEAV_Locimp@12@_N@Z 0000000180030408 f   libcpmt:locale0.obj
 0001:0002f4c4       ?_Locimp_dtor@_Locimp@locale@std@@CAXPEAV123@@Z 00000001800304c4 f   libcpmt:locale0.obj
 0001:0002f56c       ?_Locinfo_ctor@_Locinfo@std@@SAXPEAV12@PEBD@Z 000000018003056c f   libcpmt:locale0.obj
 0001:0002f5d8       ?_Locinfo_dtor@_Locinfo@std@@SAXPEAV12@@Z 00000001800305d8 f   libcpmt:locale0.obj
 0001:0002f5fc       ?_New_Locimp@_Locimp@locale@std@@CAPEAV123@_N@Z 00000001800305fc f   libcpmt:locale0.obj
 0001:0002f66c       ?_Setgloballocale@locale@std@@CAXPEAX@Z 000000018003066c f   libcpmt:locale0.obj
 0001:0002f6a0       _Deletegloballocale        00000001800306a0 f   libcpmt:locale0.obj
 0001:0002f728       ??0bad_alloc@std@@QEAA@AEBV01@@Z 0000000180030728 f i libcpmt:xthrow.obj
 0001:0002f768       ??0bad_alloc@std@@QEAA@XZ  0000000180030768 f i libcpmt:xthrow.obj
 0001:0002f788       ??0length_error@std@@QEAA@AEBV01@@Z 0000000180030788 f i libcpmt:xthrow.obj
 0001:0002f7c8       ??0length_error@std@@QEAA@PEBD@Z 00000001800307c8 f i libcpmt:xthrow.obj
 0001:0002f814       ??0logic_error@std@@QEAA@AEBV01@@Z 0000000180030814 f i libcpmt:xthrow.obj
 0001:0002f854       ??0out_of_range@std@@QEAA@AEBV01@@Z 0000000180030854 f i libcpmt:xthrow.obj
 0001:0002f894       ??0out_of_range@std@@QEAA@PEBD@Z 0000000180030894 f i libcpmt:xthrow.obj
 0001:0002f8e0       ??_Elength_error@std@@UEAAPEAXI@Z 00000001800308e0 f i libcpmt:xthrow.obj
 0001:0002f8e0       ??_Glogic_error@std@@UEAAPEAXI@Z 00000001800308e0 f i libcpmt:xthrow.obj
 0001:0002f8e0       ??_Ebad_alloc@std@@UEAAPEAXI@Z 00000001800308e0 f i libcpmt:xthrow.obj
 0001:0002f8e0       ??_Gbad_alloc@std@@UEAAPEAXI@Z 00000001800308e0 f i libcpmt:xthrow.obj
 0001:0002f8e0       ??_Gexception@std@@UEAAPEAXI@Z 00000001800308e0 f i libcpmt:xonce.obj
 0001:0002f8e0       ??_Glength_error@std@@UEAAPEAXI@Z 00000001800308e0 f i libcpmt:xthrow.obj
 0001:0002f8e0       ??_Eexception@std@@UEAAPEAXI@Z 00000001800308e0 f i libcpmt:xonce.obj
 0001:0002f8e0       ??_Elogic_error@std@@UEAAPEAXI@Z 00000001800308e0 f i libcpmt:xthrow.obj
 0001:0002f8e0       ??_Gout_of_range@std@@UEAAPEAXI@Z 00000001800308e0 f i libcpmt:xthrow.obj
 0001:0002f8e0       ??_Ebad_array_new_length@std@@UEAAPEAXI@Z 00000001800308e0 f i LIBCMT:throw_bad_alloc.obj
 0001:0002f8e0       ??_Eout_of_range@std@@UEAAPEAXI@Z 00000001800308e0 f i libcpmt:xthrow.obj
 0001:0002f8e0       ??_Gbad_array_new_length@std@@UEAAPEAXI@Z 00000001800308e0 f i LIBCMT:throw_bad_alloc.obj
 0001:0002f8e0       ??_Gbad_exception@std@@UEAAPEAXI@Z 00000001800308e0 f i libvcruntime:frame.obj
 0001:0002f8e0       ??_Ebad_exception@std@@UEAAPEAXI@Z 00000001800308e0 f i libvcruntime:frame.obj
 0001:0002f924       ?_Xlength_error@std@@YAXPEBD@Z 0000000180030924 f   libcpmt:xthrow.obj
 0001:0002f948       ?_Xout_of_range@std@@YAXPEBD@Z 0000000180030948 f   libcpmt:xthrow.obj
 0001:0002f96c       ?_Ios_base_dtor@ios_base@std@@CAXPEAV12@@Z 000000018003096c f   libcpmt:ios.obj
 0001:0002f9b0       ?_Tidy@ios_base@std@@AEAAXXZ 00000001800309b0 f i libcpmt:ios.obj
 0001:0002fa40       ?_Syserror_map@std@@YAPEBDH@Z 0000000180030a40 f   libcpmt:syserror.obj
 0001:0002fa68       _Getctype                  0000000180030a68 f   libcpmt:_tolower.obj
 0001:0002fb28       _Tolower                   0000000180030b28 f   libcpmt:_tolower.obj
 0001:0002fc50       _Getcvt                    0000000180030c50 f   libcpmt:xwctomb.obj
 0001:0002fce4       _Toupper                   0000000180030ce4 f   libcpmt:_toupper.obj
 0001:0002fe1c       ?setw@std@@YA?AU?$_Smanip@_J@1@_J@Z 0000000180030e1c f   libcpmt:iomanip.obj
 0001:0002fe38       _Mtxdst                    0000000180030e38 f   libcpmt:xmtx.obj
 0001:0002fe40       _Mtxinit                   0000000180030e40 f   libcpmt:xmtx.obj
 0001:0002fe50       _Mtxlock                   0000000180030e50 f   libcpmt:xmtx.obj
 0001:0002fe58       _Mtxunlock                 0000000180030e58 f   libcpmt:xmtx.obj
 0001:00030330       __crtInitOnceExecuteOnce   0000000180031330 f   libcpmt:winapisupp.obj
 0001:0003040c       __crtInitializeCriticalSectionEx 000000018003140c f   libcpmt:winapisupp.obj
 0001:0003046c       ?_Atexit@@YAXP6AXXZ@Z      000000018003146c f   libcpmt:iosptrs.obj
 0001:000304ac       __crtLCMapStringA          00000001800314ac f   libcpmt:StlLCMapStringA.obj
 0001:00030760       GetTableIndexFromLocaleName 0000000180031760 f   libcpmt:winapinls.obj
 0001:000307e8       __crtDownlevelLocaleNameToLCID 00000001800317e8 f   libcpmt:winapinls.obj
 0001:0003081c       __crtLCMapStringEx         000000018003181c f   libcpmt:winapinls.obj
 0001:000308d8       __wcsnicmp_ascii           00000001800318d8 f   libcpmt:winapinls.obj
 0001:00030940       __security_check_cookie    0000000180031940 f   LIBCMT:_amdsecgs_.obj
 0001:00030964       ??3@YAXPEAX_K@Z            0000000180031964 f   LIBCMT:delete_scalar_size.obj
 0001:00030964       ??_V@YAXPEAX@Z             0000000180031964 f   LIBCMT:delete_array.obj
 0001:00030ae0       _Init_thread_footer        0000000180031ae0 f   LIBCMT:thread_safe_statics.obj
 0001:00030b40       _Init_thread_header        0000000180031b40 f   LIBCMT:thread_safe_statics.obj
 0001:00030ba8       _Init_thread_notify        0000000180031ba8 f   LIBCMT:thread_safe_statics.obj
 0001:00030c04       _Init_thread_wait          0000000180031c04 f   LIBCMT:thread_safe_statics.obj
 0001:00030c90       ??2@YAPEAX_K@Z             0000000180031c90 f   LIBCMT:new_scalar.obj
 0001:00030ccc       __scrt_acquire_startup_lock 0000000180031ccc f   LIBCMT:utility.obj
 0001:00030d08       __scrt_dllmain_after_initialize_c 0000000180031d08 f   LIBCMT:utility.obj
 0001:00030d3c       __scrt_dllmain_before_initialize_c 0000000180031d3c f   LIBCMT:utility.obj
 0001:00030d54       __scrt_dllmain_crt_thread_attach 0000000180031d54 f   LIBCMT:utility.obj
 0001:00030d7c       __scrt_dllmain_crt_thread_detach 0000000180031d7c f   LIBCMT:utility.obj
 0001:00030d94       __scrt_dllmain_exception_filter 0000000180031d94 f   LIBCMT:utility.obj
 0001:00030df8       __scrt_dllmain_uninitialize_c 0000000180031df8 f   LIBCMT:utility.obj
 0001:00030e28       __scrt_dllmain_uninitialize_critical 0000000180031e28 f   LIBCMT:utility.obj
 0001:00030e3c       __scrt_initialize_crt      0000000180031e3c f   LIBCMT:utility.obj
 0001:00030e88       __scrt_initialize_onexit_tables 0000000180031e88 f   LIBCMT:utility.obj
 0001:00030f68       __scrt_is_nonwritable_in_current_image 0000000180031f68 f   LIBCMT:utility.obj
 0001:00031004       __scrt_release_startup_lock 0000000180032004 f   LIBCMT:utility.obj
 0001:00031028       __scrt_uninitialize_crt    0000000180032028 f   LIBCMT:utility.obj
 0001:00031054       _onexit                    0000000180032054 f   LIBCMT:utility.obj
 0001:000310a4       atexit                     00000001800320a4 f   LIBCMT:utility.obj
 0001:000310bc       ??3@YAXPEAX@Z              00000001800320bc f   LIBCMT:delete_scalar.obj
 0001:000310c4       ??_Gtype_info@@UEAAPEAXI@Z 00000001800320c4 f i LIBCMT:std_type_info_static.obj
 0001:000310c4       ??_Etype_info@@UEAAPEAXI@Z 00000001800320c4 f i LIBCMT:std_type_info_static.obj
 0001:000310f0       ??_V@YAXPEAX_K@Z           00000001800320f0 f   LIBCMT:delete_array_size.obj
 0001:000310f8       ??_M@YAXPEAX_K1P6AX0@Z@Z   00000001800320f8 f   LIBCMT:ehvecdtr.obj
 0001:00031164       ?__ArrayUnwind@@YAXPEAX_K1P6AX0@Z@Z 0000000180032164 f   LIBCMT:ehvecdtr.obj
 0001:000311c8       ??_U@YAPEAX_K@Z            00000001800321c8 f   LIBCMT:new_array.obj
 0001:000311d0       ??_L@YAXPEAX_K1P6AX0@Z2@Z  00000001800321d0 f   LIBCMT:ehvecctr.obj
 0001:00031240       __raise_securityfailure    0000000180032240 f   LIBCMT:gs_report.obj
 0001:00031274       __report_gsfailure         0000000180032274 f   LIBCMT:gs_report.obj
 0001:00031348       __report_rangecheckfailure 0000000180032348 f   LIBCMT:gs_report.obj
 0001:0003135c       __report_securityfailure   000000018003235c f   LIBCMT:gs_report.obj
 0001:00031818       _DllMainCRTStartup         0000000180032818 f   LIBCMT:dll_dllmain.obj
 0001:00031858       __GSHandlerCheck           0000000180032858 f   LIBCMT:_gshandler_.obj
 0001:00031878       __GSHandlerCheckCommon     0000000180032878 f   LIBCMT:_gshandler_.obj
 0001:000318d4       __GSHandlerCheck_EH        00000001800328d4 f   LIBCMT:gshandlereh.obj
 0001:00031954       _guard_check_icall         0000000180032954 f i LIBCMT:checkcfg.obj
 0001:00031970       __chkstk                   0000000180032970 f   LIBCMT:_chkstk_.obj
 0001:00031970       _alloca_probe              0000000180032970 f   LIBCMT:_chkstk_.obj
 0001:000319c4       __crt_debugger_hook        00000001800329c4 f   LIBCMT:utility_desktop.obj
 0001:000319cc       __scrt_fastfail            00000001800329cc f   LIBCMT:utility_desktop.obj
 0001:00031b18       ??0bad_array_new_length@std@@QEAA@AEBV01@@Z 0000000180032b18 f i LIBCMT:throw_bad_alloc.obj
 0001:00031b58       ??0bad_array_new_length@std@@QEAA@XZ 0000000180032b58 f i LIBCMT:throw_bad_alloc.obj
 0001:00031b78       ?__scrt_throw_std_bad_alloc@@YAXXZ 0000000180032b78 f   LIBCMT:throw_bad_alloc.obj
 0001:00031b78       ?_Xbad_alloc@std@@YAXXZ    0000000180032b78 f   libcpmt:xthrow.obj
 0001:00031b98       ?__scrt_throw_std_bad_array_new_length@@YAXXZ 0000000180032b98 f   LIBCMT:throw_bad_alloc.obj
 0001:00031bb8       __isa_available_init       0000000180032bb8 f   LIBCMT:_cpu_disp_.obj
 0001:00031d74       __scrt_is_ucrt_dll_in_use  0000000180032d74 f   LIBCMT:ucrt_detection.obj
 0001:00031d80       __security_init_cookie     0000000180032d80 f   LIBCMT:gs_support.obj
 0001:00031e2c       _get_startup_argv_mode     0000000180032e2c f   LIBCMT:argv_mode.obj
 0001:00031e2c       DllMain                    0000000180032e2c f   LIBCMT:dll_dllmain_stub.obj
 0001:00031e34       ?__scrt_initialize_type_info@@YAXXZ 0000000180032e34 f   LIBCMT:tncleanup.obj
 0001:00031e44       ?__scrt_uninitialize_type_info@@YAXXZ 0000000180032e44 f   LIBCMT:tncleanup.obj
 0001:00031e50       __local_stdio_scanf_options 0000000180032e50 f i LIBCMT:default_local_stdio_options.obj
 0001:00031e58       __scrt_initialize_default_local_stdio_options 0000000180032e58 f   LIBCMT:default_local_stdio_options.obj
 0001:00031e74       __scrt_get_dyn_tls_init_callback 0000000180032e74 f   LIBCMT:dyn_tls_init.obj
 0001:00031e7c       _RTC_Initialize            0000000180032e7c f   LIBCMT:_initsect_.obj
 0001:00031ec8       _RTC_Terminate             0000000180032ec8 f   LIBCMT:_initsect_.obj
 0001:00031f20       ?_ExecutionInCatch@@YAHPEAU_xDISPATCHER_CONTEXT@@PEBU_s_FuncInfo@@@Z 0000000180032f20 f   libvcruntime:risctrnsctrl.obj
 0001:00031f94       ?_GetEstablisherFrame@@YAPEA_KPEA_KPEAU_xDISPATCHER_CONTEXT@@PEBU_s_FuncInfo@@0@Z 0000000180032f94 f   libvcruntime:risctrnsctrl.obj
 0001:00032060       ?_GetRangeOfTrysToCheck@@YAPEBU_s_TryBlockMapEntry@@PEA_KPEBU_s_FuncInfo@@HHPEAI2PEAU_xDISPATCHER_CONTEXT@@@Z 0000000180033060 f   libvcruntime:risctrnsctrl.obj
 0001:0003218c       ?__FrameUnwindToEmptyState@@YAXPEA_KPEAU_xDISPATCHER_CONTEXT@@PEBU_s_FuncInfo@@@Z 000000018003318c f   libvcruntime:risctrnsctrl.obj
 0001:00032220       _CallSETranslator          0000000180033220 f   libvcruntime:risctrnsctrl.obj
 0001:00032278       _CreateFrameInfo           0000000180033278 f   libvcruntime:risctrnsctrl.obj
 0001:000322b4       _FindAndUnlinkFrame        00000001800332b4 f   libvcruntime:risctrnsctrl.obj
 0001:0003230c       _GetImageBase              000000018003330c f   libvcruntime:risctrnsctrl.obj
 0001:00032320       _GetThrowImageBase         0000000180033320 f   libvcruntime:risctrnsctrl.obj
 0001:00032334       _SetImageBase              0000000180033334 f   libvcruntime:risctrnsctrl.obj
 0001:0003234c       _SetThrowImageBase         000000018003334c f   libvcruntime:risctrnsctrl.obj
 0001:00032364       _UnwindNestedFrames        0000000180033364 f   libvcruntime:risctrnsctrl.obj
 0001:00032488       __CxxFrameHandler3         0000000180033488 f   libvcruntime:risctrnsctrl.obj
 0001:00032520       memmove                    0000000180033520 f   libvcruntime:memcpy.obj
 0001:00032520       memcpy                     0000000180033520 f   libvcruntime:memcpy.obj
 0001:00032968       _purecall                  0000000180033968 f   libvcruntime:purevirt.obj
 0001:000329a0       __DestructExceptionObject  00000001800339a0 f   libvcruntime:ehhelpers.obj
 0001:00032a28       ?_CallMemberFunction0@@YAXQEAX0@Z 0000000180033a28 f i libvcruntime:ehhelpers.obj
 0001:00032a2c       _IsExceptionObjectToBeDestroyed 0000000180033a2c f   libvcruntime:ehhelpers.obj
 0001:00032a5c       __AdjustPointer            0000000180033a5c f   libvcruntime:ehhelpers.obj
 0001:00032a80       __FrameUnwindFilter        0000000180033a80 f   libvcruntime:ehhelpers.obj
 0001:00032acc       __std_terminate            0000000180033acc f   libvcruntime:ehhelpers.obj
 0001:00032ad8       __std_exception_copy       0000000180033ad8 f   libvcruntime:std_exception.obj
 0001:00032b68       __std_exception_destroy    0000000180033b68 f   libvcruntime:std_exception.obj
 0001:00032b90       _CxxThrowException         0000000180033b90 f   libvcruntime:throw.obj
 0001:00032c80       memset                     0000000180033c80 f   libvcruntime:memset.obj
 0001:00032e40       memchr                     0000000180033e40 f   libvcruntime:memchr.obj
 0001:00032ec0       memcmp                     0000000180033ec0 f   libvcruntime:memcmp.obj
 0001:00033160       __vcrt_FlsAlloc            0000000180034160 f   libvcruntime:winapi_downlevel.obj
 0001:000331b4       __vcrt_FlsFree             00000001800341b4 f   libvcruntime:winapi_downlevel.obj
 0001:00033208       __vcrt_FlsGetValue         0000000180034208 f   libvcruntime:winapi_downlevel.obj
 0001:0003325c       __vcrt_FlsSetValue         000000018003425c f   libvcruntime:winapi_downlevel.obj
 0001:000332c4       __vcrt_InitializeCriticalSectionEx 00000001800342c4 f   libvcruntime:winapi_downlevel.obj
 0001:0003333c       __vcrt_initialize_winapi_thunks 000000018003433c f   libvcruntime:winapi_downlevel.obj
 0001:00033380       __vcrt_uninitialize_winapi_thunks 0000000180034380 f   libvcruntime:winapi_downlevel.obj
 0001:000333c0       __vcrt_initialize          00000001800343c0 f   libvcruntime:initialization.obj
 0001:000333f4       __vcrt_thread_attach       00000001800343f4 f   libvcruntime:initialization.obj
 0001:00033408       __vcrt_thread_detach       0000000180034408 f   libvcruntime:initialization.obj
 0001:0003341c       __vcrt_uninitialize        000000018003441c f   libvcruntime:initialization.obj
 0001:0003343c       __vcrt_uninitialize_critical 000000018003443c f   libvcruntime:initialization.obj
 0001:0003344c       __C_specific_handler       000000018003444c f   libvcruntime:_riscchandler_.obj
 0001:00033648       __std_type_info_compare    0000000180034648 f   libvcruntime:std_type_info.obj
 0001:00033670       __std_type_info_destroy_list 0000000180034670 f   libvcruntime:std_type_info.obj
 0001:0003369c       __vcrt_freefls             000000018003469c f   libvcruntime:per_thread_data.obj
 0001:000336bc       __vcrt_freeptd             00000001800346bc f   libvcruntime:per_thread_data.obj
 0001:0003370c       __vcrt_getptd              000000018003470c f   libvcruntime:per_thread_data.obj
 0001:00033728       __vcrt_getptd_noexit       0000000180034728 f   libvcruntime:per_thread_data.obj
 0001:000337e0       __vcrt_initialize_ptd      00000001800347e0 f   libvcruntime:per_thread_data.obj
 0001:00033820       __vcrt_uninitialize_ptd    0000000180034820 f   libvcruntime:per_thread_data.obj
 0001:00033844       ?__GetCurrentState@@YAHPEA_KPEAU_xDISPATCHER_CONTEXT@@PEBU_s_FuncInfo@@@Z 0000000180034844 f   libvcruntime:riscehstate.obj
 0001:0003386c       ?__GetUnwindTryBlock@@YAHPEA_KPEAU_xDISPATCHER_CONTEXT@@PEBU_s_FuncInfo@@@Z 000000018003486c f   libvcruntime:riscehstate.obj
 0001:00033898       ?__SetState@@YAXPEA_KPEAU_xDISPATCHER_CONTEXT@@PEBU_s_FuncInfo@@H@Z 0000000180034898 f   libvcruntime:riscehstate.obj
 0001:000338a4       ?__SetUnwindTryBlock@@YAXPEA_KPEAU_xDISPATCHER_CONTEXT@@PEBU_s_FuncInfo@@H@Z 00000001800348a4 f   libvcruntime:riscehstate.obj
 0001:000338e0       ?__StateFromControlPc@@YAHPEBU_s_FuncInfo@@PEAU_xDISPATCHER_CONTEXT@@@Z 00000001800348e0 f   libvcruntime:riscehstate.obj
 0001:000338e8       ?__StateFromIp@@YAHPEBU_s_FuncInfo@@PEAU_xDISPATCHER_CONTEXT@@_K@Z 00000001800348e8 f   libvcruntime:riscehstate.obj
 0001:00033954       ??0bad_exception@std@@QEAA@AEBV01@@Z 0000000180034954 f i libvcruntime:frame.obj
 0001:00033994       ??0bad_exception@std@@QEAA@XZ 0000000180034994 f i libvcruntime:frame.obj
 0001:000339b4       ??1bad_array_new_length@std@@UEAA@XZ 00000001800349b4 f i LIBCMT:throw_bad_alloc.obj
 0001:000339b4       ??1bad_alloc@std@@UEAA@XZ  00000001800349b4 f i libcpmt:xthrow.obj
 0001:000339b4       ??1out_of_range@std@@UEAA@XZ 00000001800349b4 f i libcpmt:xthrow.obj
 0001:000339b4       ??1bad_exception@std@@UEAA@XZ 00000001800349b4 f i libvcruntime:frame.obj
 0001:000339b4       ??1length_error@std@@UEAA@XZ 00000001800349b4 f i libcpmt:xthrow.obj
 0001:00034324       ?_CallMemberFunction1@@YAXQEAX00@Z 0000000180035324 f i libvcruntime:frame.obj
 0001:00034330       ?_CallMemberFunction2@@YAXQEAX00H@Z 0000000180035330 f i libvcruntime:frame.obj
 0001:00034340       __BuildCatchObject         0000000180035340 f   libvcruntime:frame.obj
 0001:00034404       __BuildCatchObjectHelper   0000000180035404 f   libvcruntime:frame.obj
 0001:000345e4       __CxxCallCatchBlock        00000001800355e4 f   libvcruntime:frame.obj
 0001:000347d0       __FrameUnwindToState       00000001800357d0 f   libvcruntime:frame.obj
 0001:00034964       __InternalCxxFrameHandler  0000000180035964 f   libvcruntime:frame.obj
 0001:00034bb8       __TypeMatch                0000000180035bb8 f   libvcruntime:frame.obj
 0001:00034cf8       __vcrt_initialize_pure_virtual_call_handler 0000000180035cf8 f   libvcruntime:purevirt_data.obj
 0001:00034d1c       __vcrt_initialize_locks    0000000180035d1c f   libvcruntime:locks.obj
 0001:00034d64       __vcrt_uninitialize_locks  0000000180035d64 f   libvcruntime:locks.obj
 0001:00034db0       _local_unwind              0000000180035db0 f   libvcruntime:_jmpuwind_.obj
 0001:00034de0       _NLG_Notify                0000000180035de0 f   libvcruntime:_jmpuwind_.obj
 0001:00034e00       __NLG_Dispatch2            0000000180035e00 f   libvcruntime:_jmpuwind_.obj
 0001:00034e10       __NLG_Return2              0000000180035e10 f   libvcruntime:_jmpuwind_.obj
 0001:00034e14       __except_validate_context_record 0000000180035e14 f   libvcruntime:jbcxrval.obj
 0001:00034e60       _CallSettingFrame          0000000180035e60 f   libvcruntime:handlers.obj
 0001:00034ea0       abort                      0000000180035ea0 f   libucrt:abort.obj
 0001:00034ef8       calloc                     0000000180035ef8 f   libucrt:calloc.obj
 0001:00034f00       __acrt_call_reportfault    0000000180035f00 f   libucrt:invalid_parameter.obj
 0001:0003505c       __acrt_initialize_invalid_parameter_handler 000000018003605c f   libucrt:invalid_parameter.obj
 0001:00035064       _invalid_parameter         0000000180036064 f   libucrt:invalid_parameter.obj
 0001:00035114       _invalid_parameter_noinfo  0000000180036114 f   libucrt:invalid_parameter.obj
 0001:00035134       _invalid_parameter_noinfo_noreturn 0000000180036134 f   libucrt:invalid_parameter.obj
 0001:00035164       _invoke_watson             0000000180036164 f   libucrt:invalid_parameter.obj
 0001:000351ac       strcspn                    00000001800361ac f   libucrt:strcspn.obj
 0001:000357f8       ??$ensure_buffer_is_big_enough@D@formatting_buffer@__crt_stdio_output@@QEAA_N_K@Z 00000001800367f8 f i libucrt:output.obj
 0001:000358a4       ??$is_wide_character_specifier@D@__crt_stdio_output@@YA_N_KDW4length_modifier@0@@Z 00000001800368a4 f i libucrt:output.obj
 0001:000358d4       ??$is_wide_character_specifier@_W@__crt_stdio_output@@YA_N_K_WW4length_modifier@0@@Z 00000001800368d4 f i libucrt:output.obj
 0001:00035914       ??$type_case_integer_parse_into_buffer@I@?$output_processor@DV?$string_output_adapter@D@__crt_stdio_output@@V?$standard_base@DV?$string_output_adapter@D@__crt_stdio_output@@@2@@__crt_stdio_output@@AEAAXII_N@Z 0000000180036914 f i libucrt:output.obj
 0001:00035914       ??$type_case_integer_parse_into_buffer@I@?$output_processor@DV?$string_output_adapter@D@__crt_stdio_output@@V?$format_validation_base@DV?$string_output_adapter@D@__crt_stdio_output@@@2@@__crt_stdio_output@@AEAAXII_N@Z 0000000180036914 f i libucrt:output.obj
 0001:000359b0       ??$type_case_integer_parse_into_buffer@I@?$output_processor@_WV?$string_output_adapter@_W@__crt_stdio_output@@V?$standard_base@_WV?$string_output_adapter@_W@__crt_stdio_output@@@2@@__crt_stdio_output@@AEAAXII_N@Z 00000001800369b0 f i libucrt:output.obj
 0001:000359b0       ??$type_case_integer_parse_into_buffer@I@?$output_processor@_WV?$stream_output_adapter@_W@__crt_stdio_output@@V?$standard_base@_WV?$stream_output_adapter@_W@__crt_stdio_output@@@2@@__crt_stdio_output@@AEAAXII_N@Z 00000001800369b0 f i libucrt:output.obj
 0001:00035a5c       ??$type_case_integer_parse_into_buffer@_K@?$output_processor@DV?$string_output_adapter@D@__crt_stdio_output@@V?$standard_base@DV?$string_output_adapter@D@__crt_stdio_output@@@2@@__crt_stdio_output@@AEAAX_KI_N@Z 0000000180036a5c f i libucrt:output.obj
 0001:00035a5c       ??$type_case_integer_parse_into_buffer@_K@?$output_processor@DV?$string_output_adapter@D@__crt_stdio_output@@V?$format_validation_base@DV?$string_output_adapter@D@__crt_stdio_output@@@2@@__crt_stdio_output@@AEAAX_KI_N@Z 0000000180036a5c f i libucrt:output.obj
 0001:00035af8       ??$type_case_integer_parse_into_buffer@_K@?$output_processor@_WV?$string_output_adapter@_W@__crt_stdio_output@@V?$standard_base@_WV?$string_output_adapter@_W@__crt_stdio_output@@@2@@__crt_stdio_output@@AEAAX_KI_N@Z 0000000180036af8 f i libucrt:output.obj
 0001:00035af8       ??$type_case_integer_parse_into_buffer@_K@?$output_processor@_WV?$stream_output_adapter@_W@__crt_stdio_output@@V?$standard_base@_WV?$stream_output_adapter@_W@__crt_stdio_output@@@2@@__crt_stdio_output@@AEAAX_KI_N@Z 0000000180036af8 f i libucrt:output.obj
 0001:00035ba4       ??$write_multiple_characters@V?$stream_output_adapter@_W@__crt_stdio_output@@D@__crt_stdio_output@@YAXAEBV?$stream_output_adapter@_W@0@DHQEAH@Z 0000000180036ba4 f i libucrt:output.obj
 0001:00035c30       ??$write_multiple_characters@V?$string_output_adapter@D@__crt_stdio_output@@D@__crt_stdio_output@@YAXAEBV?$string_output_adapter@D@0@DHQEAH@Z 0000000180036c30 f i libucrt:output.obj
 0001:00035c8c       ??$write_multiple_characters@V?$string_output_adapter@_W@__crt_stdio_output@@D@__crt_stdio_output@@YAXAEBV?$string_output_adapter@_W@0@DHQEAH@Z 0000000180036c8c f i libucrt:output.obj
 0001:00035cfc       ??0_LocaleUpdate@@QEAA@QEAU__crt_locale_pointers@@@Z 0000000180036cfc f i libucrt:output.obj
 0001:00035ec0       ?force_decimal_point@__crt_stdio_output@@YAXPEADQEAU__crt_locale_pointers@@@Z 0000000180036ec0 f i libucrt:output.obj
 0001:00035f30       ?parse_int_from_format_string@?$output_processor@DV?$string_output_adapter@D@__crt_stdio_output@@V?$format_validation_base@DV?$string_output_adapter@D@__crt_stdio_output@@@2@@__crt_stdio_output@@AEAA_NQEAH@Z 0000000180036f30 f i libucrt:output.obj
 0001:00035f30       ?parse_int_from_format_string@?$output_processor@DV?$string_output_adapter@D@__crt_stdio_output@@V?$standard_base@DV?$string_output_adapter@D@__crt_stdio_output@@@2@@__crt_stdio_output@@AEAA_NQEAH@Z 0000000180036f30 f i libucrt:output.obj
 0001:00035fd4       ?parse_int_from_format_string@?$output_processor@_WV?$string_output_adapter@_W@__crt_stdio_output@@V?$standard_base@_WV?$string_output_adapter@_W@__crt_stdio_output@@@2@@__crt_stdio_output@@AEAA_NQEAH@Z 0000000180036fd4 f i libucrt:output.obj
 0001:00035fd4       ?parse_int_from_format_string@?$output_processor@_WV?$stream_output_adapter@_W@__crt_stdio_output@@V?$standard_base@_WV?$stream_output_adapter@_W@__crt_stdio_output@@@2@@__crt_stdio_output@@AEAA_NQEAH@Z 0000000180036fd4 f i libucrt:output.obj
 0001:00036078       ?process@?$output_processor@DV?$string_output_adapter@D@__crt_stdio_output@@V?$format_validation_base@DV?$string_output_adapter@D@__crt_stdio_output@@@2@@__crt_stdio_output@@QEAAHXZ 0000000180037078 f i libucrt:output.obj
 0001:00036290       ?process@?$output_processor@DV?$string_output_adapter@D@__crt_stdio_output@@V?$standard_base@DV?$string_output_adapter@D@__crt_stdio_output@@@2@@__crt_stdio_output@@QEAAHXZ 0000000180037290 f i libucrt:output.obj
 0001:00036498       ?process@?$output_processor@_WV?$stream_output_adapter@_W@__crt_stdio_output@@V?$standard_base@_WV?$stream_output_adapter@_W@__crt_stdio_output@@@2@@__crt_stdio_output@@QEAAHXZ 0000000180037498 f i libucrt:output.obj
 0001:00036708       ?process@?$output_processor@_WV?$string_output_adapter@_W@__crt_stdio_output@@V?$standard_base@_WV?$string_output_adapter@_W@__crt_stdio_output@@@2@@__crt_stdio_output@@QEAAHXZ 0000000180037708 f i libucrt:output.obj
 0001:00036988       ?state_case_normal@?$output_processor@DV?$string_output_adapter@D@__crt_stdio_output@@V?$format_validation_base@DV?$string_output_adapter@D@__crt_stdio_output@@@2@@__crt_stdio_output@@AEAA_NXZ 0000000180037988 f i libucrt:output.obj
 0001:00036988       ?state_case_normal@?$output_processor@DV?$string_output_adapter@D@__crt_stdio_output@@V?$standard_base@DV?$string_output_adapter@D@__crt_stdio_output@@@2@@__crt_stdio_output@@AEAA_NXZ 0000000180037988 f i libucrt:output.obj
 0001:000369fc       ?state_case_normal_tchar@?$output_processor@DV?$string_output_adapter@D@__crt_stdio_output@@V?$format_validation_base@DV?$string_output_adapter@D@__crt_stdio_output@@@2@@__crt_stdio_output@@AEAA_ND@Z 00000001800379fc f i libucrt:output.obj
 0001:000369fc       ?state_case_normal_tchar@?$output_processor@DV?$string_output_adapter@D@__crt_stdio_output@@V?$standard_base@DV?$string_output_adapter@D@__crt_stdio_output@@@2@@__crt_stdio_output@@AEAA_ND@Z 00000001800379fc f i libucrt:output.obj
 0001:00036a94       ?state_case_size@?$output_processor@DV?$string_output_adapter@D@__crt_stdio_output@@V?$standard_base@DV?$string_output_adapter@D@__crt_stdio_output@@@2@@__crt_stdio_output@@AEAA_NXZ 0000000180037a94 f i libucrt:output.obj
 0001:00036a94       ?state_case_size@?$output_processor@DV?$string_output_adapter@D@__crt_stdio_output@@V?$format_validation_base@DV?$string_output_adapter@D@__crt_stdio_output@@@2@@__crt_stdio_output@@AEAA_NXZ 0000000180037a94 f i libucrt:output.obj
 0001:00036c10       ?state_case_size@?$output_processor@_WV?$stream_output_adapter@_W@__crt_stdio_output@@V?$standard_base@_WV?$stream_output_adapter@_W@__crt_stdio_output@@@2@@__crt_stdio_output@@AEAA_NXZ 0000000180037c10 f i libucrt:output.obj
 0001:00036db4       ?state_case_size@?$output_processor@_WV?$string_output_adapter@_W@__crt_stdio_output@@V?$standard_base@_WV?$string_output_adapter@_W@__crt_stdio_output@@@2@@__crt_stdio_output@@AEAA_NXZ 0000000180037db4 f i libucrt:output.obj
 0001:00036f58       ?state_case_type@?$output_processor@DV?$string_output_adapter@D@__crt_stdio_output@@V?$format_validation_base@DV?$string_output_adapter@D@__crt_stdio_output@@@2@@__crt_stdio_output@@AEAA_NXZ 0000000180037f58 f i libucrt:output.obj
 0001:00036f58       ?state_case_type@?$output_processor@DV?$string_output_adapter@D@__crt_stdio_output@@V?$standard_base@DV?$string_output_adapter@D@__crt_stdio_output@@@2@@__crt_stdio_output@@AEAA_NXZ 0000000180037f58 f i libucrt:output.obj
 0001:000371d0       ?state_case_type@?$output_processor@_WV?$stream_output_adapter@_W@__crt_stdio_output@@V?$standard_base@_WV?$stream_output_adapter@_W@__crt_stdio_output@@@2@@__crt_stdio_output@@AEAA_NXZ 00000001800381d0 f i libucrt:output.obj
 0001:000374cc       ?state_case_type@?$output_processor@_WV?$string_output_adapter@_W@__crt_stdio_output@@V?$standard_base@_WV?$string_output_adapter@_W@__crt_stdio_output@@@2@@__crt_stdio_output@@AEAA_NXZ 00000001800384cc f i libucrt:output.obj
 0001:000377b8       ?type_case_Z@?$output_processor@DV?$string_output_adapter@D@__crt_stdio_output@@V?$format_validation_base@DV?$string_output_adapter@D@__crt_stdio_output@@@2@@__crt_stdio_output@@AEAA_NXZ 00000001800387b8 f i libucrt:output.obj
 0001:000377b8       ?type_case_Z@?$output_processor@DV?$string_output_adapter@D@__crt_stdio_output@@V?$standard_base@DV?$string_output_adapter@D@__crt_stdio_output@@@2@@__crt_stdio_output@@AEAA_NXZ 00000001800387b8 f i libucrt:output.obj
 0001:00037838       ?type_case_Z@?$output_processor@_WV?$stream_output_adapter@_W@__crt_stdio_output@@V?$standard_base@_WV?$stream_output_adapter@_W@__crt_stdio_output@@@2@@__crt_stdio_output@@AEAA_NXZ 0000000180038838 f i libucrt:output.obj
 0001:00037838       ?type_case_Z@?$output_processor@_WV?$string_output_adapter@_W@__crt_stdio_output@@V?$standard_base@_WV?$string_output_adapter@_W@__crt_stdio_output@@@2@@__crt_stdio_output@@AEAA_NXZ 0000000180038838 f i libucrt:output.obj
 0001:000378b8       ?type_case_a@?$output_processor@DV?$string_output_adapter@D@__crt_stdio_output@@V?$format_validation_base@DV?$string_output_adapter@D@__crt_stdio_output@@@2@@__crt_stdio_output@@AEAA_NXZ 00000001800388b8 f i libucrt:output.obj
 0001:000378b8       ?type_case_a@?$output_processor@DV?$string_output_adapter@D@__crt_stdio_output@@V?$standard_base@DV?$string_output_adapter@D@__crt_stdio_output@@@2@@__crt_stdio_output@@AEAA_NXZ 00000001800388b8 f i libucrt:output.obj
 0001:00037adc       ?type_case_a@?$output_processor@_WV?$string_output_adapter@_W@__crt_stdio_output@@V?$standard_base@_WV?$string_output_adapter@_W@__crt_stdio_output@@@2@@__crt_stdio_output@@AEAA_NXZ 0000000180038adc f i libucrt:output.obj
 0001:00037adc       ?type_case_a@?$output_processor@_WV?$stream_output_adapter@_W@__crt_stdio_output@@V?$standard_base@_WV?$stream_output_adapter@_W@__crt_stdio_output@@@2@@__crt_stdio_output@@AEAA_NXZ 0000000180038adc f i libucrt:output.obj
 0001:00037d28       ?type_case_c_tchar@?$output_processor@DV?$string_output_adapter@D@__crt_stdio_output@@V?$format_validation_base@DV?$string_output_adapter@D@__crt_stdio_output@@@2@@__crt_stdio_output@@AEAA_ND@Z 0000000180038d28 f i libucrt:output.obj
 0001:00037d28       ?type_case_c_tchar@?$output_processor@DV?$string_output_adapter@D@__crt_stdio_output@@V?$standard_base@DV?$string_output_adapter@D@__crt_stdio_output@@@2@@__crt_stdio_output@@AEAA_ND@Z 0000000180038d28 f i libucrt:output.obj
 0001:00037ddc       ?type_case_c_tchar@?$output_processor@_WV?$stream_output_adapter@_W@__crt_stdio_output@@V?$standard_base@_WV?$stream_output_adapter@_W@__crt_stdio_output@@@2@@__crt_stdio_output@@AEAA_N_W@Z 0000000180038ddc f i libucrt:output.obj
 0001:00037ddc       ?type_case_c_tchar@?$output_processor@_WV?$string_output_adapter@_W@__crt_stdio_output@@V?$standard_base@_WV?$string_output_adapter@_W@__crt_stdio_output@@@2@@__crt_stdio_output@@AEAA_N_W@Z 0000000180038ddc f i libucrt:output.obj
 0001:00037e84       ?type_case_integer@?$output_processor@DV?$string_output_adapter@D@__crt_stdio_output@@V?$standard_base@DV?$string_output_adapter@D@__crt_stdio_output@@@2@@__crt_stdio_output@@AEAA_NI_N@Z 0000000180038e84 f i libucrt:output.obj
 0001:00037e84       ?type_case_integer@?$output_processor@DV?$string_output_adapter@D@__crt_stdio_output@@V?$format_validation_base@DV?$string_output_adapter@D@__crt_stdio_output@@@2@@__crt_stdio_output@@AEAA_NI_N@Z 0000000180038e84 f i libucrt:output.obj
 0001:00038028       ?type_case_integer@?$output_processor@_WV?$string_output_adapter@_W@__crt_stdio_output@@V?$standard_base@_WV?$string_output_adapter@_W@__crt_stdio_output@@@2@@__crt_stdio_output@@AEAA_NI_N@Z 0000000180039028 f i libucrt:output.obj
 0001:00038028       ?type_case_integer@?$output_processor@_WV?$stream_output_adapter@_W@__crt_stdio_output@@V?$standard_base@_WV?$stream_output_adapter@_W@__crt_stdio_output@@@2@@__crt_stdio_output@@AEAA_NI_N@Z 0000000180039028 f i libucrt:output.obj
 0001:000381d4       ?type_case_n@?$output_processor@DV?$string_output_adapter@D@__crt_stdio_output@@V?$standard_base@DV?$string_output_adapter@D@__crt_stdio_output@@@2@@__crt_stdio_output@@AEAA_NXZ 00000001800391d4 f i libucrt:output.obj
 0001:000381d4       ?type_case_n@?$output_processor@DV?$string_output_adapter@D@__crt_stdio_output@@V?$format_validation_base@DV?$string_output_adapter@D@__crt_stdio_output@@@2@@__crt_stdio_output@@AEAA_NXZ 00000001800391d4 f i libucrt:output.obj
 0001:000381d4       ?type_case_n@?$output_processor@_WV?$string_output_adapter@_W@__crt_stdio_output@@V?$standard_base@_WV?$string_output_adapter@_W@__crt_stdio_output@@@2@@__crt_stdio_output@@AEAA_NXZ 00000001800391d4 f i libucrt:output.obj
 0001:000381d4       ?type_case_n@?$output_processor@_WV?$stream_output_adapter@_W@__crt_stdio_output@@V?$standard_base@_WV?$stream_output_adapter@_W@__crt_stdio_output@@@2@@__crt_stdio_output@@AEAA_NXZ 00000001800391d4 f i libucrt:output.obj
 0001:000382b0       ?type_case_s@?$output_processor@DV?$string_output_adapter@D@__crt_stdio_output@@V?$standard_base@DV?$string_output_adapter@D@__crt_stdio_output@@@2@@__crt_stdio_output@@AEAA_NXZ 00000001800392b0 f i libucrt:output.obj
 0001:000382b0       ?type_case_s@?$output_processor@DV?$string_output_adapter@D@__crt_stdio_output@@V?$format_validation_base@DV?$string_output_adapter@D@__crt_stdio_output@@@2@@__crt_stdio_output@@AEAA_NXZ 00000001800392b0 f i libucrt:output.obj
 0001:00038340       ?type_case_s@?$output_processor@_WV?$string_output_adapter@_W@__crt_stdio_output@@V?$standard_base@_WV?$string_output_adapter@_W@__crt_stdio_output@@@2@@__crt_stdio_output@@AEAA_NXZ 0000000180039340 f i libucrt:output.obj
 0001:00038340       ?type_case_s@?$output_processor@_WV?$stream_output_adapter@_W@__crt_stdio_output@@V?$standard_base@_WV?$stream_output_adapter@_W@__crt_stdio_output@@@2@@__crt_stdio_output@@AEAA_NXZ 0000000180039340 f i libucrt:output.obj
 0001:00038408       ?write_stored_string_tchar@?$output_processor@DV?$string_output_adapter@D@__crt_stdio_output@@V?$standard_base@DV?$string_output_adapter@D@__crt_stdio_output@@@2@@__crt_stdio_output@@AEAA_ND@Z 0000000180039408 f i libucrt:output.obj
 0001:00038408       ?write_stored_string_tchar@?$output_processor@DV?$string_output_adapter@D@__crt_stdio_output@@V?$format_validation_base@DV?$string_output_adapter@D@__crt_stdio_output@@@2@@__crt_stdio_output@@AEAA_ND@Z 0000000180039408 f i libucrt:output.obj
 0001:000384e0       ?write_stored_string_tchar@?$output_processor@_WV?$stream_output_adapter@_W@__crt_stdio_output@@V?$standard_base@_WV?$stream_output_adapter@_W@__crt_stdio_output@@@2@@__crt_stdio_output@@AEAA_N_W@Z 00000001800394e0 f i libucrt:output.obj
 0001:000385e8       ?write_stored_string_tchar@?$output_processor@_WV?$string_output_adapter@_W@__crt_stdio_output@@V?$standard_base@_WV?$string_output_adapter@_W@__crt_stdio_output@@@2@@__crt_stdio_output@@AEAA_N_W@Z 00000001800395e8 f i libucrt:output.obj
 0001:000386d8       ?write_string@?$string_output_adapter@D@__crt_stdio_output@@QEBAXQEBDHQEAHAEAV__crt_deferred_errno_cache@@@Z 00000001800396d8 f i libucrt:output.obj
 0001:0003877c       ?write_string@?$string_output_adapter@_W@__crt_stdio_output@@QEBAXQEB_WHQEAHAEAV__crt_deferred_errno_cache@@@Z 000000018003977c f i libucrt:output.obj
 0001:00038824       ?write_string_impl@?$output_adapter_common@_WV?$stream_output_adapter@_W@__crt_stdio_output@@@__crt_stdio_output@@IEBAXQEB_WHQEAHAEAV__crt_deferred_errno_cache@@@Z 0000000180039824 f i libucrt:output.obj
 0001:00038918       __stdio_common_vfwprintf   0000000180039918 f   libucrt:output.obj
 0001:000389a4       __stdio_common_vsprintf    00000001800399a4 f   libucrt:output.obj
 0001:000389ac       __stdio_common_vsprintf_s  00000001800399ac f   libucrt:output.obj
 0001:00038a10       __stdio_common_vswprintf   0000000180039a10 f   libucrt:output.obj
 0001:00038a18       localeconv                 0000000180039a18 f   libucrt:localeconv.obj
 0001:00038a4c       free                       0000000180039a4c f   libucrt:free.obj
 0001:00038a60       frexp                      0000000180039a60 f   libucrt:frexp.obj
 0001:0003952c       ??$ftprintf@PEAU_iobuf@@PEB_WAEBQEB_WAEBQEB_WAEBI@?$__crt_char_traits@_W@@SAH$$QEAPEAU_iobuf@@$$QEAPEB_WAEBQEB_W2AEBI@Z 000000018003a52c f i libucrt:assert.obj
 0001:00039554       _wassert                   000000018003a554 f   libucrt:assert.obj
 0001:000395d8       fwprintf                   000000018003a5d8 f i libucrt:assert.obj
 0001:0003961c       swprintf                   000000018003a61c f i libucrt:assert.obj
 0001:00039670       malloc                     000000018003a670 f   libucrt:malloc.obj
 0001:00039678       realloc                    000000018003a678 f   libucrt:realloc.obj
 0001:00039680       __ascii_stricmp            000000018003a680 f   libucrt:stricmp.obj
 0001:000396bc       _stricmp                   000000018003a6bc f   libucrt:stricmp.obj
 0001:00039704       _stricmp_l                 000000018003a704 f   libucrt:stricmp.obj
 0001:000397b8       __acrt_initialize_locks    000000018003a7b8 f   libucrt:locks.obj
 0001:00039800       __acrt_lock                000000018003a800 f   libucrt:locks.obj
 0001:0003981c       __acrt_uninitialize_locks  000000018003a81c f   libucrt:locks.obj
 0001:00039854       __acrt_unlock              000000018003a854 f   libucrt:locks.obj
 0001:00039870       _lock_locales              000000018003a870 f   libucrt:locks.obj
 0001:0003988c       _unlock_locales            000000018003a88c f   libucrt:locks.obj
 0001:0003989c       terminate                  000000018003a89c f   libucrt:terminate.obj
 0001:00039bc4       setlocale                  000000018003abc4 f   libucrt:setlocale.obj
 0001:00039c10       _calloc_base               000000018003ac10 f   libucrt:calloc_base.obj
 0001:00039c88       __pctype_func              000000018003ac88 f   libucrt:ctype.obj
 0001:00039cb8       isdigit                    000000018003acb8 f i libucrt:_ctype.obj
 0001:00039d2c       islower                    000000018003ad2c f i libucrt:_ctype.obj
 0001:00039da0       isupper                    000000018003ada0 f i libucrt:_ctype.obj
 0001:00039e14       _wcsdup                    000000018003ae14 f   libucrt:wcsdup.obj
 0001:00039e98       ___lc_codepage_func        000000018003ae98 f   libucrt:initctype.obj
 0001:00039ec8       ___lc_locale_name_func     000000018003aec8 f   libucrt:initctype.obj
 0001:00039efc       ___mb_cur_max_func         000000018003aefc f   libucrt:initctype.obj
 0001:00039f2c       __acrt_locale_initialize_ctype 000000018003af2c f   libucrt:initctype.obj
 0001:0003a514       __acrt_errno_from_os_error 000000018003b514 f   libucrt:errno.obj
 0001:0003a55c       __acrt_errno_map_os_error  000000018003b55c f   libucrt:errno.obj
 0001:0003a5ac       __doserrno                 000000018003b5ac f   libucrt:errno.obj
 0001:0003a5cc       _errno                     000000018003b5cc f   libucrt:errno.obj
 0001:0003a664       _ismbblead                 000000018003b664 f   libucrt:ismbbyte.obj
 0001:0003a678       _malloc_base               000000018003b678 f   libucrt:malloc_base.obj
 0001:0003a6d8       _realloc_base              000000018003b6d8 f   libucrt:realloc_base.obj
 0001:0003a754       ??$make_c_string_character_source@_WPEAPEA_W@__crt_strtox@@YA?AV?$c_string_character_source@_W@0@QEB_WQEAPEA_W@Z 000000018003b754 f i libucrt:strtod.obj
 0001:0003a754       ??$make_c_string_character_source@_W$$T@__crt_strtox@@YA?AV?$c_string_character_source@_W@0@QEB_W$$T@Z 000000018003b754 f i libucrt:atox.obj
 0001:0003a754       ??$make_c_string_character_source@DPEAPEAD@__crt_strtox@@YA?AV?$c_string_character_source@D@0@QEBDQEAPEAD@Z 000000018003b754 f i libucrt:strtod.obj
 0001:0003a770       ?divide@__crt_strtox@@YA_KAEAUbig_integer@1@AEBU21@@Z 000000018003b770 f i libucrt:strtod.obj
 0001:0003acc0       pow                        000000018003bcc0 f   libucrt:pow.obj
 0001:0003c360       powf                       000000018003d360 f   libucrt:powf.obj
 0001:0003d228       __strncnt                  000000018003e228 f   libucrt:strncnt.obj
 0001:0003d240       _free_base                 000000018003e240 f   libucrt:free_base.obj
 0001:0003d2c4       _tolower_l                 000000018003e2c4 f   libucrt:tolower_toupper.obj
 0001:0003d404       tolower                    000000018003e404 f   libucrt:tolower_toupper.obj
 0001:0003d430       wcscpy_s                   000000018003e430 f   libucrt:wcscpy_s.obj
 0001:0003d498       strnlen                    000000018003e498 f   libucrt:strnlen.obj
 0001:0003d5dc       wcsnlen                    000000018003e5dc f   libucrt:strnlen.obj
 0001:0003d7a8       __acrt_initialize_new_handler 000000018003e7a8 f   libucrt:new_handler.obj
 0001:0003d7b0       _callnewh                  000000018003e7b0 f   libucrt:new_handler.obj
 0001:0003d7e0       _query_new_handler         000000018003e7e0 f   libucrt:new_handler.obj
 0001:0003d814       _seh_filter_dll            000000018003e814 f   libucrt:exception_filter.obj
 0001:0003d828       _seh_filter_exe            000000018003e828 f   libucrt:exception_filter.obj
 0001:0003dc34       __acrt_initialize_thread_local_exit_callback 000000018003ec34 f   libucrt:exit.obj
 0001:0003dc3c       _cexit                     000000018003ec3c f   libucrt:exit.obj
 0001:0003dc4c       _exit                      000000018003ec4c f   libucrt:exit.obj
 0001:0003dc58       _is_c_termination_complete 000000018003ec58 f   libucrt:exit.obj
 0001:0003de1c       __acrt_allocate_buffer_for_argv 000000018003ee1c f   libucrt:argv_parsing.obj
 0001:0003de7c       _configure_narrow_argv     000000018003ee7c f   libucrt:argv_parsing.obj
 0001:0003e1f8       __dcrt_uninitialize_environments_nolock 000000018003f1f8 f   libucrt:environment_initialization.obj
 0001:0003e230       _initialize_narrow_environment 000000018003f230 f   libucrt:environment_initialization.obj
 0001:0003e5c0       _crt_atexit                000000018003f5c0 f   libucrt:onexit.obj
 0001:0003e5d0       _execute_onexit_table      000000018003f5d0 f   libucrt:onexit.obj
 0001:0003e60c       _initialize_onexit_table   000000018003f60c f   libucrt:onexit.obj
 0001:0003e64c       _register_onexit_function  000000018003f64c f   libucrt:onexit.obj
 0001:0003e7c8       __acrt_initialize          000000018003f7c8 f   libucrt:initialization.obj
 0001:0003e7dc       __acrt_thread_attach       000000018003f7dc f   libucrt:initialization.obj
 0001:0003e7f0       __acrt_thread_detach       000000018003f7f0 f   libucrt:initialization.obj
 0001:0003e800       __acrt_uninitialize        000000018003f800 f   libucrt:initialization.obj
 0001:0003e814       __acrt_uninitialize_critical 000000018003f814 f   libucrt:initialization.obj
 0001:0003e824       _initterm                  000000018003f824 f   libucrt:initterm.obj
 0001:0003e888       _initterm_e                000000018003f888 f   libucrt:initterm.obj
 0001:0003e8c8       strcpy_s                   000000018003f8c8 f   libucrt:strcpy_s.obj
 0001:0003e928       wcsncmp                    000000018003f928 f   libucrt:wcsncmp.obj
 0001:0003e954       ??$parse_integer@KV?$c_string_character_source@D@__crt_strtox@@@__crt_strtox@@YAKQEAU__crt_locale_pointers@@V?$c_string_character_source@D@0@H_N@Z 000000018003f954 f i libucrt:atox.obj
 0001:0003ec70       ??$parse_integer@KV?$c_string_character_source@_W@__crt_strtox@@@__crt_strtox@@YAKQEAU__crt_locale_pointers@@V?$c_string_character_source@_W@0@H_N@Z 000000018003fc70 f i libucrt:atox.obj
 0001:0003f334       _wtol                      0000000180040334 f   libucrt:atox.obj
 0001:0003f3a8       __acrt_get_sigabrt_handler 00000001800403a8 f   libucrt:signal.obj
 0001:0003f3d8       __acrt_initialize_signal_handlers 00000001800403d8 f   libucrt:signal.obj
 0001:0003f3f8       raise                      00000001800403f8 f   libucrt:signal.obj
 0001:0003f9e4       __acrt_freeptd             00000001800409e4 f   libucrt:per_thread_data.obj
 0001:0003fa28       __acrt_getptd              0000000180040a28 f   libucrt:per_thread_data.obj
 0001:0003faf4       __acrt_getptd_head         0000000180040af4 f   libucrt:per_thread_data.obj
 0001:0003fb9c       __acrt_getptd_noexit       0000000180040b9c f   libucrt:per_thread_data.obj
 0001:0003fc6c       __acrt_initialize_ptd      0000000180040c6c f   libucrt:per_thread_data.obj
 0001:0003fca8       __acrt_uninitialize_ptd    0000000180040ca8 f   libucrt:per_thread_data.obj
 0001:0003fccc       strtol                     0000000180040ccc f   libucrt:strtox.obj
 0001:0003fcfc       wcstol                     0000000180040cfc f   libucrt:strtox.obj
 0001:0003fd2c       _mbtowc_l                  0000000180040d2c f   libucrt:mbtowc.obj
 0001:0003fe74       mbtowc                     0000000180040e74 f   libucrt:mbtowc.obj
 0001:0003fe7c       _wctomb_s_l                0000000180040e7c f   libucrt:wctomb.obj
 0001:00040000       wctomb_s                   0000000180041000 f   libucrt:wctomb.obj
 0001:00040014       __acrt_update_locale_info  0000000180041014 f   libucrt:locale_update.obj
 0001:00040048       __acrt_update_multibyte_info 0000000180041048 f   libucrt:locale_update.obj
 0001:0004007c       ?__acrt_fp_classify@@YA?AW4__acrt_fp_class@@AEBN@Z 000000018004107c f i libucrt:cvt.obj
 0001:00040aa0       __acrt_fp_format           0000000180041aa0 f   libucrt:cvt.obj
 0001:00040ce4       _fputwc_nolock             0000000180041ce4 f   libucrt:fputwc.obj
 0001:00040e5c       _fileno                    0000000180041e5c f   libucrt:fileno.obj
 0001:00040e84       __acrt_initialize_stdio    0000000180041e84 f   libucrt:_file.obj
 0001:00040fa4       __acrt_iob_func            0000000180041fa4 f   libucrt:_file.obj
 0001:00040fb8       __acrt_uninitialize_stdio  0000000180041fb8 f   libucrt:_file.obj
 0001:00041014       _lock_file                 0000000180042014 f   libucrt:_file.obj
 0001:00041020       _unlock_file               0000000180042020 f   libucrt:_file.obj
 0001:0004102c       _fputc_nolock              000000018004202c f   libucrt:fputc.obj
 0001:00041044       _get_printf_count_output   0000000180042044 f   libucrt:printf_count_output.obj
 0001:0004105c       __acrt_stdio_begin_temporary_buffering_nolock 000000018004205c f   libucrt:_sftbuf.obj
 0001:0004112c       __acrt_stdio_end_temporary_buffering_nolock 000000018004212c f   libucrt:_sftbuf.obj
 0001:000413d0       __acrt_copy_locale_name    00000001800423d0 f   libucrt:wsetlocale.obj
 0001:00041454       __acrt_set_locale_changed  0000000180042454 f   libucrt:wsetlocale.obj
 0001:00041460       __acrt_uninitialize_locale 0000000180042460 f   libucrt:wsetlocale.obj
 0001:00041490       __lc_lctowcs               0000000180042490 f   libucrt:wsetlocale.obj
 0001:00041534       __lc_wcstolc               0000000180042534 f   libucrt:wsetlocale.obj
 0001:000417ac       _expandlocale              00000001800427ac f   libucrt:wsetlocale.obj
 0001:00041ba8       _wcscats                   0000000180042ba8 f   libucrt:wsetlocale.obj
 0001:00041c10       _wsetlocale                0000000180042c10 f   libucrt:wsetlocale.obj
 0001:00042648       __acrt_initialize_lowio    0000000180043648 f   libucrt:ioinit.obj
 0001:00042684       __acrt_uninitialize_lowio  0000000180043684 f   libucrt:ioinit.obj
 0001:000426c4       _dsign                     00000001800436c4 f   libucrt:nan.obj
 0001:000426dc       _errcode                   00000001800436dc f   libucrt:fpexcept.obj
 0001:00042720       _except1                   0000000180043720 f   libucrt:fpexcept.obj
 0001:00042814       _handle_exc                0000000180043814 f   libucrt:fpexcept.obj
 0001:00042a7c       _raise_exc                 0000000180043a7c f   libucrt:fpexcept.obj
 0001:00042aa4       _raise_exc_ex              0000000180043aa4 f   libucrt:fpexcept.obj
 0001:00042dac       _raise_excf                0000000180043dac f   libucrt:fpexcept.obj
 0001:00042dd8       _set_errno_from_matherr    0000000180043dd8 f   libucrt:fpexcept.obj
 0001:00042e08       _umatherr                  0000000180043e08 f   libucrt:fpexcept.obj
 0001:00042edc       _decomp                    0000000180043edc f   libucrt:util.obj
 0001:0004300c       _sptype                    000000018004400c f   libucrt:util.obj
 0001:00043080       _clrfp                     0000000180044080 f   libucrt:fpctrl.obj
 0001:000430a0       _ctrlfp                    00000001800440a0 f   libucrt:fpctrl.obj
 0001:0004311c       _set_statfp                000000018004411c f   libucrt:fpctrl.obj
 0001:0004313c       _statfp                    000000018004413c f   libucrt:fpctrl.obj
 0001:00043150       _query_app_type            0000000180044150 f   libucrt:report_runtime_error.obj
 0001:0004327c       _itow_s                    000000018004427c f   libucrt:xtoa.obj
 0001:0004329c       _set_error_mode            000000018004429c f   libucrt:set_error_mode.obj
 0001:000432dc       wcscat_s                   00000001800442dc f   libucrt:wcscat_s.obj
 0001:0004335c       wcsncat_s                  000000018004435c f   libucrt:wcsncat_s.obj
 0001:0004345c       __acrt_show_wide_message_box 000000018004445c f   libucrt:crtmbox.obj
 0001:00043728       __acrt_stdio_flush_nolock  0000000180044728 f   libucrt:fflush.obj
 0001:000437a4       _fflush_nolock             00000001800447a4 f   libucrt:fflush.obj
 0001:000437f0       _flushall                  00000001800447f0 f   libucrt:fflush.obj
 0001:000437f8       fflush                     00000001800447f8 f   libucrt:fflush.obj
 0001:00043990       setvbuf                    0000000180044990 f   libucrt:setvbuf.obj
 0001:00043cc4       __acrt_AppPolicyGetProcessTerminationMethodInternal 0000000180044cc4 f   libucrt:winapi_thunks.obj
 0001:00043d14       __acrt_AppPolicyGetShowDeveloperDiagnosticInternal 0000000180044d14 f   libucrt:winapi_thunks.obj
 0001:00043d64       __acrt_AppPolicyGetWindowingModelInternal 0000000180044d64 f   libucrt:winapi_thunks.obj
 0001:00043db4       __acrt_EnumSystemLocalesEx 0000000180044db4 f   libucrt:winapi_thunks.obj
 0001:00043e4c       __acrt_FlsAlloc            0000000180044e4c f   libucrt:winapi_thunks.obj
 0001:00043e94       __acrt_FlsFree             0000000180044e94 f   libucrt:winapi_thunks.obj
 0001:00043edc       __acrt_FlsGetValue         0000000180044edc f   libucrt:winapi_thunks.obj
 0001:00043f24       __acrt_FlsSetValue         0000000180044f24 f   libucrt:winapi_thunks.obj
 0001:00043f78       __acrt_GetLocaleInfoEx     0000000180044f78 f   libucrt:winapi_thunks.obj
 0001:00043ffc       __acrt_GetUserDefaultLocaleName 0000000180044ffc f   libucrt:winapi_thunks.obj
 0001:00044060       __acrt_InitializeCriticalSectionEx 0000000180045060 f   libucrt:winapi_thunks.obj
 0001:000440c4       __acrt_IsValidLocaleName   00000001800450c4 f   libucrt:winapi_thunks.obj
 0001:0004411c       __acrt_LCIDToLocaleName    000000018004511c f   libucrt:winapi_thunks.obj
 0001:0004418c       __acrt_LCMapStringEx       000000018004518c f   libucrt:winapi_thunks.obj
 0001:00044268       __acrt_LocaleNameToLCID    0000000180045268 f   libucrt:winapi_thunks.obj
 0001:000442b8       __acrt_MessageBoxW         00000001800452b8 f   libucrt:winapi_thunks.obj
 0001:0004432c       __acrt_can_show_message_box 000000018004532c f   libucrt:winapi_thunks.obj
 0001:0004439c       __acrt_can_use_vista_locale_apis 000000018004539c f   libucrt:winapi_thunks.obj
 0001:000443cc       __acrt_eagerly_load_locale_apis 00000001800453cc f   libucrt:winapi_thunks.obj
 0001:00044528       __acrt_get_parent_window   0000000180045528 f   libucrt:winapi_thunks.obj
 0001:000445a4       __acrt_initialize_winapi_thunks 00000001800455a4 f   libucrt:winapi_thunks.obj
 0001:000445ec       __acrt_is_interactive      00000001800455ec f   libucrt:winapi_thunks.obj
 0001:000446b4       __acrt_uninitialize_winapi_thunks 00000001800456b4 f   libucrt:winapi_thunks.obj
 0001:000448d4       _mbstowcs_s_l              00000001800458d4 f   libucrt:mbstowcs.obj
 0001:00044a08       mbstowcs_s                 0000000180045a08 f   libucrt:mbstowcs.obj
 0001:00044d5c       _wcstombs_s_l              0000000180045d5c f   libucrt:wcstombs.obj
 0001:00044e48       _query_new_mode            0000000180045e48 f   libucrt:new_mode.obj
 0001:00044e50       __acrt_initialize_heap     0000000180045e50 f   libucrt:heap_handle.obj
 0001:00044e6c       __acrt_uninitialize_heap   0000000180045e6c f   libucrt:heap_handle.obj
 0001:00044e78       _isctype_l                 0000000180045e78 f   libucrt:isctype.obj
 0001:00045124       __acrt_GetLocaleInfoA      0000000180046124 f   libucrt:getlocaleinfoa.obj
 0001:000452ec       __acrt_GetStringTypeA      00000001800462ec f   libucrt:getstringtypea.obj
 0001:000457f0       __acrt_LCMapStringA        00000001800467f0 f   libucrt:lcmapstringa.obj
 0001:00045888       iswctype                   0000000180046888 f   libucrt:iswctype.obj
 0001:00045900       __acrt_initialize_fma3     0000000180046900 f   libucrt:fma3_available.obj
 0001:00045970       _pow_special               0000000180046970 f   libucrt:pow_special.obj
 0001:00045a94       _powf_special              0000000180046a94 f   libucrt:pow_special.obj
 0001:00045c20       _wcsicmp                   0000000180046c20 f   libucrt:wcsicmp.obj
 0001:00045ca4       _wcsicmp_l                 0000000180046ca4 f   libucrt:wcsicmp.obj
 0001:00045d94       __acrt_initialize_timeset  0000000180046d94 f   libucrt:timeset.obj
 0001:00045dd8       _isleadbyte_l              0000000180046dd8 f i libucrt:_wctype.obj
 0001:00045e18       __acrt_get_developer_information_policy 0000000180046e18 f   libucrt:win_policies.obj
 0001:00045e6c       __acrt_get_process_end_policy 0000000180046e6c f   libucrt:win_policies.obj
 0001:00045ea8       __acrt_get_windowing_model_policy 0000000180046ea8 f   libucrt:win_policies.obj
 0001:00046478       __acrt_expand_narrow_argv_wildcards 0000000180047478 f   libucrt:argv_wildcards.obj
 0001:00046bc4       __acrt_initialize_multibyte 0000000180047bc4 f   libucrt:mbctype.obj
 0001:00046c24       __acrt_update_thread_multibyte_data 0000000180047c24 f   libucrt:mbctype.obj
 0001:00046c40       _setmbcp_nolock            0000000180047c40 f   libucrt:mbctype.obj
 0001:00046ee0       __acrt_initialize_command_line 0000000180047ee0 f   libucrt:argv_data.obj
 0001:00046f08       __acrt_uninitialize_command_line 0000000180047f08 f   libucrt:argv_data.obj
 0001:00046f0c       __dcrt_get_narrow_environment_from_os 0000000180047f0c f   libucrt:get_environment_from_os.obj
 0001:00047010       _recalloc                  0000000180048010 f   libucrt:recalloc.obj
 0001:00047018       _recalloc_base             0000000180048018 f   libucrt:recalloc.obj
 0001:000470b0       __acrt_execute_initializers 00000001800480b0 f   libucrt:shared_initialization.obj
 0001:00047130       __acrt_execute_uninitializers 0000000180048130 f   libucrt:shared_initialization.obj
 0001:00047170       __acrt_has_user_matherr    0000000180048170 f   libucrt:matherr.obj
 0001:00047190       __acrt_initialize_user_matherr 0000000180048190 f   libucrt:matherr.obj
 0001:00047198       __acrt_invoke_user_matherr 0000000180048198 f   libucrt:matherr.obj
 0001:000471c8       __acrt_add_locale_ref      00000001800481c8 f   libucrt:locale_refcounting.obj
 0001:00047254       __acrt_free_locale         0000000180048254 f   libucrt:locale_refcounting.obj
 0001:000473cc       __acrt_locale_add_lc_time_reference 00000001800483cc f   libucrt:locale_refcounting.obj
 0001:000473f4       __acrt_locale_free_lc_time_if_unreferenced 00000001800483f4 f   libucrt:locale_refcounting.obj
 0001:0004742c       __acrt_locale_release_lc_time_reference 000000018004842c f   libucrt:locale_refcounting.obj
 0001:00047454       __acrt_release_locale_ref  0000000180048454 f   libucrt:locale_refcounting.obj
 0001:000474fc       __acrt_update_thread_locale_data 00000001800484fc f   libucrt:locale_refcounting.obj
 0001:0004756c       _updatetlocinfoEx_nolock   000000018004856c f   libucrt:locale_refcounting.obj
 0001:000475d4       __acrt_fp_strflt_to_string 00000001800485d4 f   libucrt:_fptostr.obj
 0001:00047694       __acrt_fltout              0000000180048694 f   libucrt:cfout.obj
 0001:00048b50       __acrt_stdio_flush_and_write_narrow_nolock 0000000180049b50 f   libucrt:_flsbuf.obj
 0001:00048c38       __acrt_stdio_flush_and_write_wide_nolock 0000000180049c38 f   libucrt:_flsbuf.obj
 0001:00048d24       _fcloseall                 0000000180049d24 f   libucrt:closeall.obj
 0001:00048dd8       __acrt_stdio_free_buffer_nolock 0000000180049dd8 f   libucrt:_freebuf.obj
 0001:00048e18       _isatty                    0000000180049e18 f   libucrt:isatty.obj
 0001:00048e78       __acrt_locale_free_monetary 0000000180049e78 f   libucrt:initmon.obj
 0001:00048f84       __acrt_locale_initialize_monetary 0000000180049f84 f   libucrt:initmon.obj
 0001:000494bc       __acrt_locale_free_numeric 000000018004a4bc f   libucrt:initnum.obj
 0001:00049528       __acrt_locale_initialize_numeric 000000018004a528 f   libucrt:initnum.obj
 0001:00049ba0       __acrt_locale_free_time    000000018004aba0 f   libucrt:inittime.obj
 0001:00049ca8       __acrt_locale_initialize_time 000000018004aca8 f   libucrt:inittime.obj
 0001:00049d3c       wcsncpy_s                  000000018004ad3c f   libucrt:wcsncpy_s.obj
 0001:00049e20       wcscspn                    000000018004ae20 f   libucrt:wcscspn.obj
 0001:00049e60       wcspbrk                    000000018004ae60 f   libucrt:wcspbrk.obj
 0001:0004a704       __acrt_get_qualified_locale 000000018004b704 f   libucrt:get_qualified_locale.obj
 0001:0004b0dc       __acrt_get_qualified_locale_downlevel 000000018004c0dc f   libucrt:getqloc_downlevel.obj
 0001:0004b36c       __acrt_lowio_create_handle_array 000000018004c36c f   libucrt:osfinfo.obj
 0001:0004b404       __acrt_lowio_destroy_handle_array 000000018004c404 f   libucrt:osfinfo.obj
 0001:0004b454       __acrt_lowio_ensure_fh_exists 000000018004c454 f   libucrt:osfinfo.obj
 0001:0004b4fc       __acrt_lowio_lock_fh       000000018004c4fc f   libucrt:osfinfo.obj
 0001:0004b520       __acrt_lowio_unlock_fh     000000018004c520 f   libucrt:osfinfo.obj
 0001:0004b544       _free_osfhnd               000000018004c544 f   libucrt:osfinfo.obj
 0001:0004b60c       _get_osfhandle             000000018004c60c f   libucrt:osfinfo.obj
 0001:0004b6a0       _get_fpsr                  000000018004c6a0 f   libucrt:fpsr.obj
 0001:0004b6b0       _set_fpsr                  000000018004c6b0 f   libucrt:fpsr.obj
 0001:0004b6ba       _fclrf                     000000018004c6ba f   libucrt:fpsr.obj
 0001:0004b6ce       _frnd                      000000018004c6ce f   libucrt:fpsr.obj
 0001:0004b77c       _commit                    000000018004c77c f   libucrt:commit.obj
 0001:0004beac       _write                     000000018004ceac f   libucrt:write.obj
 0001:0004bfac       _write_nolock              000000018004cfac f   libucrt:write.obj
 0001:0004c308       __acrt_DownlevelLCIDToLocaleName 000000018004d308 f   libucrt:lcidtoname_downlevel.obj
 0001:0004c3ec       __acrt_DownlevelLocaleNameToLCID 000000018004d3ec f   libucrt:lcidtoname_downlevel.obj
 0001:0004c420       strncpy_s                  000000018004d420 f   libucrt:strncpy_s.obj
 0001:0004c4f4       __acrt_fenv_get_control    000000018004d4f4 f   libucrt:_fenvutils.obj
 0001:0004c5f4       __acrt_fenv_get_status     000000018004d5f4 f   libucrt:_fenvutils.obj
 0001:0004c650       __acrt_fenv_set_control    000000018004d650 f   libucrt:_fenvutils.obj
 0001:0004c798       __acrt_fenv_set_status     000000018004d798 f   libucrt:_fenvutils.obj
 0001:0004c94c       _handle_error              000000018004d94c f   libucrt:libm_error.obj
 0001:0004ca74       _handle_errorf             000000018004da74 f   libucrt:libm_error.obj
 0001:0004cba8       _handle_nan                000000018004dba8 f   libucrt:libm_error.obj
 0001:0004cbc4       _handle_nanf               000000018004dbc4 f   libucrt:libm_error.obj
 0001:0004cbd4       _towlower_l                000000018004dbd4 f   libucrt:towlower.obj
 0001:0004cd60       qsort                      000000018004dd60 f   libucrt:qsort.obj
 0001:0004d0b0       strpbrk                    000000018004e0b0 f   libucrt:strpbrk.obj
 0001:0004d150       _mbsdec                    000000018004e150 f   libucrt:mbsdec.obj
 0001:0004d158       _mbsdec_l                  000000018004e158 f   libucrt:mbsdec.obj
 0001:0004d208       _msize                     000000018004e208 f   libucrt:msize.obj
 0001:0004d210       _msize_base                000000018004e210 f   libucrt:msize.obj
 0001:0004d24c       fegetenv                   000000018004e24c f   libucrt:fegetenv.obj
 0001:0004d26c       fesetenv                   000000018004e26c f   libucrt:fesetenv.obj
 0001:0004d2bc       feholdexcept               000000018004e2bc f   libucrt:feholdexcept.obj
 0001:0004d30c       ceil                       000000018004e30c f   libucrt:ceil.obj
 0001:0004d3d0       log10                      000000018004e3d0 f   libucrt:log10.obj
 0001:0004db1c       _lseeki64                  000000018004eb1c f   libucrt:lseek.obj
 0001:0004db24       _lseeki64_nolock           000000018004eb24 f   libucrt:lseek.obj
 0001:0004db2c       __acrt_stdio_allocate_buffer_nolock 000000018004eb2c f   libucrt:_getbuf.obj
 0001:0004db90       _fclose_nolock             000000018004eb90 f   libucrt:fclose.obj
 0001:0004dc14       fclose                     000000018004ec14 f   libucrt:fclose.obj
 0001:0004dc78       _wcsnicmp                  000000018004ec78 f   libucrt:wcsnicmp.obj
 0001:0004dd10       _wcsnicmp_l                000000018004ed10 f   libucrt:wcsnicmp.obj
 0001:0004de28       wcscmp                     000000018004ee28 f   libucrt:wcscmp.obj
 0001:0004de60       _putwch_nolock             000000018004ee60 f   libucrt:putwch.obj
 0001:0004de9c       __acrt_LCMapStringW        000000018004ee9c f   libucrt:lcmapstringw.obj
 0001:0004df24       _clearfp                   000000018004ef24 f   libucrt:ieee.obj
 0001:0004dfa0       _log10_special             000000018004efa0 f   libucrt:log_special.obj
 0001:0004e0cc       _close                     000000018004f0cc f   libucrt:close.obj
 0001:0004e170       _close_nolock              000000018004f170 f   libucrt:close.obj
 0001:0004e22c       ?__acrt_stdio_free_stream@@YAXV__crt_stdio_stream@@@Z 000000018004f22c f   libucrt:stream.obj
 0001:0004e248       __dcrt_lowio_ensure_console_output_initialized 000000018004f248 f   libucrt:initcon.obj
 0001:0004e29c       __dcrt_terminate_console_output 000000018004f29c f   libucrt:initcon.obj
 0001:0004e2b8       __dcrt_write_console_w     000000018004f2b8 f   libucrt:initcon.obj
 0001:0004e376       IsProcessorFeaturePresent  000000018004f376 f   kernel32:KERNEL32.dll
 0001:0004e37c       RtlUnwindEx                000000018004f37c f   kernel32:KERNEL32.dll
 0001:0004e384       ?DloadAcquireSectionWriteAccess@@YAXXZ 000000018004f384 f i DelayImp:delayhlp.obj
 0001:0004e440       ?DloadGetSRWLockFunctionPointers@@YAEXZ 000000018004f440 f i DelayImp:delayhlp.obj
 0001:0004e4dc       ?DloadMakePermanentImageCommit@@YAXPEAX_K@Z 000000018004f4dc f i DelayImp:delayhlp.obj
 0001:0004e570       ?DloadObtainSection@@YAPEAXPEAK0@Z 000000018004f570 f i DelayImp:delayhlp.obj
 0001:0004e604       ?DloadProtectSection@@YAXKPEAK@Z 000000018004f604 f i DelayImp:delayhlp.obj
 0001:0004e694       ?DloadReleaseSectionWriteAccess@@YAXXZ 000000018004f694 f i DelayImp:delayhlp.obj
 0001:0004e738       __delayLoadHelper2         000000018004f738 f   DelayImp:delayhlp.obj
 0001:0004ea40       _FindPESection             000000018004fa40 f   LIBCMT:pesect.obj
 0001:0004ea90       _IsNonwritableInCurrentImage 000000018004fa90 f   LIBCMT:pesect.obj
 0001:0004eae0       _ValidateImageBase         000000018004fae0 f   LIBCMT:pesect.obj
 0001:0004eb10       strrchr                    000000018004fb10 f   libvcruntime:strrchr.obj
 0001:0004ec50       wcschr                     000000018004fc50 f   libvcruntime:wcschr.obj
 0001:0004ed00       _guard_dispatch_icall_nop  000000018004fd00 f   LIBCMT:_guard_dispatch_.obj
 0001:0004ed20       __guard_ss_verify_failure  000000018004fd20 f   LIBCMT:_rfgfailure_.obj
 0001:0004ed2b       __guard_ss_verify_failure_rcx 000000018004fd2b     LIBCMT:_rfgfailure_.obj
 0001:0004ed31       __guard_ss_verify_failure_rdx 000000018004fd31     LIBCMT:_rfgfailure_.obj
 0001:0004ed37       __guard_ss_verify_failure_r8 000000018004fd37     LIBCMT:_rfgfailure_.obj
 0001:0004ed3d       __guard_ss_verify_failure_r9 000000018004fd3d     LIBCMT:_rfgfailure_.obj
 0001:0004ed43       __guard_ss_verify_failure_r10 000000018004fd43     LIBCMT:_rfgfailure_.obj
 0001:0004ed50       __guard_ss_verify_failure_default 000000018004fd50 f   LIBCMT:_rfgfailure_.obj
 0001:0004edb0       __guard_ss_verify_sp       000000018004fdb0 f   LIBCMT:_rfgfailure_.obj
 0001:0004edc0       __guard_ss_verify_sp_default 000000018004fdc0 f   LIBCMT:_rfgfailure_.obj
 0002:00000000       __imp_GetModuleHandleA     0000000180054000     kernel32:KERNEL32.dll
 0002:00000008       __imp_VirtualQuery         0000000180054008     kernel32:KERNEL32.dll
 0002:00000010       __imp_VirtualProtect       0000000180054010     kernel32:KERNEL32.dll
 0002:00000018       __imp_GetSystemInfo        0000000180054018     kernel32:KERNEL32.dll
 0002:00000020       __imp_CreateFileW          0000000180054020     kernel32:KERNEL32.dll
 0002:00000028       __imp_SetFilePointerEx     0000000180054028     kernel32:KERNEL32.dll
 0002:00000030       __imp_HeapSize             0000000180054030     kernel32:KERNEL32.dll
 0002:00000038       __imp_GetConsoleMode       0000000180054038     kernel32:KERNEL32.dll
 0002:00000040       __imp_GetConsoleCP         0000000180054040     kernel32:KERNEL32.dll
 0002:00000048       __imp_FlushFileBuffers     0000000180054048     kernel32:KERNEL32.dll
 0002:00000050       __imp_SetStdHandle         0000000180054050     kernel32:KERNEL32.dll
 0002:00000058       __imp_FreeEnvironmentStringsW 0000000180054058     kernel32:KERNEL32.dll
 0002:00000060       __imp_GetEnvironmentStringsW 0000000180054060     kernel32:KERNEL32.dll
 0002:00000068       __imp_GetCommandLineW      0000000180054068     kernel32:KERNEL32.dll
 0002:00000070       __imp_GetCommandLineA      0000000180054070     kernel32:KERNEL32.dll
 0002:00000078       __imp_GetOEMCP             0000000180054078     kernel32:KERNEL32.dll
 0002:00000080       __imp_IsValidCodePage      0000000180054080     kernel32:KERNEL32.dll
 0002:00000088       __imp_FindNextFileA        0000000180054088     kernel32:KERNEL32.dll
 0002:00000090       __imp_FindFirstFileExA     0000000180054090     kernel32:KERNEL32.dll
 0002:00000098       __imp_FindClose            0000000180054098     kernel32:KERNEL32.dll
 0002:000000a0       __imp_GetProcessHeap       00000001800540a0     kernel32:KERNEL32.dll
 0002:000000a8       __imp_EnumSystemLocalesW   00000001800540a8     kernel32:KERNEL32.dll
 0002:000000b0       __imp_GetUserDefaultLCID   00000001800540b0     kernel32:KERNEL32.dll
 0002:000000b8       __imp_IsValidLocale        00000001800540b8     kernel32:KERNEL32.dll
 0002:000000c0       __imp_OutputDebugStringW   00000001800540c0     kernel32:KERNEL32.dll
 0002:000000c8       __imp_WriteFile            00000001800540c8     kernel32:KERNEL32.dll
 0002:000000d0       __imp_GetACP               00000001800540d0     kernel32:KERNEL32.dll
 0002:000000d8       __imp_ExitProcess          00000001800540d8     kernel32:KERNEL32.dll
 0002:000000e0       __imp_HeapFree             00000001800540e0     kernel32:KERNEL32.dll
 0002:000000e8       __imp_HeapReAlloc          00000001800540e8     kernel32:KERNEL32.dll
 0002:000000f0       __imp_HeapAlloc            00000001800540f0     kernel32:KERNEL32.dll
 0002:000000f8       __imp_WriteConsoleW        00000001800540f8     kernel32:KERNEL32.dll
 0002:00000100       __imp_GetModuleHandleExW   0000000180054100     kernel32:KERNEL32.dll
 0002:00000108       __imp_GetModuleFileNameW   0000000180054108     kernel32:KERNEL32.dll
 0002:00000110       __imp_GetModuleFileNameA   0000000180054110     kernel32:KERNEL32.dll
 0002:00000118       __imp_GetLastError         0000000180054118     kernel32:KERNEL32.dll
 0002:00000120       __imp_WideCharToMultiByte  0000000180054120     kernel32:KERNEL32.dll
 0002:00000128       __imp_EnterCriticalSection 0000000180054128     kernel32:KERNEL32.dll
 0002:00000130       __imp_LeaveCriticalSection 0000000180054130     kernel32:KERNEL32.dll
 0002:00000138       __imp_DeleteCriticalSection 0000000180054138     kernel32:KERNEL32.dll
 0002:00000140       __imp_SetLastError         0000000180054140     kernel32:KERNEL32.dll
 0002:00000148       __imp_InitializeCriticalSectionAndSpinCount 0000000180054148     kernel32:KERNEL32.dll
 0002:00000150       __imp_CreateEventW         0000000180054150     kernel32:KERNEL32.dll
 0002:00000158       __imp_Sleep                0000000180054158     kernel32:KERNEL32.dll
 0002:00000160       __imp_TlsAlloc             0000000180054160     kernel32:KERNEL32.dll
 0002:00000168       __imp_TlsGetValue          0000000180054168     kernel32:KERNEL32.dll
 0002:00000170       __imp_TlsSetValue          0000000180054170     kernel32:KERNEL32.dll
 0002:00000178       __imp_TlsFree              0000000180054178     kernel32:KERNEL32.dll
 0002:00000180       __imp_GetSystemTimeAsFileTime 0000000180054180     kernel32:KERNEL32.dll
 0002:00000188       __imp_GetModuleHandleW     0000000180054188     kernel32:KERNEL32.dll
 0002:00000190       __imp_GetProcAddress       0000000180054190     kernel32:KERNEL32.dll
 0002:00000198       __imp_EncodePointer        0000000180054198     kernel32:KERNEL32.dll
 0002:000001a0       __imp_DecodePointer        00000001800541a0     kernel32:KERNEL32.dll
 0002:000001a8       __imp_MultiByteToWideChar  00000001800541a8     kernel32:KERNEL32.dll
 0002:000001b0       __imp_LCMapStringW         00000001800541b0     kernel32:KERNEL32.dll
 0002:000001b8       __imp_GetLocaleInfoW       00000001800541b8     kernel32:KERNEL32.dll
 0002:000001c0       __imp_GetStringTypeW       00000001800541c0     kernel32:KERNEL32.dll
 0002:000001c8       __imp_GetCPInfo            00000001800541c8     kernel32:KERNEL32.dll
 0002:000001d0       __imp_CloseHandle          00000001800541d0     kernel32:KERNEL32.dll
 0002:000001d8       __imp_SetEvent             00000001800541d8     kernel32:KERNEL32.dll
 0002:000001e0       __imp_ResetEvent           00000001800541e0     kernel32:KERNEL32.dll
 0002:000001e8       __imp_WaitForSingleObjectEx 00000001800541e8     kernel32:KERNEL32.dll
 0002:000001f0       __imp_RtlCaptureContext    00000001800541f0     kernel32:KERNEL32.dll
 0002:000001f8       __imp_RtlLookupFunctionEntry 00000001800541f8     kernel32:KERNEL32.dll
 0002:00000200       __imp_RtlVirtualUnwind     0000000180054200     kernel32:KERNEL32.dll
 0002:00000208       __imp_UnhandledExceptionFilter 0000000180054208     kernel32:KERNEL32.dll
 0002:00000210       __imp_SetUnhandledExceptionFilter 0000000180054210     kernel32:KERNEL32.dll
 0002:00000218       __imp_GetCurrentProcess    0000000180054218     kernel32:KERNEL32.dll
 0002:00000220       __imp_TerminateProcess     0000000180054220     kernel32:KERNEL32.dll
 0002:00000228       __imp_IsProcessorFeaturePresent 0000000180054228     kernel32:KERNEL32.dll
 0002:00000230       __imp_IsDebuggerPresent    0000000180054230     kernel32:KERNEL32.dll
 0002:00000238       __imp_GetStartupInfoW      0000000180054238     kernel32:KERNEL32.dll
 0002:00000240       __imp_QueryPerformanceCounter 0000000180054240     kernel32:KERNEL32.dll
 0002:00000248       __imp_GetCurrentProcessId  0000000180054248     kernel32:KERNEL32.dll
 0002:00000250       __imp_GetCurrentThreadId   0000000180054250     kernel32:KERNEL32.dll
 0002:00000258       __imp_InitializeSListHead  0000000180054258     kernel32:KERNEL32.dll
 0002:00000260       __imp_RtlUnwindEx          0000000180054260     kernel32:KERNEL32.dll
 0002:00000268       __imp_RtlPcToFileHeader    0000000180054268     kernel32:KERNEL32.dll
 0002:00000270       __imp_RaiseException       0000000180054270     kernel32:KERNEL32.dll
 0002:00000278       __imp_FreeLibrary          0000000180054278     kernel32:KERNEL32.dll
 0002:00000280       __imp_LoadLibraryExW       0000000180054280     kernel32:KERNEL32.dll
 0002:00000288       __imp_InterlockedFlushSList 0000000180054288     kernel32:KERNEL32.dll
 0002:00000290       __imp_GetStdHandle         0000000180054290     kernel32:KERNEL32.dll
 0002:00000298       __imp_GetFileType          0000000180054298     kernel32:KERNEL32.dll
 0002:000002a0       __imp_LoadLibraryExA       00000001800542a0     kernel32:KERNEL32.dll
 0002:000002a8       \177KERNEL32_NULL_THUNK_DATA 00000001800542a8     kernel32:KERNEL32.dll
 0002:000002b0       __imp_OCILobCreateTemporary 00000001800542b0     oci:OCI.dll
 0002:000002b8       __imp_OCILobIsTemporary    00000001800542b8     oci:OCI.dll
 0002:000002c0       __imp_OCILobLocatorAssign  00000001800542c0     oci:OCI.dll
 0002:000002c8       __imp_OCILobWrite2         00000001800542c8     oci:OCI.dll
 0002:000002d0       __imp_OCILobRead2          00000001800542d0     oci:OCI.dll
 0002:000002d8       __imp_OCILobGetLength2     00000001800542d8     oci:OCI.dll
 0002:000002e0       __imp_OCILobFreeTemporary  00000001800542e0     oci:OCI.dll
 0002:000002e8       __imp_OCILobGetChunkSize   00000001800542e8     oci:OCI.dll
 0002:000002f0       __imp_OCIErrorGet          00000001800542f0     oci:OCI.dll
 0002:000002f8       __imp_OCIStmtRelease       00000001800542f8     oci:OCI.dll
 0002:00000300       __imp_OCIStmtFetch2        0000000180054300     oci:OCI.dll
 0002:00000308       __imp_OCIBindByPos2        0000000180054308     oci:OCI.dll
 0002:00000310       __imp_OCIBindDynamic       0000000180054310     oci:OCI.dll
 0002:00000318       __imp_OCIParamGet          0000000180054318     oci:OCI.dll
 0002:00000320       __imp_OCIStmtPrepare2      0000000180054320     oci:OCI.dll
 0002:00000328       __imp_OCIBindByName2       0000000180054328     oci:OCI.dll
 0002:00000330       __imp_OCIDefineByPos2      0000000180054330     oci:OCI.dll
 0002:00000338       __imp_OCIStmtExecute       0000000180054338     oci:OCI.dll
 0002:00000340       __imp_OCIDefineDynamic     0000000180054340     oci:OCI.dll
 0002:00000348       __imp_OCISessionPoolDestroy 0000000180054348     oci:OCI.dll
 0002:00000350       __imp_OCIClientVersion     0000000180054350     oci:OCI.dll
 0002:00000358       __imp_OCIIntervalSetDaySecond 0000000180054358     oci:OCI.dll
 0002:00000360       __imp_OCIDateTimeIntervalAdd 0000000180054360     oci:OCI.dll
 0002:00000368       __imp_OCIIntervalGetDaySecond 0000000180054368     oci:OCI.dll
 0002:00000370       __imp_OCIDateTimeSubtract  0000000180054370     oci:OCI.dll
 0002:00000378       __imp_OCIDateTimeConstruct 0000000180054378     oci:OCI.dll
 0002:00000380       __imp_OCIBreak             0000000180054380     oci:OCI.dll
 0002:00000388       __imp_OCIAttrSet           0000000180054388     oci:OCI.dll
 0002:00000390       __imp_OCIServerRelease     0000000180054390     oci:OCI.dll
 0002:00000398       __imp_OCIAttrGet           0000000180054398     oci:OCI.dll
 0002:000003a0       __imp_OCISessionGet        00000001800543a0     oci:OCI.dll
 0002:000003a8       __imp_OCISessionRelease    00000001800543a8     oci:OCI.dll
 0002:000003b0       __imp_OCITransRollback     00000001800543b0     oci:OCI.dll
 0002:000003b8       __imp_OCITransCommit       00000001800543b8     oci:OCI.dll
 0002:000003c0       __imp_OCIHandleAlloc       00000001800543c0     oci:OCI.dll
 0002:000003c8       __imp_OCIArrayDescriptorAlloc 00000001800543c8     oci:OCI.dll
 0002:000003d0       __imp_OCIDescriptorAlloc   00000001800543d0     oci:OCI.dll
 0002:000003d8       __imp_OCIEnvNlsCreate      00000001800543d8     oci:OCI.dll
 0002:000003e0       __imp_OCIArrayDescriptorFree 00000001800543e0     oci:OCI.dll
 0002:000003e8       __imp_OCIHandleFree        00000001800543e8     oci:OCI.dll
 0002:000003f0       __imp_OCIDescriptorFree    00000001800543f0     oci:OCI.dll
 0002:000003f8       __imp_OCISessionPoolCreate 00000001800543f8     oci:OCI.dll
 0002:00000400       \177OCI_NULL_THUNK_DATA    0000000180054400     oci:OCI.dll
 0002:00000408       __guard_check_icall_fptr   0000000180054408     LIBCMT:guard_support.obj
 0002:00000410       __guard_dispatch_icall_fptr 0000000180054410     LIBCMT:guard_support.obj
 0002:00000418       __guard_ss_verify_failure_fptr 0000000180054418     LIBCMT:guard_support.obj
 0002:00000420       __guard_ss_verify_sp_fptr  0000000180054420     LIBCMT:guard_support.obj
 0002:00000428       __xc_a                     0000000180054428     LIBCMT:initializers.obj
 0002:00000458       _register_oracledb_        0000000180054458     njsOracle.obj
 0002:00000490       __xc_z                     0000000180054490     LIBCMT:initializers.obj
 0002:00000498       __xi_a                     0000000180054498     LIBCMT:initializers.obj
 0002:000004b0       __acrt_stdio_initializer   00000001800544b0     libucrt:stdio_initializer.obj
 0002:000004b8       __acrt_tran_fma3_initializer 00000001800544b8     libucrt:fma3_initializer.obj
 0002:000004c0       __acrt_timeset_initializer 00000001800544c0     libucrt:timeset_initializer.obj
 0002:000004c8       __acrt_multibyte_initializer 00000001800544c8     libucrt:multibyte_initializer.obj
 0002:000004d0       __xi_z                     00000001800544d0     LIBCMT:initializers.obj
 0002:000004d8       __xl_a                     00000001800544d8     LIBCMT:tlssup.obj
 0002:000004e0       __xl_z                     00000001800544e0     LIBCMT:tlssup.obj
 0002:000004e8       __xp_a                     00000001800544e8     LIBCMT:initializers.obj
 0002:000004f0       __acrt_locale_terminator   00000001800544f0     libucrt:locale_initializer.obj
 0002:000004f8       __dcrt_console_output_terminator 00000001800544f8     libucrt:console_output_initializer.obj
 0002:00000500       __acrt_stdio_terminator    0000000180054500     libucrt:stdio_initializer.obj
 0002:00000508       __xp_z                     0000000180054508     LIBCMT:initializers.obj
 0002:00000510       __xt_a                     0000000180054510     LIBCMT:initializers.obj
 0002:00000518       __xt_z                     0000000180054518     LIBCMT:initializers.obj
 0002:00000520       __sz_node_exe              0000000180054520     node:node.exe
 0002:00000538       ??_7exception@std@@6B@     0000000180054538     libcpmt:xonce.obj
 0002:00000548       ??_C@_0BC@EOODALEL@Unknown?5exception?$AA@ 0000000180054548     libcpmt:xonce.obj
 0002:00000568       ??_7runtime_error@std@@6B@ 0000000180054568     libcpmt:xonce.obj
 0002:00000580       ??_7_System_error@std@@6B@ 0000000180054580     libcpmt:xonce.obj
 0002:00000590       ??_C@_0O@BFJCFAAK@unknown?5error?$AA@ 0000000180054590     libcpmt:xonce.obj
 0002:00000670       ??_7_Facet_base@std@@6B@   0000000180054670     libcpmt:locale0.obj
 0002:00000690       ??_7_Locimp@locale@std@@6B@ 0000000180054690     libcpmt:locale0.obj
 0002:000006a8       ??_C@_01NBENCBCI@?$CK?$AA@ 00000001800546a8     libcpmt:locale0.obj
 0002:000006ac       ??_C@_01GFHCPBMG@C?$AA@    00000001800546ac     libcpmt:locale0.obj
 0002:000006b8       ??_7bad_alloc@std@@6B@     00000001800546b8     libcpmt:xthrow.obj
 0002:000006c8       ??_C@_0P@GHFPNOJB@bad?5allocation?$AA@ 00000001800546c8     libcpmt:xthrow.obj
 0002:000006e0       ??_7logic_error@std@@6B@   00000001800546e0     libcpmt:xthrow.obj
 0002:000006f8       ??_7length_error@std@@6B@  00000001800546f8     libcpmt:xthrow.obj
 0002:00000710       ??_7out_of_range@std@@6B@  0000000180054710     libcpmt:xthrow.obj
 0002:00000720       ?_BADOFF@std@@3_JB         0000000180054720     libcpmt:ios.obj
 0002:00000e60       ??_C@_0BN@LKKBCCDB@address?5family?5not?5supported?$AA@ 0000000180054e60     libcpmt:syserror.obj
 0002:00000e80       ??_C@_0P@LDMLAFHI@address?5in?5use?$AA@ 0000000180054e80     libcpmt:syserror.obj
 0002:00000e90       ??_C@_0BG@DHPCNBJB@address?5not?5available?$AA@ 0000000180054e90     libcpmt:syserror.obj
 0002:00000ea8       ??_C@_0BC@DFIBIBIL@already?5connected?$AA@ 0000000180054ea8     libcpmt:syserror.obj
 0002:00000ec0       ??_C@_0BH@CAKOHOMI@argument?5list?5too?5long?$AA@ 0000000180054ec0     libcpmt:syserror.obj
 0002:00000ed8       ??_C@_0BH@CGIMPKIM@argument?5out?5of?5domain?$AA@ 0000000180054ed8     libcpmt:syserror.obj
 0002:00000ef0       ??_C@_0M@KGHGGJGL@bad?5address?$AA@ 0000000180054ef0     libcpmt:syserror.obj
 0002:00000f00       ??_C@_0BE@MPJPGCEO@bad?5file?5descriptor?$AA@ 0000000180054f00     libcpmt:syserror.obj
 0002:00000f18       ??_C@_0M@PMMIEFCP@bad?5message?$AA@ 0000000180054f18     libcpmt:syserror.obj
 0002:00000f28       ??_C@_0M@KPHOFDBE@broken?5pipe?$AA@ 0000000180054f28     libcpmt:syserror.obj
 0002:00000f38       ??_C@_0BD@MGNDDEGM@connection?5aborted?$AA@ 0000000180054f38     libcpmt:syserror.obj
 0002:00000f50       ??_C@_0BP@KAIHPOGN@connection?5already?5in?5progress?$AA@ 0000000180054f50     libcpmt:syserror.obj
 0002:00000f70       ??_C@_0BD@PJLIIJEL@connection?5refused?$AA@ 0000000180054f70     libcpmt:syserror.obj
 0002:00000f88       ??_C@_0BB@IECNJNOI@connection?5reset?$AA@ 0000000180054f88     libcpmt:syserror.obj
 0002:00000fa0       ??_C@_0BC@PPHBOELF@cross?5device?5link?$AA@ 0000000180054fa0     libcpmt:syserror.obj
 0002:00000fb8       ??_C@_0BN@KDMIFEIP@destination?5address?5required?$AA@ 0000000180054fb8     libcpmt:syserror.obj
 0002:00000fd8       ??_C@_0BI@NGCEHDD@device?5or?5resource?5busy?$AA@ 0000000180054fd8     libcpmt:syserror.obj
 0002:00000ff0       ??_C@_0BE@JIDOCPHM@directory?5not?5empty?$AA@ 0000000180054ff0     libcpmt:syserror.obj
 0002:00001008       ??_C@_0BI@BNCLIGPB@executable?5format?5error?$AA@ 0000000180055008     libcpmt:syserror.obj
 0002:00001020       ??_C@_0M@MIDIAGJP@file?5exists?$AA@ 0000000180055020     libcpmt:syserror.obj
 0002:00001030       ??_C@_0P@DNAJLBJK@file?5too?5large?$AA@ 0000000180055030     libcpmt:syserror.obj
 0002:00001040       ??_C@_0BC@EJHOMAAK@filename?5too?5long?$AA@ 0000000180055040     libcpmt:syserror.obj
 0002:00001058       ??_C@_0BH@KEFGLDAF@function?5not?5supported?$AA@ 0000000180055058     libcpmt:syserror.obj
 0002:00001070       ??_C@_0BB@DHFDFGDM@host?5unreachable?$AA@ 0000000180055070     libcpmt:syserror.obj
 0002:00001088       ??_C@_0BD@JPHBMONG@identifier?5removed?$AA@ 0000000180055088     libcpmt:syserror.obj
 0002:000010a0       ??_C@_0BG@CDNPAGJK@illegal?5byte?5sequence?$AA@ 00000001800550a0     libcpmt:syserror.obj
 0002:000010b8       ??_C@_0CD@BNPLBMNA@inappropriate?5io?5control?5operati@ 00000001800550b8     libcpmt:syserror.obj
 0002:000010e0       ??_C@_0M@EGEKIIMP@interrupted?$AA@ 00000001800550e0     libcpmt:syserror.obj
 0002:000010f0       ??_C@_0BB@FCMFBGOM@invalid?5argument?$AA@ 00000001800550f0     libcpmt:syserror.obj
 0002:00001108       ??_C@_0N@OHAFKDEK@invalid?5seek?$AA@ 0000000180055108     libcpmt:syserror.obj
 0002:00001118       ??_C@_08GLNPIFBN@io?5error?$AA@ 0000000180055118     libcpmt:syserror.obj
 0002:00001128       ??_C@_0P@FLLDBIDK@is?5a?5directory?$AA@ 0000000180055128     libcpmt:syserror.obj
 0002:00001138       ??_C@_0N@IFLPBIOP@message?5size?$AA@ 0000000180055138     libcpmt:syserror.obj
 0002:00001148       ??_C@_0N@KIIEAAIO@network?5down?$AA@ 0000000180055148     libcpmt:syserror.obj
 0002:00001158       ??_C@_0O@FNPDBHEE@network?5reset?$AA@ 0000000180055158     libcpmt:syserror.obj
 0002:00001168       ??_C@_0BE@IFNCKGE@network?5unreachable?$AA@ 0000000180055168     libcpmt:syserror.obj
 0002:00001180       ??_C@_0BA@PFFCAOFK@no?5buffer?5space?$AA@ 0000000180055180     libcpmt:syserror.obj
 0002:00001190       ??_C@_0BB@IEPBLJHK@no?5child?5process?$AA@ 0000000180055190     libcpmt:syserror.obj
 0002:000011a8       ??_C@_07PLECNNKG@no?5link?$AA@ 00000001800551a8     libcpmt:syserror.obj
 0002:000011b0       ??_C@_0BC@NJECKMKE@no?5lock?5available?$AA@ 00000001800551b0     libcpmt:syserror.obj
 0002:000011c8       ??_C@_0BF@PBGGPKKE@no?5message?5available?$AA@ 00000001800551c8     libcpmt:syserror.obj
 0002:000011e0       ??_C@_0L@EDOLMPAK@no?5message?$AA@ 00000001800551e0     libcpmt:syserror.obj
 0002:000011f0       ??_C@_0BD@EAMBFIDF@no?5protocol?5option?$AA@ 00000001800551f0     libcpmt:syserror.obj
 0002:00001208       ??_C@_0BD@IJDJKDEA@no?5space?5on?5device?$AA@ 0000000180055208     libcpmt:syserror.obj
 0002:00001220       ??_C@_0BE@MKFDAFMP@no?5stream?5resources?$AA@ 0000000180055220     libcpmt:syserror.obj
 0002:00001238       ??_C@_0BK@IMCPHCBI@no?5such?5device?5or?5address?$AA@ 0000000180055238     libcpmt:syserror.obj
 0002:00001258       ??_C@_0P@FDINDDOK@no?5such?5device?$AA@ 0000000180055258     libcpmt:syserror.obj
 0002:00001268       ??_C@_0BK@NDOCBPGE@no?5such?5file?5or?5directory?$AA@ 0000000180055268     libcpmt:syserror.obj
 0002:00001288       ??_C@_0BA@ENLPPKBN@no?5such?5process?$AA@ 0000000180055288     libcpmt:syserror.obj
 0002:00001298       ??_C@_0BA@DOCPFFJG@not?5a?5directory?$AA@ 0000000180055298     libcpmt:syserror.obj
 0002:000012a8       ??_C@_0N@POEIPGGF@not?5a?5socket?$AA@ 00000001800552a8     libcpmt:syserror.obj
 0002:000012b8       ??_C@_0N@LGAPMMPI@not?5a?5stream?$AA@ 00000001800552b8     libcpmt:syserror.obj
 0002:000012c8       ??_C@_0O@GLMIBBEG@not?5connected?$AA@ 00000001800552c8     libcpmt:syserror.obj
 0002:000012d8       ??_C@_0BC@ENOOLCNF@not?5enough?5memory?$AA@ 00000001800552d8     libcpmt:syserror.obj
 0002:000012f0       ??_C@_0O@NHEDABJP@not?5supported?$AA@ 00000001800552f0     libcpmt:syserror.obj
 0002:00001300       ??_C@_0BD@MOLBPMEA@operation?5canceled?$AA@ 0000000180055300     libcpmt:syserror.obj
 0002:00001318       ??_C@_0BG@KDKHOPCO@operation?5in?5progress?$AA@ 0000000180055318     libcpmt:syserror.obj
 0002:00001330       ??_C@_0BI@OHIEJAAB@operation?5not?5permitted?$AA@ 0000000180055330     libcpmt:syserror.obj
 0002:00001348       ??_C@_0BI@LNEGIFLN@operation?5not?5supported?$AA@ 0000000180055348     libcpmt:syserror.obj
 0002:00001360       ??_C@_0BG@OEMDKMEE@operation?5would?5block?$AA@ 0000000180055360     libcpmt:syserror.obj
 0002:00001378       ??_C@_0L@BLPOFLNJ@owner?5dead?$AA@ 0000000180055378     libcpmt:syserror.obj
 0002:00001388       ??_C@_0BC@CIJDGCDI@permission?5denied?$AA@ 0000000180055388     libcpmt:syserror.obj
 0002:000013a0       ??_C@_0P@FNPOCJBE@protocol?5error?$AA@ 00000001800553a0     libcpmt:syserror.obj
 0002:000013b0       ??_C@_0BH@JPPPLHJB@protocol?5not?5supported?$AA@ 00000001800553b0     libcpmt:syserror.obj
 0002:000013c8       ??_C@_0BG@EICBIHDP@read?5only?5file?5system?$AA@ 00000001800553c8     libcpmt:syserror.obj
 0002:000013e0       ??_C@_0BO@BJBOMOEJ@resource?5deadlock?5would?5occur?$AA@ 00000001800553e0     libcpmt:syserror.obj
 0002:00001400       ??_C@_0BP@LKNGHENJ@resource?5unavailable?5try?5again?$AA@ 0000000180055400     libcpmt:syserror.obj
 0002:00001420       ??_C@_0BE@GOIPJJHG@result?5out?5of?5range?$AA@ 0000000180055420     libcpmt:syserror.obj
 0002:00001438       ??_C@_0BG@MPLKFPAE@state?5not?5recoverable?$AA@ 0000000180055438     libcpmt:syserror.obj
 0002:00001450       ??_C@_0P@DIIFGFCG@stream?5timeout?$AA@ 0000000180055450     libcpmt:syserror.obj
 0002:00001460       ??_C@_0P@IPFDMIFL@text?5file?5busy?$AA@ 0000000180055460     libcpmt:syserror.obj
 0002:00001470       ??_C@_09KJPPMAOI@timed?5out?$AA@ 0000000180055470     libcpmt:syserror.obj
 0002:00001480       ??_C@_0BO@HACHBEKI@too?5many?5files?5open?5in?5system?$AA@ 0000000180055480     libcpmt:syserror.obj
 0002:000014a0       ??_C@_0BE@GHAFMPAH@too?5many?5files?5open?$AA@ 00000001800554a0     libcpmt:syserror.obj
 0002:000014b8       ??_C@_0P@HCOMKFCC@too?5many?5links?$AA@ 00000001800554b8     libcpmt:syserror.obj
 0002:000014c8       ??_C@_0BO@EFGOJEF@too?5many?5symbolic?5link?5levels?$AA@ 00000001800554c8     libcpmt:syserror.obj
 0002:000014e8       ??_C@_0BA@KGKGOOJA@value?5too?5large?$AA@ 00000001800554e8     libcpmt:syserror.obj
 0002:000014f8       ??_C@_0BE@MIEJDDNH@wrong?5protocol?5type?$AA@ 00000001800554f8     libcpmt:syserror.obj
 0002:00001510       ??_C@_1BK@MGMFAEKH@?$AAk?$AAe?$AAr?$AAn?$AAe?$AAl?$AA3?$AA2?$AA?4?$AAd?$AAl?$AAl?$AA?$AA@ 0000000180055510     libcpmt:winapisupp.obj
 0002:00001530       ??_C@_08KNHFBNJ@FlsAlloc?$AA@ 0000000180055530     libcpmt:winapisupp.obj
 0002:00001540       ??_C@_07PEJMOBNF@FlsFree?$AA@ 0000000180055540     libcpmt:winapisupp.obj
 0002:00001548       ??_C@_0M@GDNOONDI@FlsGetValue?$AA@ 0000000180055548     libcpmt:winapisupp.obj
 0002:00001558       ??_C@_0M@JCPCPOEF@FlsSetValue?$AA@ 0000000180055558     libcpmt:winapisupp.obj
 0002:00001568       ??_C@_0BM@HCFOFFN@InitializeCriticalSectionEx?$AA@ 0000000180055568     libcpmt:winapisupp.obj
 0002:00001588       ??_C@_0BE@GPLMMCMH@InitOnceExecuteOnce?$AA@ 0000000180055588     libcpmt:winapisupp.obj
 0002:000015a0       ??_C@_0P@DLHPPCNH@CreateEventExW?$AA@ 00000001800555a0     libcpmt:winapisupp.obj
 0002:000015b0       ??_C@_0BB@MEFPJLHN@CreateSemaphoreW?$AA@ 00000001800555b0     libcpmt:winapisupp.obj
 0002:000015c8       ??_C@_0BD@KIEEOEEH@CreateSemaphoreExW?$AA@ 00000001800555c8     libcpmt:winapisupp.obj
 0002:000015e0       ??_C@_0BG@OGFAJCKC@CreateThreadpoolTimer?$AA@ 00000001800555e0     libcpmt:winapisupp.obj
 0002:000015f8       ??_C@_0BD@LPLEMMDI@SetThreadpoolTimer?$AA@ 00000001800555f8     libcpmt:winapisupp.obj
 0002:00001610       ??_C@_0CA@FMNJENH@WaitForThreadpoolTimerCallbacks?$AA@ 0000000180055610     libcpmt:winapisupp.obj
 0002:00001630       ??_C@_0BF@DCFCCNOC@CloseThreadpoolTimer?$AA@ 0000000180055630     libcpmt:winapisupp.obj
 0002:00001648       ??_C@_0BF@FLABGKKM@CreateThreadpoolWait?$AA@ 0000000180055648     libcpmt:winapisupp.obj
 0002:00001660       ??_C@_0BC@MGCOHNA@SetThreadpoolWait?$AA@ 0000000180055660     libcpmt:winapisupp.obj
 0002:00001678       ??_C@_0BE@OCIOMIMP@CloseThreadpoolWait?$AA@ 0000000180055678     libcpmt:winapisupp.obj
 0002:00001690       ??_C@_0BJ@LKGHFHBO@FlushProcessWriteBuffers?$AA@ 0000000180055690     libcpmt:winapisupp.obj
 0002:000016b0       ??_C@_0BP@KALKKPMO@FreeLibraryWhenCallbackReturns?$AA@ 00000001800556b0     libcpmt:winapisupp.obj
 0002:000016d0       ??_C@_0BK@DFNBACLA@GetCurrentProcessorNumber?$AA@ 00000001800556d0     libcpmt:winapisupp.obj
 0002:000016f0       ??_C@_0BE@FKKLLFLM@CreateSymbolicLinkW?$AA@ 00000001800556f0     libcpmt:winapisupp.obj
 0002:00001708       ??_C@_0BE@JOGNEJCI@GetCurrentPackageId?$AA@ 0000000180055708     libcpmt:winapisupp.obj
 0002:00001720       ??_C@_0P@CDHHOHKP@GetTickCount64?$AA@ 0000000180055720     libcpmt:winapisupp.obj
 0002:00001730       ??_C@_0BN@NEEHBBPO@GetFileInformationByHandleEx?$AA@ 0000000180055730     libcpmt:winapisupp.obj
 0002:00001750       ??_C@_0BL@KBBHGKCM@SetFileInformationByHandle?$AA@ 0000000180055750     libcpmt:winapisupp.obj
 0002:00001770       ??_C@_0BP@FPNJPEJC@GetSystemTimePreciseAsFileTime?$AA@ 0000000180055770     libcpmt:winapisupp.obj
 0002:00001790       ??_C@_0BM@HLJJNPAH@InitializeConditionVariable?$AA@ 0000000180055790     libcpmt:winapisupp.obj
 0002:000017b0       ??_C@_0BG@BFNILBLN@WakeConditionVariable?$AA@ 00000001800557b0     libcpmt:winapisupp.obj
 0002:000017c8       ??_C@_0BJ@PGPPEPCC@WakeAllConditionVariable?$AA@ 00000001800557c8     libcpmt:winapisupp.obj
 0002:000017e8       ??_C@_0BJ@JEBJOJFJ@SleepConditionVariableCS?$AA@ 00000001800557e8     libcpmt:winapisupp.obj
 0002:00001808       ??_C@_0BC@MMLHEBPB@InitializeSRWLock?$AA@ 0000000180055808     libcpmt:winapisupp.obj
 0002:00001820       ??_C@_0BI@OMNLIJDB@AcquireSRWLockExclusive?$AA@ 0000000180055820     libcpmt:winapisupp.obj
 0002:00001838       ??_C@_0BL@OGHFEMNA@TryAcquireSRWLockExclusive?$AA@ 0000000180055838     libcpmt:winapisupp.obj
 0002:00001858       ??_C@_0BI@HMIEPCNJ@ReleaseSRWLockExclusive?$AA@ 0000000180055858     libcpmt:winapisupp.obj
 0002:00001870       ??_C@_0BK@LGACAGIC@SleepConditionVariableSRW?$AA@ 0000000180055870     libcpmt:winapisupp.obj
 0002:00001890       ??_C@_0BF@GGPHFPJA@CreateThreadpoolWork?$AA@ 0000000180055890     libcpmt:winapisupp.obj
 0002:000018a8       ??_C@_0BF@NHDAIMMO@SubmitThreadpoolWork?$AA@ 00000001800558a8     libcpmt:winapisupp.obj
 0002:000018c0       ??_C@_0BE@NPHIPNPD@CloseThreadpoolWork?$AA@ 00000001800558c0     libcpmt:winapisupp.obj
 0002:000018d8       ??_C@_0BA@IHGNDAEB@CompareStringEx?$AA@ 00000001800558d8     libcpmt:winapisupp.obj
 0002:000018e8       ??_C@_0BA@ONOKGCMP@GetLocaleInfoEx?$AA@ 00000001800558e8     libcpmt:winapisupp.obj
 0002:000018f8       ??_C@_0O@KKBNKAPF@LCMapStringEx?$AA@ 00000001800558f8     libcpmt:winapisupp.obj
 0002:00001938       ??_7?$ctype@D@std@@6B@     0000000180055938     libcpmt:locale.obj
 0002:00001998       ??_7?$num_put@DV?$ostreambuf_iterator@DU?$char_traits@D@std@@@std@@@std@@6B@ 0000000180055998     libcpmt:locale.obj
 0002:000019f8       ??_7?$numpunct@D@std@@6B@  00000001800559f8     libcpmt:locale.obj
 0002:00001a38       ??_C@_11LOCGONAA@?$AA?$AA@ 0000000180055a38     libcpmt:wlocale.obj
 0002:00001a40       __xmm@80000000000000008000000000000000 0000000180055a40     libcpmt:wlocale.obj
 0002:00003770       ??_C@_15EMKDOKLE@?$AAa?$AAr?$AA?$AA@ 0000000180057770     libcpmt:winapinls.obj
 0002:00003778       ??_C@_15KNPADPLH@?$AAb?$AAg?$AA?$AA@ 0000000180057778     libcpmt:winapinls.obj
 0002:00003780       ??_C@_15EDMHLDMO@?$AAc?$AAa?$AA?$AA@ 0000000180057780     libcpmt:winapinls.obj
 0002:00003788       ??_C@_1O@BPEAJADD@?$AAz?$AAh?$AA?9?$AAC?$AAH?$AAS?$AA?$AA@ 0000000180057788     libcpmt:winapinls.obj
 0002:00003798       ??_C@_15LJNHCMNK@?$AAc?$AAs?$AA?$AA@ 0000000180057798     libcpmt:winapinls.obj
 0002:000037a0       ??_C@_15FOMCIDHG@?$AAd?$AAa?$AA?$AA@ 00000001800577a0     libcpmt:winapinls.obj
 0002:000037a8       ??_C@_15NBKABECB@?$AAd?$AAe?$AA?$AA@ 00000001800577a8     libcpmt:winapinls.obj
 0002:000037b0       ??_C@_15GHPEIIAO@?$AAe?$AAl?$AA?$AA@ 00000001800577b0     libcpmt:winapinls.obj
 0002:000037b8       ??_C@_15MNPNEAIF@?$AAe?$AAn?$AA?$AA@ 00000001800577b8     libcpmt:winapinls.obj
 0002:000037c0       ??_C@_15GPIOMPMH@?$AAe?$AAs?$AA?$AA@ 00000001800577c0     libcpmt:winapinls.obj
 0002:000037c8       ??_C@_15NGLOAKJC@?$AAf?$AAi?$AA?$AA@ 00000001800577c8     libcpmt:winapinls.obj
 0002:000037d0       ??_C@_15FBKGNKAM@?$AAf?$AAr?$AA?$AA@ 00000001800577d0     libcpmt:winapinls.obj
 0002:000037d8       ??_C@_15KGGCNEFK@?$AAh?$AAe?$AA?$AA@ 00000001800577d8     libcpmt:winapinls.obj
 0002:000037e0       ??_C@_15PGHLIDMF@?$AAh?$AAu?$AA?$AA@ 00000001800577e0     libcpmt:winapinls.obj
 0002:000037e8       ??_C@_15BIEMAPLM@?$AAi?$AAs?$AA?$AA@ 00000001800577e8     libcpmt:winapinls.obj
 0002:000037f0       ??_C@_15IFJLDHAF@?$AAi?$AAt?$AA?$AA@ 00000001800577f0     libcpmt:winapinls.obj
 0002:000037f8       ??_C@_15GEMIOCAG@?$AAj?$AAa?$AA?$AA@ 00000001800577f8     libcpmt:winapinls.obj
 0002:00003800       ??_C@_15EPELEGJA@?$AAk?$AAo?$AA?$AA@ 0000000180057800     libcpmt:winapinls.obj
 0002:00003808       ??_C@_15NDDHIMN@?$AAn?$AAl?$AA?$AA@ 0000000180057808     libcpmt:winapinls.obj
 0002:00003810       ??_C@_15BPIGNHCD@?$AAn?$AAo?$AA?$AA@ 0000000180057810     libcpmt:winapinls.obj
 0002:00003818       ??_C@_15DEOPBLCG@?$AAp?$AAl?$AA?$AA@ 0000000180057818     libcpmt:winapinls.obj
 0002:00003820       ??_C@_15KBECGEFG@?$AAp?$AAt?$AA?$AA@ 0000000180057820     libcpmt:winapinls.obj
 0002:00003828       ??_C@_15GLJCBFMD@?$AAr?$AAo?$AA?$AA@ 0000000180057828     libcpmt:winapinls.obj
 0002:00003830       ??_C@_15FEDGKCDI@?$AAr?$AAu?$AA?$AA@ 0000000180057830     libcpmt:winapinls.obj
 0002:00003838       ??_C@_15GLKMLLHM@?$AAh?$AAr?$AA?$AA@ 0000000180057838     libcpmt:winapinls.obj
 0002:00003840       ??_C@_15CPKMFBDB@?$AAs?$AAk?$AA?$AA@ 0000000180057840     libcpmt:winapinls.obj
 0002:00003848       ??_C@_15BAAIOGMK@?$AAs?$AAq?$AA?$AA@ 0000000180057848     libcpmt:winapinls.obj
 0002:00003850       ??_C@_15INNPNOHD@?$AAs?$AAv?$AA?$AA@ 0000000180057850     libcpmt:winapinls.obj
 0002:00003858       ??_C@_15CABMMOGH@?$AAt?$AAh?$AA?$AA@ 0000000180057858     libcpmt:winapinls.obj
 0002:00003860       ??_C@_15BPLIHJJM@?$AAt?$AAr?$AA?$AA@ 0000000180057860     libcpmt:winapinls.obj
 0002:00003868       ??_C@_15NEOEKKDJ@?$AAu?$AAr?$AA?$AA@ 0000000180057868     libcpmt:winapinls.obj
 0002:00003870       ??_C@_15NFICGAJK@?$AAi?$AAd?$AA?$AA@ 0000000180057870     libcpmt:winapinls.obj
 0002:00003878       ??_C@_15PJPFLCCM@?$AAu?$AAk?$AA?$AA@ 0000000180057878     libcpmt:winapinls.obj
 0002:00003880       ??_C@_15HPJPHDM@?$AAb?$AAe?$AA?$AA@ 0000000180057880     libcpmt:winapinls.obj
 0002:00003888       ??_C@_15LCHLGJII@?$AAs?$AAl?$AA?$AA@ 0000000180057888     libcpmt:winapinls.obj
 0002:00003890       ??_C@_15PCFJPHHO@?$AAe?$AAt?$AA?$AA@ 0000000180057890     libcpmt:winapinls.obj
 0002:00003898       ??_C@_15HPFPGODN@?$AAl?$AAv?$AA?$AA@ 0000000180057898     libcpmt:winapinls.obj
 0002:000038a0       ??_C@_15NFFGKGLG@?$AAl?$AAt?$AA?$AA@ 00000001800578a0     libcpmt:winapinls.obj
 0002:000038a8       ??_C@_15BDAKCCHN@?$AAf?$AAa?$AA?$AA@ 00000001800578a8     libcpmt:winapinls.obj
 0002:000038b0       ??_C@_15NFGIAIAJ@?$AAv?$AAi?$AA?$AA@ 00000001800578b0     libcpmt:winapinls.obj
 0002:000038b8       ??_C@_15LMKNDMHN@?$AAh?$AAy?$AA?$AA@ 00000001800578b8     libcpmt:winapinls.obj
 0002:000038c0       ??_C@_15IJBHMCFL@?$AAa?$AAz?$AA?$AA@ 00000001800578c0     libcpmt:winapinls.obj
 0002:000038c8       ??_C@_15EKOFJABL@?$AAe?$AAu?$AA?$AA@ 00000001800578c8     libcpmt:winapinls.obj
 0002:000038d0       ??_C@_15BGHADCNK@?$AAm?$AAk?$AA?$AA@ 00000001800578d0     libcpmt:winapinls.obj
 0002:000038d8       ??_C@_15JDNICKHM@?$AAa?$AAf?$AA?$AA@ 00000001800578d8     libcpmt:winapinls.obj
 0002:000038e0       ??_C@_15KPJEDBKD@?$AAk?$AAa?$AA?$AA@ 00000001800578e0     libcpmt:winapinls.obj
 0002:000038e8       ??_C@_15PDNFFFEO@?$AAf?$AAo?$AA?$AA@ 00000001800578e8     libcpmt:winapinls.obj
 0002:000038f0       ??_C@_15OMLEGLOC@?$AAh?$AAi?$AA?$AA@ 00000001800578f0     libcpmt:winapinls.obj
 0002:000038f8       ??_C@_15IDNNENKK@?$AAm?$AAs?$AA?$AA@ 00000001800578f8     libcpmt:winapinls.obj
 0002:00003900       ??_C@_15MACJNBMH@?$AAk?$AAk?$AA?$AA@ 0000000180057900     libcpmt:winapinls.obj
 0002:00003908       ??_C@_15DKDJEOND@?$AAk?$AAy?$AA?$AA@ 0000000180057908     libcpmt:winapinls.obj
 0002:00003910       ??_C@_15DFGDLJBG@?$AAs?$AAw?$AA?$AA@ 0000000180057910     libcpmt:winapinls.obj
 0002:00003918       ??_C@_15BBFAICNG@?$AAu?$AAz?$AA?$AA@ 0000000180057918     libcpmt:winapinls.obj
 0002:00003920       ??_C@_15DKNDCGEA@?$AAt?$AAt?$AA?$AA@ 0000000180057920     libcpmt:winapinls.obj
 0002:00003928       ??_C@_15MGIFMDPL@?$AAp?$AAa?$AA?$AA@ 0000000180057928     libcpmt:winapinls.obj
 0002:00003930       ??_C@_15HCNDBBA@?$AAg?$AAu?$AA?$AA@ 0000000180057930     libcpmt:winapinls.obj
 0002:00003938       ??_C@_15FNBEIBON@?$AAt?$AAa?$AA?$AA@ 0000000180057938     libcpmt:winapinls.obj
 0002:00003940       ??_C@_15NCHGBGLK@?$AAt?$AAe?$AA?$AA@ 0000000180057940     libcpmt:winapinls.obj
 0002:00003948       ??_C@_15PHPHCBPF@?$AAk?$AAn?$AA?$AA@ 0000000180057948     libcpmt:winapinls.obj
 0002:00003950       ??_C@_15DLGBCKMP@?$AAm?$AAr?$AA?$AA@ 0000000180057950     libcpmt:winapinls.obj
 0002:00003958       ??_C@_15EABBLBFF@?$AAs?$AAa?$AA?$AA@ 0000000180057958     libcpmt:winapinls.obj
 0002:00003960       ??_C@_15CBKOMCOI@?$AAm?$AAn?$AA?$AA@ 0000000180057960     libcpmt:winapinls.obj
 0002:00003968       ??_C@_15CKDMCJAF@?$AAg?$AAl?$AA?$AA@ 0000000180057968     libcpmt:winapinls.obj
 0002:00003970       ??_C@_17CNJFBPG@?$AAk?$AAo?$AAk?$AA?$AA@ 0000000180057970     libcpmt:winapinls.obj
 0002:00003978       ??_C@_17FFBJICPL@?$AAs?$AAy?$AAr?$AA?$AA@ 0000000180057978     libcpmt:winapinls.obj
 0002:00003980       ??_C@_17KPNDCPAF@?$AAd?$AAi?$AAv?$AA?$AA@ 0000000180057980     libcpmt:winapinls.obj
 0002:00003988       ??_C@_1M@OKAHONE@?$AAa?$AAr?$AA?9?$AAS?$AAA?$AA?$AA@ 0000000180057988     libcpmt:winapinls.obj
 0002:00003998       ??_C@_1M@FFFIGIGK@?$AAb?$AAg?$AA?9?$AAB?$AAG?$AA?$AA@ 0000000180057998     libcpmt:winapinls.obj
 0002:000039a8       ??_C@_1M@BJNKEDC@?$AAc?$AAa?$AA?9?$AAE?$AAS?$AA?$AA@ 00000001800579a8     libcpmt:winapinls.obj
 0002:000039b8       ??_C@_1M@CLNBBOPM@?$AAz?$AAh?$AA?9?$AAT?$AAW?$AA?$AA@ 00000001800579b8     libcpmt:winapinls.obj
 0002:000039c8       ??_C@_1M@IJJHFJHA@?$AAc?$AAs?$AA?9?$AAC?$AAZ?$AA?$AA@ 00000001800579c8     libcpmt:winapinls.obj
 0002:000039d8       ??_C@_1M@CLPEOBGI@?$AAd?$AAa?$AA?9?$AAD?$AAK?$AA?$AA@ 00000001800579d8     libcpmt:winapinls.obj
 0002:000039e8       ??_C@_1M@MCMADGCB@?$AAd?$AAe?$AA?9?$AAD?$AAE?$AA?$AA@ 00000001800579e8     libcpmt:winapinls.obj
 0002:000039f8       ??_C@_1M@OOCKEMAM@?$AAe?$AAl?$AA?9?$AAG?$AAR?$AA?$AA@ 00000001800579f8     libcpmt:winapinls.obj
 0002:00003a08       ??_C@_1M@BMHNFIME@?$AAe?$AAn?$AA?9?$AAU?$AAS?$AA?$AA@ 0000000180057a08     libcpmt:winapinls.obj
 0002:00003a18       ??_C@_1M@DDNJFGID@?$AAf?$AAi?$AA?9?$AAF?$AAI?$AA?$AA@ 0000000180057a18     libcpmt:winapinls.obj
 0002:00003a28       ??_C@_1M@GLIPPMAC@?$AAf?$AAr?$AA?9?$AAF?$AAR?$AA?$AA@ 0000000180057a28     libcpmt:winapinls.obj
 0002:00003a38       ??_C@_1M@GFMCHPE@?$AAh?$AAe?$AA?9?$AAI?$AAL?$AA?$AA@ 0000000180057a38     libcpmt:winapinls.obj
 0002:00003a48       ??_C@_1M@MHLPGNKM@?$AAh?$AAu?$AA?9?$AAH?$AAU?$AA?$AA@ 0000000180057a48     libcpmt:winapinls.obj
 0002:00003a58       ??_C@_1M@LPDDNNPN@?$AAi?$AAs?$AA?9?$AAI?$AAS?$AA?$AA@ 0000000180057a58     libcpmt:winapinls.obj
 0002:00003a68       ??_C@_1M@MADIPODN@?$AAi?$AAt?$AA?9?$AAI?$AAT?$AA?$AA@ 0000000180057a68     libcpmt:winapinls.obj
 0002:00003a78       ??_C@_1M@HPNHIDJI@?$AAj?$AAa?$AA?9?$AAJ?$AAP?$AA?$AA@ 0000000180057a78     libcpmt:winapinls.obj
 0002:00003a88       ??_C@_1M@JLOOOEGK@?$AAk?$AAo?$AA?9?$AAK?$AAR?$AA?$AA@ 0000000180057a88     libcpmt:winapinls.obj
 0002:00003a98       ??_C@_1M@IHBJJGG@?$AAn?$AAl?$AA?9?$AAN?$AAL?$AA?$AA@ 0000000180057a98     libcpmt:winapinls.obj
 0002:00003aa8       ??_C@_1M@EANAGDL@?$AAn?$AAb?$AA?9?$AAN?$AAO?$AA?$AA@ 0000000180057aa8     libcpmt:winapinls.obj
 0002:00003ab8       ??_C@_1M@NEIEMEGP@?$AAp?$AAl?$AA?9?$AAP?$AAL?$AA?$AA@ 0000000180057ab8     libcpmt:winapinls.obj
 0002:00003ac8       ??_C@_1M@BOCFIGEP@?$AAp?$AAt?$AA?9?$AAB?$AAR?$AA?$AA@ 0000000180057ac8     libcpmt:winapinls.obj
 0002:00003ad8       ??_C@_1M@IMPFOPBG@?$AAr?$AAo?$AA?9?$AAR?$AAO?$AA?$AA@ 0000000180057ad8     libcpmt:winapinls.obj
 0002:00003ae8       ??_C@_1M@IDNNEJMM@?$AAr?$AAu?$AA?9?$AAR?$AAU?$AA?$AA@ 0000000180057ae8     libcpmt:winapinls.obj
 0002:00003af8       ??_C@_1M@LILEEOGM@?$AAh?$AAr?$AA?9?$AAH?$AAR?$AA?$AA@ 0000000180057af8     libcpmt:winapinls.obj
 0002:00003b08       ??_C@_1M@FKIFEHPB@?$AAs?$AAk?$AA?9?$AAS?$AAK?$AA?$AA@ 0000000180057b08     libcpmt:winapinls.obj
 0002:00003b18       ??_C@_1M@LJMAMNPJ@?$AAs?$AAq?$AA?9?$AAA?$AAL?$AA?$AA@ 0000000180057b18     libcpmt:winapinls.obj
 0002:00003b28       ??_C@_1M@GIAKDKJK@?$AAs?$AAv?$AA?9?$AAS?$AAE?$AA?$AA@ 0000000180057b28     libcpmt:winapinls.obj
 0002:00003b38       ??_C@_1M@MKJKIKCL@?$AAt?$AAh?$AA?9?$AAT?$AAH?$AA?$AA@ 0000000180057b38     libcpmt:winapinls.obj
 0002:00003b48       ??_C@_1M@MFLCCMPB@?$AAt?$AAr?$AA?9?$AAT?$AAR?$AA?$AA@ 0000000180057b48     libcpmt:winapinls.obj
 0002:00003b58       ??_C@_1M@OIJHDKJN@?$AAu?$AAr?$AA?9?$AAP?$AAK?$AA?$AA@ 0000000180057b58     libcpmt:winapinls.obj
 0002:00003b68       ??_C@_1M@LHIPCIEK@?$AAi?$AAd?$AA?9?$AAI?$AAD?$AA?$AA@ 0000000180057b68     libcpmt:winapinls.obj
 0002:00003b78       ??_C@_1M@MFMOBGI@?$AAu?$AAk?$AA?9?$AAU?$AAA?$AA?$AA@ 0000000180057b78     libcpmt:winapinls.obj
 0002:00003b88       ??_C@_1M@OBGLJIPL@?$AAb?$AAe?$AA?9?$AAB?$AAY?$AA?$AA@ 0000000180057b88     libcpmt:winapinls.obj
 0002:00003b98       ??_C@_1M@BCFAJEAD@?$AAs?$AAl?$AA?9?$AAS?$AAI?$AA?$AA@ 0000000180057b98     libcpmt:winapinls.obj
 0002:00003ba8       ??_C@_1M@FKFFEDDN@?$AAe?$AAt?$AA?9?$AAE?$AAE?$AA?$AA@ 0000000180057ba8     libcpmt:winapinls.obj
 0002:00003bb8       ??_C@_1M@KGKKAACI@?$AAl?$AAv?$AA?9?$AAL?$AAV?$AA?$AA@ 0000000180057bb8     libcpmt:winapinls.obj
 0002:00003bc8       ??_C@_1M@IFGBIJO@?$AAl?$AAt?$AA?9?$AAL?$AAT?$AA?$AA@ 0000000180057bc8     libcpmt:winapinls.obj
 0002:00003bd8       ??_C@_1M@FGEAHEDM@?$AAf?$AAa?$AA?9?$AAI?$AAR?$AA?$AA@ 0000000180057bd8     libcpmt:winapinls.obj
 0002:00003be8       ??_C@_1M@KBMAIBFN@?$AAv?$AAi?$AA?9?$AAV?$AAN?$AA?$AA@ 0000000180057be8     libcpmt:winapinls.obj
 0002:00003bf8       ??_C@_1M@GPCBKDJK@?$AAh?$AAy?$AA?9?$AAA?$AAM?$AA?$AA@ 0000000180057bf8     libcpmt:winapinls.obj
 0002:00003c08       ??_C@_1BG@BECMDDJB@?$AAa?$AAz?$AA?9?$AAA?$AAZ?$AA?9?$AAL?$AAa?$AAt?$AAn?$AA?$AA@ 0000000180057c08     libcpmt:winapinls.obj
 0002:00003c20       ??_C@_1M@MAOFCAEA@?$AAe?$AAu?$AA?9?$AAE?$AAS?$AA?$AA@ 0000000180057c20     libcpmt:winapinls.obj
 0002:00003c30       ??_C@_1M@IGHABKPI@?$AAm?$AAk?$AA?9?$AAM?$AAK?$AA?$AA@ 0000000180057c30     libcpmt:winapinls.obj
 0002:00003c40       ??_C@_1M@IAIGNEJG@?$AAt?$AAn?$AA?9?$AAZ?$AAA?$AA?$AA@ 0000000180057c40     libcpmt:winapinls.obj
 0002:00003c50       ??_C@_1M@IIJCOJFA@?$AAx?$AAh?$AA?9?$AAZ?$AAA?$AA?$AA@ 0000000180057c50     libcpmt:winapinls.obj
 0002:00003c60       ??_C@_1M@LGPJHNJH@?$AAz?$AAu?$AA?9?$AAZ?$AAA?$AA?$AA@ 0000000180057c60     libcpmt:winapinls.obj
 0002:00003c70       ??_C@_1M@HOKAOIO@?$AAa?$AAf?$AA?9?$AAZ?$AAA?$AA?$AA@ 0000000180057c70     libcpmt:winapinls.obj
 0002:00003c80       ??_C@_1M@DPCLHLIE@?$AAk?$AAa?$AA?9?$AAG?$AAE?$AA?$AA@ 0000000180057c80     libcpmt:winapinls.obj
 0002:00003c90       ??_C@_1M@BLKMHJBI@?$AAf?$AAo?$AA?9?$AAF?$AAO?$AA?$AA@ 0000000180057c90     libcpmt:winapinls.obj
 0002:00003ca0       ??_C@_1M@LGGJAPPB@?$AAh?$AAi?$AA?9?$AAI?$AAN?$AA?$AA@ 0000000180057ca0     libcpmt:winapinls.obj
 0002:00003cb0       ??_C@_1M@FIKPIHFE@?$AAm?$AAt?$AA?9?$AAM?$AAT?$AA?$AA@ 0000000180057cb0     libcpmt:winapinls.obj
 0002:00003cc0       ??_C@_1M@HEGGPBFA@?$AAs?$AAe?$AA?9?$AAN?$AAO?$AA?$AA@ 0000000180057cc0     libcpmt:winapinls.obj
 0002:00003cd0       ??_C@_1M@EIBJEEPA@?$AAm?$AAs?$AA?9?$AAM?$AAY?$AA?$AA@ 0000000180057cd0     libcpmt:winapinls.obj
 0002:00003ce0       ??_C@_1M@FHLBGMPP@?$AAk?$AAk?$AA?9?$AAK?$AAZ?$AA?$AA@ 0000000180057ce0     libcpmt:winapinls.obj
 0002:00003cf0       ??_C@_1M@NGJJLCGI@?$AAk?$AAy?$AA?9?$AAK?$AAG?$AA?$AA@ 0000000180057cf0     libcpmt:winapinls.obj
 0002:00003d00       ??_C@_1M@GIENNBFC@?$AAs?$AAw?$AA?9?$AAK?$AAE?$AA?$AA@ 0000000180057d00     libcpmt:winapinls.obj
 0002:00003d10       ??_C@_1BG@NDGMJIMJ@?$AAu?$AAz?$AA?9?$AAU?$AAZ?$AA?9?$AAL?$AAa?$AAt?$AAn?$AA?$AA@ 0000000180057d10     libcpmt:winapinls.obj
 0002:00003d28       ??_C@_1M@IDCCIHBC@?$AAt?$AAt?$AA?9?$AAR?$AAU?$AA?$AA@ 0000000180057d28     libcpmt:winapinls.obj
 0002:00003d38       ??_C@_1M@LOICPMOJ@?$AAb?$AAn?$AA?9?$AAI?$AAN?$AA?$AA@ 0000000180057d38     libcpmt:winapinls.obj
 0002:00003d48       ??_C@_1M@KPKKNEAH@?$AAp?$AAa?$AA?9?$AAI?$AAN?$AA?$AA@ 0000000180057d48     libcpmt:winapinls.obj
 0002:00003d58       ??_C@_1M@PJGPPBOG@?$AAg?$AAu?$AA?9?$AAI?$AAN?$AA?$AA@ 0000000180057d58     libcpmt:winapinls.obj
 0002:00003d68       ??_C@_1M@KMKMOPHI@?$AAt?$AAa?$AA?9?$AAI?$AAN?$AA?$AA@ 0000000180057d68     libcpmt:winapinls.obj
 0002:00003d78       ??_C@_1M@KFEHEPAC@?$AAt?$AAe?$AA?9?$AAI?$AAN?$AA?$AA@ 0000000180057d78     libcpmt:winapinls.obj
 0002:00003d88       ??_C@_1M@CDCLMGHI@?$AAk?$AAn?$AA?9?$AAI?$AAN?$AA?$AA@ 0000000180057d88     libcpmt:winapinls.obj
 0002:00003d98       ??_C@_1M@MIODLDKF@?$AAm?$AAl?$AA?9?$AAI?$AAN?$AA?$AA@ 0000000180057d98     libcpmt:winapinls.obj
 0002:00003da8       ??_C@_1M@PBIEACPO@?$AAm?$AAr?$AA?9?$AAI?$AAN?$AA?$AA@ 0000000180057da8     libcpmt:winapinls.obj
 0002:00003db8       ??_C@_1M@NIDEAGPH@?$AAs?$AAa?$AA?9?$AAI?$AAN?$AA?$AA@ 0000000180057db8     libcpmt:winapinls.obj
 0002:00003dc8       ??_C@_1M@FHIHCBIO@?$AAm?$AAn?$AA?9?$AAM?$AAN?$AA?$AA@ 0000000180057dc8     libcpmt:winapinls.obj
 0002:00003dd8       ??_C@_1M@JAIJPENP@?$AAc?$AAy?$AA?9?$AAG?$AAB?$AA?$AA@ 0000000180057dd8     libcpmt:winapinls.obj
 0002:00003de8       ??_C@_1M@PHGFBEPN@?$AAg?$AAl?$AA?9?$AAE?$AAS?$AA?$AA@ 0000000180057de8     libcpmt:winapinls.obj
 0002:00003df8       ??_C@_1O@KPIPDNCP@?$AAk?$AAo?$AAk?$AA?9?$AAI?$AAN?$AA?$AA@ 0000000180057df8     libcpmt:winapinls.obj
 0002:00003e08       ??_C@_1O@KNHJLDJA@?$AAs?$AAy?$AAr?$AA?9?$AAS?$AAY?$AA?$AA@ 0000000180057e08     libcpmt:winapinls.obj
 0002:00003e18       ??_C@_1O@MKEKBLAH@?$AAd?$AAi?$AAv?$AA?9?$AAM?$AAV?$AA?$AA@ 0000000180057e18     libcpmt:winapinls.obj
 0002:00003e28       ??_C@_1O@OHDCKDDF@?$AAq?$AAu?$AAz?$AA?9?$AAB?$AAO?$AA?$AA@ 0000000180057e28     libcpmt:winapinls.obj
 0002:00003e38       ??_C@_1M@LEPJNLFD@?$AAn?$AAs?$AA?9?$AAZ?$AAA?$AA?$AA@ 0000000180057e38     libcpmt:winapinls.obj
 0002:00003e48       ??_C@_1M@OMLEIIJB@?$AAm?$AAi?$AA?9?$AAN?$AAZ?$AA?$AA@ 0000000180057e48     libcpmt:winapinls.obj
 0002:00003e58       ??_C@_1M@PMPEAILG@?$AAa?$AAr?$AA?9?$AAI?$AAQ?$AA?$AA@ 0000000180057e58     libcpmt:winapinls.obj
 0002:00003e68       ??_C@_1M@BIBDDEMK@?$AAz?$AAh?$AA?9?$AAC?$AAN?$AA?$AA@ 0000000180057e68     libcpmt:winapinls.obj
 0002:00003e78       ??_C@_1M@CNKPNOEE@?$AAd?$AAe?$AA?9?$AAC?$AAH?$AA?$AA@ 0000000180057e78     libcpmt:winapinls.obj
 0002:00003e88       ??_C@_1M@LKMGMLKO@?$AAe?$AAn?$AA?9?$AAG?$AAB?$AA?$AA@ 0000000180057e88     libcpmt:winapinls.obj
 0002:00003e98       ??_C@_1M@PGKJFFGL@?$AAe?$AAs?$AA?9?$AAM?$AAX?$AA?$AA@ 0000000180057e98     libcpmt:winapinls.obj
 0002:00003ea8       ??_C@_1M@DNNANBDC@?$AAf?$AAr?$AA?9?$AAB?$AAE?$AA?$AA@ 0000000180057ea8     libcpmt:winapinls.obj
 0002:00003eb8       ??_C@_1M@HLGMDFHM@?$AAi?$AAt?$AA?9?$AAC?$AAH?$AA?$AA@ 0000000180057eb8     libcpmt:winapinls.obj
 0002:00003ec8       ??_C@_1M@CLLBGJH@?$AAn?$AAl?$AA?9?$AAB?$AAE?$AA?$AA@ 0000000180057ec8     libcpmt:winapinls.obj
 0002:00003ed8       ??_C@_1M@BODBOGLF@?$AAn?$AAn?$AA?9?$AAN?$AAO?$AA?$AA@ 0000000180057ed8     libcpmt:winapinls.obj
 0002:00003ee8       ??_C@_1M@HFFAHKAD@?$AAp?$AAt?$AA?9?$AAP?$AAT?$AA?$AA@ 0000000180057ee8     libcpmt:winapinls.obj
 0002:00003ef8       ??_C@_1BG@LNOAKHIE@?$AAs?$AAr?$AA?9?$AAS?$AAP?$AA?9?$AAL?$AAa?$AAt?$AAn?$AA?$AA@ 0000000180057ef8     libcpmt:winapinls.obj
 0002:00003f10       ??_C@_1M@HBMHBGAK@?$AAs?$AAv?$AA?9?$AAF?$AAI?$AA?$AA@ 0000000180057f10     libcpmt:winapinls.obj
 0002:00003f20       ??_C@_1BG@DGCJGJBE@?$AAa?$AAz?$AA?9?$AAA?$AAZ?$AA?9?$AAC?$AAy?$AAr?$AAl?$AA?$AA@ 0000000180057f20     libcpmt:winapinls.obj
 0002:00003f38       ??_C@_1M@KEJDAAHB@?$AAs?$AAe?$AA?9?$AAS?$AAE?$AA?$AA@ 0000000180057f38     libcpmt:winapinls.obj
 0002:00003f48       ??_C@_1M@HEIBJJAD@?$AAm?$AAs?$AA?9?$AAB?$AAN?$AA?$AA@ 0000000180057f48     libcpmt:winapinls.obj
 0002:00003f58       ??_C@_1BG@PBGJMCEM@?$AAu?$AAz?$AA?9?$AAU?$AAZ?$AA?9?$AAC?$AAy?$AAr?$AAl?$AA?$AA@ 0000000180057f58     libcpmt:winapinls.obj
 0002:00003f70       ??_C@_1O@LAOBCMDF@?$AAq?$AAu?$AAz?$AA?9?$AAE?$AAC?$AA?$AA@ 0000000180057f70     libcpmt:winapinls.obj
 0002:00003f80       ??_C@_1M@POEEMAIO@?$AAa?$AAr?$AA?9?$AAE?$AAG?$AA?$AA@ 0000000180057f80     libcpmt:winapinls.obj
 0002:00003f90       ??_C@_1M@EFAKDEDL@?$AAz?$AAh?$AA?9?$AAH?$AAK?$AA?$AA@ 0000000180057f90     libcpmt:winapinls.obj
 0002:00003fa0       ??_C@_1M@HKKIJHGI@?$AAd?$AAe?$AA?9?$AAA?$AAT?$AA?$AA@ 0000000180057fa0     libcpmt:winapinls.obj
 0002:00003fb0       ??_C@_1M@KBFBEHJF@?$AAe?$AAn?$AA?9?$AAA?$AAU?$AA?$AA@ 0000000180057fb0     libcpmt:winapinls.obj
 0002:00003fc0       ??_C@_1M@MNPLFAAH@?$AAe?$AAs?$AA?9?$AAE?$AAS?$AA?$AA@ 0000000180057fc0     libcpmt:winapinls.obj
 0002:00003fd0       ??_C@_1M@HJOOJFMA@?$AAf?$AAr?$AA?9?$AAC?$AAA?$AA?$AA@ 0000000180057fd0     libcpmt:winapinls.obj
 0002:00003fe0       ??_C@_1BG@JPOFPNAB@?$AAs?$AAr?$AA?9?$AAS?$AAP?$AA?9?$AAC?$AAy?$AAr?$AAl?$AA?$AA@ 0000000180057fe0     libcpmt:winapinls.obj
 0002:00003ff8       ??_C@_1M@LNFOCMOB@?$AAs?$AAe?$AA?9?$AAF?$AAI?$AA?$AA@ 0000000180057ff8     libcpmt:winapinls.obj
 0002:00004008       ??_C@_1O@MGJBOAMB@?$AAq?$AAu?$AAz?$AA?9?$AAP?$AAE?$AA?$AA@ 0000000180058008     libcpmt:winapinls.obj
 0002:00004018       ??_C@_1M@GJINLBOK@?$AAa?$AAr?$AA?9?$AAL?$AAY?$AA?$AA@ 0000000180058018     libcpmt:winapinls.obj
 0002:00004028       ??_C@_1M@GGMNHJNL@?$AAz?$AAh?$AA?9?$AAS?$AAG?$AA?$AA@ 0000000180058028     libcpmt:winapinls.obj
 0002:00004038       ??_C@_1M@HOIKODND@?$AAd?$AAe?$AA?9?$AAL?$AAU?$AA?$AA@ 0000000180058038     libcpmt:winapinls.obj
 0002:00004048       ??_C@_1M@DDOCCGFG@?$AAe?$AAn?$AA?9?$AAC?$AAA?$AA?$AA@ 0000000180058048     libcpmt:winapinls.obj
 0002:00004058       ??_C@_1M@BNOEMJLF@?$AAe?$AAs?$AA?9?$AAG?$AAT?$AA?$AA@ 0000000180058058     libcpmt:winapinls.obj
 0002:00004068       ??_C@_1M@EOGNKEK@?$AAf?$AAr?$AA?9?$AAC?$AAH?$AA?$AA@ 0000000180058068     libcpmt:winapinls.obj
 0002:00004078       ??_C@_1M@FLIDJFHL@?$AAh?$AAr?$AA?9?$AAB?$AAA?$AA?$AA@ 0000000180058078     libcpmt:winapinls.obj
 0002:00004088       ??_C@_1O@FMCELNAJ@?$AAs?$AAm?$AAj?$AA?9?$AAN?$AAO?$AA?$AA@ 0000000180058088     libcpmt:winapinls.obj
 0002:00004098       ??_C@_1M@JHGLJMGJ@?$AAa?$AAr?$AA?9?$AAD?$AAZ?$AA?$AA@ 0000000180058098     libcpmt:winapinls.obj
 0002:000040a8       ??_C@_1M@JKKFDCNP@?$AAz?$AAh?$AA?9?$AAM?$AAO?$AA?$AA@ 00000001800580a8     libcpmt:winapinls.obj
 0002:000040b8       ??_C@_1M@GEEFALPE@?$AAd?$AAe?$AA?9?$AAL?$AAI?$AA?$AA@ 00000001800580b8     libcpmt:winapinls.obj
 0002:000040c8       ??_C@_1M@IGEOFBG@?$AAe?$AAn?$AA?9?$AAN?$AAZ?$AA?$AA@ 00000001800580c8     libcpmt:winapinls.obj
 0002:000040d8       ??_C@_1M@KDBONEHP@?$AAe?$AAs?$AA?9?$AAC?$AAR?$AA?$AA@ 00000001800580d8     libcpmt:winapinls.obj
 0002:000040e8       ??_C@_1M@FHMDOHNN@?$AAf?$AAr?$AA?9?$AAL?$AAU?$AA?$AA@ 00000001800580e8     libcpmt:winapinls.obj
 0002:000040f8       ??_C@_1BG@NFKKMAFG@?$AAb?$AAs?$AA?9?$AAB?$AAA?$AA?9?$AAL?$AAa?$AAt?$AAn?$AA?$AA@ 00000001800580f8     libcpmt:winapinls.obj
 0002:00004110       ??_C@_1O@IMNBEMCI@?$AAs?$AAm?$AAj?$AA?9?$AAS?$AAE?$AA?$AA@ 0000000180058110     libcpmt:winapinls.obj
 0002:00004120       ??_C@_1M@DHHMBNDP@?$AAa?$AAr?$AA?9?$AAM?$AAA?$AA?$AA@ 0000000180058120     libcpmt:winapinls.obj
 0002:00004130       ??_C@_1M@BNBLJCGH@?$AAe?$AAn?$AA?9?$AAI?$AAE?$AA?$AA@ 0000000180058130     libcpmt:winapinls.obj
 0002:00004140       ??_C@_1M@GEPAFMDL@?$AAe?$AAs?$AA?9?$AAP?$AAA?$AA?$AA@ 0000000180058140     libcpmt:winapinls.obj
 0002:00004150       ??_C@_1M@OJONDMDL@?$AAf?$AAr?$AA?9?$AAM?$AAC?$AA?$AA@ 0000000180058150     libcpmt:winapinls.obj
 0002:00004160       ??_C@_1BG@OBCNFJB@?$AAs?$AAr?$AA?9?$AAB?$AAA?$AA?9?$AAL?$AAa?$AAt?$AAn?$AA?$AA@ 0000000180058160     libcpmt:winapinls.obj
 0002:00004178       ??_C@_1O@KEMEEGPO@?$AAs?$AAm?$AAa?$AA?9?$AAN?$AAO?$AA?$AA@ 0000000180058178     libcpmt:winapinls.obj
 0002:00004188       ??_C@_1M@ELMGFODK@?$AAa?$AAr?$AA?9?$AAT?$AAN?$AA?$AA@ 0000000180058188     libcpmt:winapinls.obj
 0002:00004198       ??_C@_1M@BHDLHFAF@?$AAe?$AAn?$AA?9?$AAZ?$AAA?$AA?$AA@ 0000000180058198     libcpmt:winapinls.obj
 0002:000041a8       ??_C@_1M@BMGIGLIF@?$AAe?$AAs?$AA?9?$AAD?$AAO?$AA?$AA@ 00000001800581a8     libcpmt:winapinls.obj
 0002:000041b8       ??_C@_1BG@CMBHIPBE@?$AAs?$AAr?$AA?9?$AAB?$AAA?$AA?9?$AAC?$AAy?$AAr?$AAl?$AA?$AA@ 00000001800581b8     libcpmt:winapinls.obj
 0002:000041d0       ??_C@_1O@HEDBLHNP@?$AAs?$AAm?$AAa?$AA?9?$AAS?$AAE?$AA?$AA@ 00000001800581d0     libcpmt:winapinls.obj
 0002:000041e0       ??_C@_1M@DAGCADIM@?$AAa?$AAr?$AA?9?$AAO?$AAM?$AA?$AA@ 00000001800581e0     libcpmt:winapinls.obj
 0002:000041f0       ??_C@_1M@FODLMICG@?$AAe?$AAn?$AA?9?$AAJ?$AAM?$AA?$AA@ 00000001800581f0     libcpmt:winapinls.obj
 0002:00004200       ??_C@_1M@DNMLCIHB@?$AAe?$AAs?$AA?9?$AAV?$AAE?$AA?$AA@ 0000000180058200     libcpmt:winapinls.obj
 0002:00004210       ??_C@_1O@EOKHMKJK@?$AAs?$AAm?$AAs?$AA?9?$AAF?$AAI?$AA?$AA@ 0000000180058210     libcpmt:winapinls.obj
 0002:00004220       ??_C@_1M@CAFJMKOF@?$AAa?$AAr?$AA?9?$AAY?$AAE?$AA?$AA@ 0000000180058220     libcpmt:winapinls.obj
 0002:00004230       ??_C@_1M@CBFHIJLI@?$AAe?$AAn?$AA?9?$AAC?$AAB?$AA?$AA@ 0000000180058230     libcpmt:winapinls.obj
 0002:00004240       ??_C@_1M@BGNFLDN@?$AAe?$AAs?$AA?9?$AAC?$AAO?$AA?$AA@ 0000000180058240     libcpmt:winapinls.obj
 0002:00004250       ??_C@_1O@JMPHMAMC@?$AAs?$AAm?$AAn?$AA?9?$AAF?$AAI?$AA?$AA@ 0000000180058250     libcpmt:winapinls.obj
 0002:00004260       ??_C@_1M@JLANABKE@?$AAa?$AAr?$AA?9?$AAS?$AAY?$AA?$AA@ 0000000180058260     libcpmt:winapinls.obj
 0002:00004270       ??_C@_1M@HPKGCFGN@?$AAe?$AAn?$AA?9?$AAB?$AAZ?$AA?$AA@ 0000000180058270     libcpmt:winapinls.obj
 0002:00004280       ??_C@_1M@OLJCMLGM@?$AAe?$AAs?$AA?9?$AAP?$AAE?$AA?$AA@ 0000000180058280     libcpmt:winapinls.obj
 0002:00004290       ??_C@_1M@MKKGFKLE@?$AAa?$AAr?$AA?9?$AAJ?$AAO?$AA?$AA@ 0000000180058290     libcpmt:winapinls.obj
 0002:000042a0       ??_C@_1M@EKPGLDNI@?$AAe?$AAn?$AA?9?$AAT?$AAT?$AA?$AA@ 00000001800582a0     libcpmt:winapinls.obj
 0002:000042b0       ??_C@_1M@OONGHFHE@?$AAe?$AAs?$AA?9?$AAA?$AAR?$AA?$AA@ 00000001800582b0     libcpmt:winapinls.obj
 0002:000042c0       ??_C@_1M@OOJFGBHE@?$AAa?$AAr?$AA?9?$AAL?$AAB?$AA?$AA@ 00000001800582c0     libcpmt:winapinls.obj
 0002:000042d0       ??_C@_1M@GCEJHNEG@?$AAe?$AAn?$AA?9?$AAZ?$AAW?$AA?$AA@ 00000001800582d0     libcpmt:winapinls.obj
 0002:000042e0       ??_C@_1M@JNOCAHJI@?$AAe?$AAs?$AA?9?$AAE?$AAC?$AA?$AA@ 00000001800582e0     libcpmt:winapinls.obj
 0002:000042f0       ??_C@_1M@JEFHPGGB@?$AAa?$AAr?$AA?9?$AAK?$AAW?$AA?$AA@ 00000001800582f0     libcpmt:winapinls.obj
 0002:00004300       ??_C@_1M@MLKIBJOJ@?$AAe?$AAn?$AA?9?$AAP?$AAH?$AA?$AA@ 0000000180058300     libcpmt:winapinls.obj
 0002:00004310       ??_C@_1M@BDNIPEND@?$AAe?$AAs?$AA?9?$AAC?$AAL?$AA?$AA@ 0000000180058310     libcpmt:winapinls.obj
 0002:00004320       ??_C@_1M@MPNMEKBD@?$AAa?$AAr?$AA?9?$AAA?$AAE?$AA?$AA@ 0000000180058320     libcpmt:winapinls.obj
 0002:00004330       ??_C@_1M@KBJALCPI@?$AAe?$AAs?$AA?9?$AAU?$AAY?$AA?$AA@ 0000000180058330     libcpmt:winapinls.obj
 0002:00004340       ??_C@_1M@LLCCOAGA@?$AAa?$AAr?$AA?9?$AAB?$AAH?$AA?$AA@ 0000000180058340     libcpmt:winapinls.obj
 0002:00004350       ??_C@_1M@PBFNCDEL@?$AAe?$AAs?$AA?9?$AAP?$AAY?$AA?$AA@ 0000000180058350     libcpmt:winapinls.obj
 0002:00004360       ??_C@_1M@EDGINPNP@?$AAa?$AAr?$AA?9?$AAQ?$AAA?$AA?$AA@ 0000000180058360     libcpmt:winapinls.obj
 0002:00004370       ??_C@_1M@MKDBIIJI@?$AAe?$AAs?$AA?9?$AAB?$AAO?$AA?$AA@ 0000000180058370     libcpmt:winapinls.obj
 0002:00004380       ??_C@_1M@CPKKEBLD@?$AAe?$AAs?$AA?9?$AAS?$AAV?$AA?$AA@ 0000000180058380     libcpmt:winapinls.obj
 0002:00004390       ??_C@_1M@NDBGMMJL@?$AAe?$AAs?$AA?9?$AAH?$AAN?$AA?$AA@ 0000000180058390     libcpmt:winapinls.obj
 0002:000043a0       ??_C@_1M@JIJIBHDP@?$AAe?$AAs?$AA?9?$AAN?$AAI?$AA?$AA@ 00000001800583a0     libcpmt:winapinls.obj
 0002:000043b0       ??_C@_1M@CGFMKEEK@?$AAe?$AAs?$AA?9?$AAP?$AAR?$AA?$AA@ 00000001800583b0     libcpmt:winapinls.obj
 0002:000043c0       ??_C@_1O@ICJHKIIK@?$AAz?$AAh?$AA?9?$AAC?$AAH?$AAT?$AA?$AA@ 00000001800583c0     libcpmt:winapinls.obj
 0002:000043d0       ??_C@_15CLNEJCE@?$AAs?$AAr?$AA?$AA@ 00000001800583d0     libcpmt:winapinls.obj
 0002:000043d8       ??_C@_1M@KAHEKEIG@?$AAa?$AAf?$AA?9?$AAz?$AAa?$AA?$AA@ 00000001800583d8     libcpmt:winapinls.obj
 0002:000043e8       ??_C@_1M@GIECOABL@?$AAa?$AAr?$AA?9?$AAa?$AAe?$AA?$AA@ 00000001800583e8     libcpmt:winapinls.obj
 0002:000043f8       ??_C@_1M@BMLMEKGI@?$AAa?$AAr?$AA?9?$AAb?$AAh?$AA?$AA@ 00000001800583f8     libcpmt:winapinls.obj
 0002:00004408       ??_C@_1M@DAPFDGGB@?$AAa?$AAr?$AA?9?$AAd?$AAz?$AA?$AA@ 0000000180058408     libcpmt:winapinls.obj
 0002:00004418       ??_C@_1M@FJNKGKIG@?$AAa?$AAr?$AA?9?$AAe?$AAg?$AA?$AA@ 0000000180058418     libcpmt:winapinls.obj
 0002:00004428       ??_C@_1M@FLGKKCLO@?$AAa?$AAr?$AA?9?$AAi?$AAq?$AA?$AA@ 0000000180058428     libcpmt:winapinls.obj
 0002:00004438       ??_C@_1M@GNDIPALM@?$AAa?$AAr?$AA?9?$AAj?$AAo?$AA?$AA@ 0000000180058438     libcpmt:winapinls.obj
 0002:00004448       ??_C@_1M@DDMJFMGJ@?$AAa?$AAr?$AA?9?$AAk?$AAw?$AA?$AA@ 0000000180058448     libcpmt:winapinls.obj
 0002:00004458       ??_C@_1M@EJALMLHM@?$AAa?$AAr?$AA?9?$AAl?$AAb?$AA?$AA@ 0000000180058458     libcpmt:winapinls.obj
 0002:00004468       ??_C@_1M@MOBDBLOC@?$AAa?$AAr?$AA?9?$AAl?$AAy?$AA?$AA@ 0000000180058468     libcpmt:winapinls.obj
 0002:00004478       ??_C@_1M@JAOCLHDH@?$AAa?$AAr?$AA?9?$AAm?$AAa?$AA?$AA@ 0000000180058478     libcpmt:winapinls.obj
 0002:00004488       ??_C@_1M@JHPMKJIE@?$AAa?$AAr?$AA?9?$AAo?$AAm?$AA?$AA@ 0000000180058488     libcpmt:winapinls.obj
 0002:00004498       ??_C@_1M@OEPGHFNH@?$AAa?$AAr?$AA?9?$AAq?$AAa?$AA?$AA@ 0000000180058498     libcpmt:winapinls.obj
 0002:000044a8       ??_C@_1M@KJDONENM@?$AAa?$AAr?$AA?9?$AAs?$AAa?$AA?$AA@ 00000001800584a8     libcpmt:winapinls.obj
 0002:000044b8       ??_C@_1M@DMJDKLKM@?$AAa?$AAr?$AA?9?$AAs?$AAy?$AA?$AA@ 00000001800584b8     libcpmt:winapinls.obj
 0002:000044c8       ??_C@_1M@OMFIPEDC@?$AAa?$AAr?$AA?9?$AAt?$AAn?$AA?$AA@ 00000001800584c8     libcpmt:winapinls.obj
 0002:000044d8       ??_C@_1M@IHMHGAON@?$AAa?$AAr?$AA?9?$AAy?$AAe?$AA?$AA@ 00000001800584d8     libcpmt:winapinls.obj
 0002:000044e8       ??_C@_1BG@KDCPGJGB@?$AAa?$AAz?$AA?9?$AAa?$AAz?$AA?9?$AAc?$AAy?$AAr?$AAl?$AA?$AA@ 00000001800584e8     libcpmt:winapinls.obj
 0002:00004500       ??_C@_1BG@IBCKDDOE@?$AAa?$AAz?$AA?9?$AAa?$AAz?$AA?9?$AAl?$AAa?$AAt?$AAn?$AA?$AA@ 0000000180058500     libcpmt:winapinls.obj
 0002:00004518       ??_C@_1M@EGPFDCPD@?$AAb?$AAe?$AA?9?$AAb?$AAy?$AA?$AA@ 0000000180058518     libcpmt:winapinls.obj
 0002:00004528       ??_C@_1M@PCMGMCGC@?$AAb?$AAg?$AA?9?$AAb?$AAg?$AA?$AA@ 0000000180058528     libcpmt:winapinls.obj
 0002:00004538       ??_C@_1M@BJBMFGOB@?$AAb?$AAn?$AA?9?$AAi?$AAn?$AA?$AA@ 0000000180058538     libcpmt:winapinls.obj
 0002:00004548       ??_C@_1BG@EAKMMACD@?$AAb?$AAs?$AA?9?$AAb?$AAa?$AA?9?$AAl?$AAa?$AAt?$AAn?$AA?$AA@ 0000000180058548     libcpmt:winapinls.obj
 0002:00004560       ??_C@_1M@KGADAODK@?$AAc?$AAa?$AA?9?$AAe?$AAs?$AA?$AA@ 0000000180058560     libcpmt:winapinls.obj
 0002:00004570       ??_C@_1M@COAJPDHI@?$AAc?$AAs?$AA?9?$AAc?$AAz?$AA?$AA@ 0000000180058570     libcpmt:winapinls.obj
 0002:00004580       ??_C@_1M@DHBHFONH@?$AAc?$AAy?$AA?9?$AAg?$AAb?$AA?$AA@ 0000000180058580     libcpmt:winapinls.obj
 0002:00004590       ??_C@_1M@IMGKELGA@?$AAd?$AAa?$AA?9?$AAd?$AAk?$AA?$AA@ 0000000180058590     libcpmt:winapinls.obj
 0002:000045a0       ??_C@_1M@NNDGDNGA@?$AAd?$AAe?$AA?9?$AAa?$AAt?$AA?$AA@ 00000001800585a0     libcpmt:winapinls.obj
 0002:000045b0       ??_C@_1M@IKDBHEEM@?$AAd?$AAe?$AA?9?$AAc?$AAh?$AA?$AA@ 00000001800585b0     libcpmt:winapinls.obj
 0002:000045c0       ??_C@_1M@GFFOJMCJ@?$AAd?$AAe?$AA?9?$AAd?$AAe?$AA?$AA@ 00000001800585c0     libcpmt:winapinls.obj
 0002:000045d0       ??_C@_1M@MDNLKBPM@?$AAd?$AAe?$AA?9?$AAl?$AAi?$AA?$AA@ 00000001800585d0     libcpmt:winapinls.obj
 0002:000045e0       ??_C@_1M@NJBEEJNL@?$AAd?$AAe?$AA?9?$AAl?$AAu?$AA?$AA@ 00000001800585e0     libcpmt:winapinls.obj
 0002:000045f0       ??_C@_1O@GNNELBAP@?$AAd?$AAi?$AAv?$AA?9?$AAm?$AAv?$AA?$AA@ 00000001800585f0     libcpmt:winapinls.obj
 0002:00004600       ??_C@_1M@EJLEOGAE@?$AAe?$AAl?$AA?9?$AAg?$AAr?$AA?$AA@ 0000000180058600     libcpmt:winapinls.obj
 0002:00004610       ??_C@_1M@GMPONJN@?$AAe?$AAn?$AA?9?$AAa?$AAu?$AA?$AA@ 0000000180058610     libcpmt:winapinls.obj
 0002:00004620       ??_C@_1M@NIDIIPGF@?$AAe?$AAn?$AA?9?$AAb?$AAz?$AA?$AA@ 0000000180058620     libcpmt:winapinls.obj
 0002:00004630       ??_C@_1M@JEHMIMFO@?$AAe?$AAn?$AA?9?$AAc?$AAa?$AA?$AA@ 0000000180058630     libcpmt:winapinls.obj
 0002:00004640       ??_C@_1M@IGMJCDLA@?$AAe?$AAn?$AA?9?$AAc?$AAb?$AA?$AA@ 0000000180058640     libcpmt:winapinls.obj
 0002:00004650       ??_C@_1M@BNFIGBKG@?$AAe?$AAn?$AA?9?$AAg?$AAb?$AA?$AA@ 0000000180058650     libcpmt:winapinls.obj
 0002:00004660       ??_C@_1M@LKIFDIGP@?$AAe?$AAn?$AA?9?$AAi?$AAe?$AA?$AA@ 0000000180058660     libcpmt:winapinls.obj
 0002:00004670       ??_C@_1M@PJKFGCCO@?$AAe?$AAn?$AA?9?$AAj?$AAm?$AA?$AA@ 0000000180058670     libcpmt:winapinls.obj
 0002:00004680       ??_C@_1M@KPPKEPBO@?$AAe?$AAn?$AA?9?$AAn?$AAz?$AA?$AA@ 0000000180058680     libcpmt:winapinls.obj
 0002:00004690       ??_C@_1M@GMDGLDOB@?$AAe?$AAn?$AA?9?$AAp?$AAh?$AA?$AA@ 0000000180058690     libcpmt:winapinls.obj
 0002:000046a0       ??_C@_1M@ONGIBJNA@?$AAe?$AAn?$AA?9?$AAt?$AAt?$AA?$AA@ 00000001800586a0     libcpmt:winapinls.obj
 0002:000046b0       ??_C@_1M@LLODPCMM@?$AAe?$AAn?$AA?9?$AAu?$AAs?$AA?$AA@ 00000001800586b0     libcpmt:winapinls.obj
 0002:000046c0       ??_C@_1M@LAKFNPAN@?$AAe?$AAn?$AA?9?$AAz?$AAa?$AA?$AA@ 00000001800586c0     libcpmt:winapinls.obj
 0002:000046d0       ??_C@_1M@MFNHNHEO@?$AAe?$AAn?$AA?9?$AAz?$AAw?$AA?$AA@ 00000001800586d0     libcpmt:winapinls.obj
 0002:000046e0       ??_C@_1M@EJEINPHM@?$AAe?$AAs?$AA?9?$AAa?$AAr?$AA?$AA@ 00000001800586e0     libcpmt:winapinls.obj
 0002:000046f0       ??_C@_1M@GNKPCCJA@?$AAe?$AAs?$AA?9?$AAb?$AAo?$AA?$AA@ 00000001800586f0     libcpmt:winapinls.obj
 0002:00004700       ??_C@_1M@LEEGFONL@?$AAe?$AAs?$AA?9?$AAc?$AAl?$AA?$AA@ 0000000180058700     libcpmt:winapinls.obj
 0002:00004710       ??_C@_1M@KGPDPBDF@?$AAe?$AAs?$AA?9?$AAc?$AAo?$AA?$AA@ 0000000180058710     libcpmt:winapinls.obj
 0002:00004720       ??_C@_1M@EIAHOHH@?$AAe?$AAs?$AA?9?$AAc?$AAr?$AA?$AA@ 0000000180058720     libcpmt:winapinls.obj
 0002:00004730       ??_C@_1M@LLPGMBIN@?$AAe?$AAs?$AA?9?$AAd?$AAo?$AA?$AA@ 0000000180058730     libcpmt:winapinls.obj
 0002:00004740       ??_C@_1M@DKHMKNJA@?$AAe?$AAs?$AA?9?$AAe?$AAc?$AA?$AA@ 0000000180058740     libcpmt:winapinls.obj
 0002:00004750       ??_C@_1M@GKGFPKAP@?$AAe?$AAs?$AA?9?$AAe?$AAs?$AA?$AA@ 0000000180058750     libcpmt:winapinls.obj
 0002:00004760       ??_C@_1M@LKHKGDLN@?$AAe?$AAs?$AA?9?$AAg?$AAt?$AA?$AA@ 0000000180058760     libcpmt:winapinls.obj
 0002:00004770       ??_C@_1M@HEIIGGJD@?$AAe?$AAs?$AA?9?$AAh?$AAn?$AA?$AA@ 0000000180058770     libcpmt:winapinls.obj
 0002:00004780       ??_C@_1M@FBDHPPGD@?$AAe?$AAs?$AA?9?$AAm?$AAx?$AA?$AA@ 0000000180058780     libcpmt:winapinls.obj
 0002:00004790       ??_C@_1M@DPAGLNDH@?$AAe?$AAs?$AA?9?$AAn?$AAi?$AA?$AA@ 0000000180058790     libcpmt:winapinls.obj
 0002:000047a0       ??_C@_1M@MDGOPGDD@?$AAe?$AAs?$AA?9?$AAp?$AAa?$AA?$AA@ 00000001800587a0     libcpmt:winapinls.obj
 0002:000047b0       ??_C@_1M@EMAMGBGE@?$AAe?$AAs?$AA?9?$AAp?$AAe?$AA?$AA@ 00000001800587b0     libcpmt:winapinls.obj
 0002:000047c0       ??_C@_1M@IBMCAOEC@?$AAe?$AAs?$AA?9?$AAp?$AAr?$AA?$AA@ 00000001800587c0     libcpmt:winapinls.obj
 0002:000047d0       ??_C@_1M@FGMDIJED@?$AAe?$AAs?$AA?9?$AAp?$AAy?$AA?$AA@ 00000001800587d0     libcpmt:winapinls.obj
 0002:000047e0       ??_C@_1M@IIDEOLLL@?$AAe?$AAs?$AA?9?$AAs?$AAv?$AA?$AA@ 00000001800587e0     libcpmt:winapinls.obj
 0002:000047f0       ??_C@_1M@GAOBIPA@?$AAe?$AAs?$AA?9?$AAu?$AAy?$AA?$AA@ 00000001800587f0     libcpmt:winapinls.obj
 0002:00004800       ??_C@_1M@JKFFICHJ@?$AAe?$AAs?$AA?9?$AAv?$AAe?$AA?$AA@ 0000000180058800     libcpmt:winapinls.obj
 0002:00004810       ??_C@_1M@PNMLOJDF@?$AAe?$AAt?$AA?9?$AAe?$AAe?$AA?$AA@ 0000000180058810     libcpmt:winapinls.obj
 0002:00004820       ??_C@_1M@GHHLIKEI@?$AAe?$AAu?$AA?9?$AAe?$AAs?$AA?$AA@ 0000000180058820     libcpmt:winapinls.obj
 0002:00004830       ??_C@_1M@PBNONODE@?$AAf?$AAa?$AA?9?$AAi?$AAr?$AA?$AA@ 0000000180058830     libcpmt:winapinls.obj
 0002:00004840       ??_C@_1M@JEEHPMIL@?$AAf?$AAi?$AA?9?$AAf?$AAi?$AA?$AA@ 0000000180058840     libcpmt:winapinls.obj
 0002:00004850       ??_C@_1M@LMDCNDBA@?$AAf?$AAo?$AA?9?$AAf?$AAo?$AA?$AA@ 0000000180058850     libcpmt:winapinls.obj
 0002:00004860       ??_C@_1M@JKEOHLDK@?$AAf?$AAr?$AA?9?$AAb?$AAe?$AA?$AA@ 0000000180058860     libcpmt:winapinls.obj
 0002:00004870       ??_C@_1M@NOHADPMI@?$AAf?$AAr?$AA?9?$AAc?$AAa?$AA?$AA@ 0000000180058870     libcpmt:winapinls.obj
 0002:00004880       ??_C@_1M@KDHIHAEC@?$AAf?$AAr?$AA?9?$AAc?$AAh?$AA?$AA@ 0000000180058880     libcpmt:winapinls.obj
 0002:00004890       ??_C@_1M@MMBBFGAK@?$AAf?$AAr?$AA?9?$AAf?$AAr?$AA?$AA@ 0000000180058890     libcpmt:winapinls.obj
 0002:000048a0       ??_C@_1M@PAFNENNF@?$AAf?$AAr?$AA?9?$AAl?$AAu?$AA?$AA@ 00000001800588a0     libcpmt:winapinls.obj
 0002:000048b0       ??_C@_1M@EOHDJGDD@?$AAf?$AAr?$AA?9?$AAm?$AAc?$AA?$AA@ 00000001800588b0     libcpmt:winapinls.obj
 0002:000048c0       ??_C@_1M@FAPLLOPF@?$AAg?$AAl?$AA?9?$AAe?$AAs?$AA?$AA@ 00000001800588c0     libcpmt:winapinls.obj
 0002:000048d0       ??_C@_1M@FOPBFLOO@?$AAg?$AAu?$AA?9?$AAi?$AAn?$AA?$AA@ 00000001800588d0     libcpmt:winapinls.obj
 0002:000048e0       ??_C@_1M@KBMCINPM@?$AAh?$AAe?$AA?9?$AAi?$AAl?$AA?$AA@ 00000001800588e0     libcpmt:winapinls.obj
 0002:000048f0       ??_C@_1M@BBPHKFPJ@?$AAh?$AAi?$AA?9?$AAi?$AAn?$AA?$AA@ 00000001800588f0     libcpmt:winapinls.obj
 0002:00004900       ??_C@_1M@PMBNDPHD@?$AAh?$AAr?$AA?9?$AAb?$AAa?$AA?$AA@ 0000000180058900     libcpmt:winapinls.obj
 0002:00004910       ??_C@_1M@BPCKOEGE@?$AAh?$AAr?$AA?9?$AAh?$AAr?$AA?$AA@ 0000000180058910     libcpmt:winapinls.obj
 0002:00004920       ??_C@_1M@GACBMHKE@?$AAh?$AAu?$AA?9?$AAh?$AAu?$AA?$AA@ 0000000180058920     libcpmt:winapinls.obj
 0002:00004930       ??_C@_1M@MILPAJJC@?$AAh?$AAy?$AA?9?$AAa?$AAm?$AA?$AA@ 0000000180058930     libcpmt:winapinls.obj
 0002:00004940       ??_C@_1M@BABBICEC@?$AAi?$AAd?$AA?9?$AAi?$AAd?$AA?$AA@ 0000000180058940     libcpmt:winapinls.obj
 0002:00004950       ??_C@_1M@BIKNHHPF@?$AAi?$AAs?$AA?9?$AAi?$AAs?$AA?$AA@ 0000000180058950     libcpmt:winapinls.obj
 0002:00004960       ??_C@_1M@NMPCJPHE@?$AAi?$AAt?$AA?9?$AAc?$AAh?$AA?$AA@ 0000000180058960     libcpmt:winapinls.obj
 0002:00004970       ??_C@_1M@GHKGFEDF@?$AAi?$AAt?$AA?9?$AAi?$AAt?$AA?$AA@ 0000000180058970     libcpmt:winapinls.obj
 0002:00004980       ??_C@_1M@NIEJCJJA@?$AAj?$AAa?$AA?9?$AAj?$AAp?$AA?$AA@ 0000000180058980     libcpmt:winapinls.obj
 0002:00004990       ??_C@_1M@JILFNBIM@?$AAk?$AAa?$AA?9?$AAg?$AAe?$AA?$AA@ 0000000180058990     libcpmt:winapinls.obj
 0002:000049a0       ??_C@_1M@PACPMGPH@?$AAk?$AAk?$AA?9?$AAk?$AAz?$AA?$AA@ 00000001800589a0     libcpmt:winapinls.obj
 0002:000049b0       ??_C@_1M@IELFGMHA@?$AAk?$AAn?$AA?9?$AAi?$AAn?$AA?$AA@ 00000001800589b0     libcpmt:winapinls.obj
 0002:000049c0       ??_C@_1M@DMHAEOGC@?$AAk?$AAo?$AA?9?$AAk?$AAr?$AA?$AA@ 00000001800589c0     libcpmt:winapinls.obj
 0002:000049d0       ??_C@_1O@IBBJHCH@?$AAk?$AAo?$AAk?$AA?9?$AAi?$AAn?$AA?$AA@ 00000001800589d0     libcpmt:winapinls.obj
 0002:000049e0       ??_C@_1M@HBAHBIGA@?$AAk?$AAy?$AA?9?$AAk?$AAg?$AA?$AA@ 00000001800589e0     libcpmt:winapinls.obj
 0002:000049f0       ??_C@_1M@KPMILCJG@?$AAl?$AAt?$AA?9?$AAl?$AAt?$AA?$AA@ 00000001800589f0     libcpmt:winapinls.obj
 0002:00004a00       ??_C@_1M@BDEKKCA@?$AAl?$AAv?$AA?9?$AAl?$AAv?$AA?$AA@ 0000000180058a00     libcpmt:winapinls.obj
 0002:00004a10       ??_C@_1M@ELCKCCJJ@?$AAm?$AAi?$AA?9?$AAn?$AAz?$AA?$AA@ 0000000180058a10     libcpmt:winapinls.obj
 0002:00004a20       ??_C@_1M@CBOOLAPA@?$AAm?$AAk?$AA?9?$AAm?$AAk?$AA?$AA@ 0000000180058a20     libcpmt:winapinls.obj
 0002:00004a30       ??_C@_1M@GPHNBJKN@?$AAm?$AAl?$AA?9?$AAi?$AAn?$AA?$AA@ 0000000180058a30     libcpmt:winapinls.obj
 0002:00004a40       ??_C@_1M@PABJILIG@?$AAm?$AAn?$AA?9?$AAm?$AAn?$AA?$AA@ 0000000180058a40     libcpmt:winapinls.obj
 0002:00004a50       ??_C@_1M@FGBKKIPG@?$AAm?$AAr?$AA?9?$AAi?$AAn?$AA?$AA@ 0000000180058a50     libcpmt:winapinls.obj
 0002:00004a60       ??_C@_1M@NDBPDDAL@?$AAm?$AAs?$AA?9?$AAb?$AAn?$AA?$AA@ 0000000180058a60     libcpmt:winapinls.obj
 0002:00004a70       ??_C@_1M@OPIHOOPI@?$AAm?$AAs?$AA?9?$AAm?$AAy?$AA?$AA@ 0000000180058a70     libcpmt:winapinls.obj
 0002:00004a80       ??_C@_1M@PPDBCNFM@?$AAm?$AAt?$AA?9?$AAm?$AAt?$AA?$AA@ 0000000180058a80     libcpmt:winapinls.obj
 0002:00004a90       ??_C@_1M@KDJDKMDD@?$AAn?$AAb?$AA?9?$AAn?$AAo?$AA?$AA@ 0000000180058a90     libcpmt:winapinls.obj
 0002:00004aa0       ??_C@_1M@KFCFLMJP@?$AAn?$AAl?$AA?9?$AAb?$AAe?$AA?$AA@ 0000000180058aa0     libcpmt:winapinls.obj
 0002:00004ab0       ??_C@_1M@KPOPDDGO@?$AAn?$AAl?$AA?9?$AAn?$AAl?$AA?$AA@ 0000000180058ab0     libcpmt:winapinls.obj
 0002:00004ac0       ??_C@_1M@LJKPEMLN@?$AAn?$AAn?$AA?9?$AAn?$AAo?$AA?$AA@ 0000000180058ac0     libcpmt:winapinls.obj
 0002:00004ad0       ??_C@_1M@BDGHHBFL@?$AAn?$AAs?$AA?9?$AAz?$AAa?$AA?$AA@ 0000000180058ad0     libcpmt:winapinls.obj
 0002:00004ae0       ??_C@_1M@IDEHOAP@?$AAp?$AAa?$AA?9?$AAi?$AAn?$AA?$AA@ 0000000180058ae0     libcpmt:winapinls.obj
 0002:00004af0       ??_C@_1M@HDBKGOGH@?$AAp?$AAl?$AA?9?$AAp?$AAl?$AA?$AA@ 0000000180058af0     libcpmt:winapinls.obj
 0002:00004b00       ??_C@_1M@LJLLCMEH@?$AAp?$AAt?$AA?9?$AAb?$AAr?$AA?$AA@ 0000000180058b00     libcpmt:winapinls.obj
 0002:00004b10       ??_C@_1M@NCMONAAL@?$AAp?$AAt?$AA?9?$AAp?$AAt?$AA?$AA@ 0000000180058b10     libcpmt:winapinls.obj
 0002:00004b20       ??_C@_1O@EAKMAJDN@?$AAq?$AAu?$AAz?$AA?9?$AAb?$AAo?$AA?$AA@ 0000000180058b20     libcpmt:winapinls.obj
 0002:00004b30       ??_C@_1O@BHHPIGDN@?$AAq?$AAu?$AAz?$AA?9?$AAe?$AAc?$AA?$AA@ 0000000180058b30     libcpmt:winapinls.obj
 0002:00004b40       ??_C@_1O@GBAPEKMJ@?$AAq?$AAu?$AAz?$AA?9?$AAp?$AAe?$AA?$AA@ 0000000180058b40     libcpmt:winapinls.obj
 0002:00004b50       ??_C@_1M@CLGLEFBO@?$AAr?$AAo?$AA?9?$AAr?$AAo?$AA?$AA@ 0000000180058b50     libcpmt:winapinls.obj
 0002:00004b60       ??_C@_1M@CEEDODME@?$AAr?$AAu?$AA?9?$AAr?$AAu?$AA?$AA@ 0000000180058b60     libcpmt:winapinls.obj
 0002:00004b70       ??_C@_1M@HPKKKMPP@?$AAs?$AAa?$AA?9?$AAi?$AAn?$AA?$AA@ 0000000180058b70     libcpmt:winapinls.obj
 0002:00004b80       ??_C@_1M@BKMAIGOJ@?$AAs?$AAe?$AA?9?$AAf?$AAi?$AA?$AA@ 0000000180058b80     libcpmt:winapinls.obj
 0002:00004b90       ??_C@_1M@NDPIFLFI@?$AAs?$AAe?$AA?9?$AAn?$AAo?$AA?$AA@ 0000000180058b90     libcpmt:winapinls.obj
 0002:00004ba0       ??_C@_1M@DANKKHJ@?$AAs?$AAe?$AA?9?$AAs?$AAe?$AA?$AA@ 0000000180058ba0     libcpmt:winapinls.obj
 0002:00004bb0       ??_C@_1M@PNBLONPJ@?$AAs?$AAk?$AA?9?$AAs?$AAk?$AA?$AA@ 0000000180058bb0     libcpmt:winapinls.obj
 0002:00004bc0       ??_C@_1M@LFMODOAL@?$AAs?$AAl?$AA?9?$AAs?$AAi?$AA?$AA@ 0000000180058bc0     libcpmt:winapinls.obj
 0002:00004bd0       ??_C@_1O@DFKOMPG@?$AAs?$AAm?$AAa?$AA?9?$AAn?$AAo?$AA?$AA@ 0000000180058bd0     libcpmt:winapinls.obj
 0002:00004be0       ??_C@_1O@NDKPBNNH@?$AAs?$AAm?$AAa?$AA?9?$AAs?$AAe?$AA?$AA@ 0000000180058be0     libcpmt:winapinls.obj
 0002:00004bf0       ??_C@_1O@PLLKBHAB@?$AAs?$AAm?$AAj?$AA?9?$AAn?$AAo?$AA?$AA@ 0000000180058bf0     libcpmt:winapinls.obj
 0002:00004c00       ??_C@_1O@CLEPOGCA@?$AAs?$AAm?$AAj?$AA?9?$AAs?$AAe?$AA?$AA@ 0000000180058c00     libcpmt:winapinls.obj
 0002:00004c10       ??_C@_1O@DLGJGKMK@?$AAs?$AAm?$AAn?$AA?9?$AAf?$AAi?$AA?$AA@ 0000000180058c10     libcpmt:winapinls.obj
 0002:00004c20       ??_C@_1O@OJDJGAJC@?$AAs?$AAm?$AAs?$AA?9?$AAf?$AAi?$AA?$AA@ 0000000180058c20     libcpmt:winapinls.obj
 0002:00004c30       ??_C@_1M@BOFOGHPB@?$AAs?$AAq?$AA?9?$AAa?$AAl?$AA?$AA@ 0000000180058c30     libcpmt:winapinls.obj
 0002:00004c40       ??_C@_1BG@LJBBIPGB@?$AAs?$AAr?$AA?9?$AAb?$AAa?$AA?9?$AAc?$AAy?$AAr?$AAl?$AA?$AA@ 0000000180058c40     libcpmt:winapinls.obj
 0002:00004c58       ??_C@_1BG@JLBENFOE@?$AAs?$AAr?$AA?9?$AAb?$AAa?$AA?9?$AAl?$AAa?$AAt?$AAn?$AA?$AA@ 0000000180058c58     libcpmt:winapinls.obj
 0002:00004c70       ??_C@_1BG@KODPNHE@?$AAs?$AAr?$AA?9?$AAs?$AAp?$AA?9?$AAc?$AAy?$AAr?$AAl?$AA?$AA@ 0000000180058c70     libcpmt:winapinls.obj
 0002:00004c88       ??_C@_1BG@CIOGKHPB@?$AAs?$AAr?$AA?9?$AAs?$AAp?$AA?9?$AAl?$AAa?$AAt?$AAn?$AA?$AA@ 0000000180058c88     libcpmt:winapinls.obj
 0002:00004ca0       ??_C@_1M@NGFJLMAC@?$AAs?$AAv?$AA?9?$AAf?$AAi?$AA?$AA@ 0000000180058ca0     libcpmt:winapinls.obj
 0002:00004cb0       ??_C@_1M@MPJEJAJC@?$AAs?$AAv?$AA?9?$AAs?$AAe?$AA?$AA@ 0000000180058cb0     libcpmt:winapinls.obj
 0002:00004cc0       ??_C@_1M@MPNDHLFK@?$AAs?$AAw?$AA?9?$AAk?$AAe?$AA?$AA@ 0000000180058cc0     libcpmt:winapinls.obj
 0002:00004cd0       ??_C@_1O@KOHBJJI@?$AAs?$AAy?$AAr?$AA?9?$AAs?$AAy?$AA?$AA@ 0000000180058cd0     libcpmt:winapinls.obj
 0002:00004ce0       ??_C@_1M@LDCEFHA@?$AAt?$AAa?$AA?9?$AAi?$AAn?$AA?$AA@ 0000000180058ce0     libcpmt:winapinls.obj
 0002:00004cf0       ??_C@_1M@CNJOFAK@?$AAt?$AAe?$AA?9?$AAi?$AAn?$AA?$AA@ 0000000180058cf0     libcpmt:winapinls.obj
 0002:00004d00       ??_C@_1M@GNAECACD@?$AAt?$AAh?$AA?9?$AAt?$AAh?$AA?$AA@ 0000000180058d00     libcpmt:winapinls.obj
 0002:00004d10       ??_C@_1M@CHBIHOJO@?$AAt?$AAn?$AA?9?$AAz?$AAa?$AA?$AA@ 0000000180058d10     libcpmt:winapinls.obj
 0002:00004d20       ??_C@_1M@GCCMIGPJ@?$AAt?$AAr?$AA?9?$AAt?$AAr?$AA?$AA@ 0000000180058d20     libcpmt:winapinls.obj
 0002:00004d30       ??_C@_1M@CELMCNBK@?$AAt?$AAt?$AA?9?$AAr?$AAu?$AA?$AA@ 0000000180058d30     libcpmt:winapinls.obj
 0002:00004d40       ??_C@_1M@KLMCELGA@?$AAu?$AAk?$AA?9?$AAu?$AAa?$AA?$AA@ 0000000180058d40     libcpmt:winapinls.obj
 0002:00004d50       ??_C@_1M@EPAJJAJF@?$AAu?$AAr?$AA?9?$AAp?$AAk?$AA?$AA@ 0000000180058d50     libcpmt:winapinls.obj
 0002:00004d60       ??_C@_1BG@GEGPMCDJ@?$AAu?$AAz?$AA?9?$AAu?$AAz?$AA?9?$AAc?$AAy?$AAr?$AAl?$AA?$AA@ 0000000180058d60     libcpmt:winapinls.obj
 0002:00004d78       ??_C@_1BG@EGGKJILM@?$AAu?$AAz?$AA?9?$AAu?$AAz?$AA?9?$AAl?$AAa?$AAt?$AAn?$AA?$AA@ 0000000180058d78     libcpmt:winapinls.obj
 0002:00004d90       ??_C@_1M@GFOCLFF@?$AAv?$AAi?$AA?9?$AAv?$AAn?$AA?$AA@ 0000000180058d90     libcpmt:winapinls.obj
 0002:00004da0       ??_C@_1M@CPAMEDFI@?$AAx?$AAh?$AA?9?$AAz?$AAa?$AA?$AA@ 0000000180058da0     libcpmt:winapinls.obj
 0002:00004db0       ??_C@_1O@EBKIFIGN@?$AAz?$AAh?$AA?9?$AAc?$AAh?$AAs?$AA?$AA@ 0000000180058db0     libcpmt:winapinls.obj
 0002:00004dc0       ??_C@_1O@NMHPGANE@?$AAz?$AAh?$AA?9?$AAc?$AAh?$AAt?$AA?$AA@ 0000000180058dc0     libcpmt:winapinls.obj
 0002:00004dd0       ??_C@_1M@LPINJOMC@?$AAz?$AAh?$AA?9?$AAc?$AAn?$AA?$AA@ 0000000180058dd0     libcpmt:winapinls.obj
 0002:00004de0       ??_C@_1M@OCJEJODD@?$AAz?$AAh?$AA?9?$AAh?$AAk?$AA?$AA@ 0000000180058de0     libcpmt:winapinls.obj
 0002:00004df0       ??_C@_1M@DNDLJINH@?$AAz?$AAh?$AA?9?$AAm?$AAo?$AA?$AA@ 0000000180058df0     libcpmt:winapinls.obj
 0002:00004e00       ??_C@_1M@MBFDNDND@?$AAz?$AAh?$AA?9?$AAs?$AAg?$AA?$AA@ 0000000180058e00     libcpmt:winapinls.obj
 0002:00004e10       ??_C@_1M@IMEPLEPE@?$AAz?$AAh?$AA?9?$AAt?$AAw?$AA?$AA@ 0000000180058e10     libcpmt:winapinls.obj
 0002:00004e20       ??_C@_1M@BBGHNHJP@?$AAz?$AAu?$AA?9?$AAz?$AAa?$AA?$AA@ 0000000180058e20     libcpmt:winapinls.obj
 0002:00004e30       ??_C@_1EC@JIJBPKFM@?$AAa?$AAp?$AAi?$AA?9?$AAm?$AAs?$AA?9?$AAw?$AAi?$AAn?$AA?9?$AAc?$AAo?$AAr?$AAe?$AA?9?$AAs?$AAy?$AAn?$AAc?$AAh?$AA?9?$AAl?$AA1?$AA?9?$AA2?$AA?9?$AA0?$AA?4?$AAd?$AAl?$AAl@ 0000000180058e30     LIBCMT:thread_safe_statics.obj
 0002:00004e80       ??_7type_info@@6B@         0000000180058e80     LIBCMT:std_type_info_static.obj
 0002:00004e98       _pDefaultRawDllMain        0000000180058e98     LIBCMT:dll_dllmain.obj
 0002:00004e98       _pRawDllMain               0000000180058e98     LIBCMT:dll_dllmain.obj
 0002:00004ea8       ??_7bad_array_new_length@std@@6B@ 0000000180058ea8     LIBCMT:throw_bad_alloc.obj
 0002:00004eb8       ??_C@_0BF@KINCDENJ@bad?5array?5new?5length?$AA@ 0000000180058eb8     LIBCMT:throw_bad_alloc.obj
 0002:00004f68       _pDestructExceptionObject  0000000180058f68     libvcruntime:ehhelpers.obj
 0002:00004fc8       ??_C@_1DM@KHCHBNEB@?$AAa?$AAp?$AAi?$AA?9?$AAm?$AAs?$AA?9?$AAw?$AAi?$AAn?$AA?9?$AAc?$AAo?$AAr?$AAe?$AA?9?$AAf?$AAi?$AAb?$AAe?$AAr?$AAs?$AA?9?$AAl?$AA1?$AA?9?$AA1?$AA?9?$AA1?$AA?$AA@ 0000000180058fc8     libvcruntime:winapi_downlevel.obj
 0002:00005008       ??_C@_1DK@LPPGFMPP@?$AAa?$AAp?$AAi?$AA?9?$AAm?$AAs?$AA?9?$AAw?$AAi?$AAn?$AA?9?$AAc?$AAo?$AAr?$AAe?$AA?9?$AAs?$AAy?$AAn?$AAc?$AAh?$AA?9?$AAl?$AA1?$AA?9?$AA2?$AA?9?$AA0?$AA?$AA@ 0000000180059008     libvcruntime:winapi_downlevel.obj
 0002:00005048       ??_C@_1BC@GDMECMAK@?$AAk?$AAe?$AAr?$AAn?$AAe?$AAl?$AA3?$AA2?$AA?$AA@ 0000000180059048     libvcruntime:winapi_downlevel.obj
 0002:00005060       ??_C@_1BA@PFFKHIOG@?$AAa?$AAp?$AAi?$AA?9?$AAm?$AAs?$AA?9?$AA?$AA@ 0000000180059060     libvcruntime:winapi_downlevel.obj
 0002:00005070       ??_C@_1BA@IAIFMGEF@?$AAe?$AAx?$AAt?$AA?9?$AAm?$AAs?$AA?9?$AA?$AA@ 0000000180059070     libvcruntime:winapi_downlevel.obj
 0002:000050b0       ??_7bad_exception@std@@6B@ 00000001800590b0     libvcruntime:frame.obj
 0002:000050c0       ??_C@_0O@DPKOEFFH@bad?5exception?$AA@ 00000001800590c0     libvcruntime:frame.obj
 0002:000053f8       ??_C@_08EHJDFFNH@__based?$CI?$AA@ 00000001800593f8     libvcruntime:undname.obj
 0002:00005408       ??_C@_07KOLFKCDI@__cdecl?$AA@ 0000000180059408     libvcruntime:undname.obj
 0002:00005410       ??_C@_08GHMPAG@__pascal?$AA@ 0000000180059410     libvcruntime:undname.obj
 0002:00005420       ??_C@_09IFJBGAPI@__stdcall?$AA@ 0000000180059420     libvcruntime:undname.obj
 0002:00005430       ??_C@_0L@NPHFGOKO@__thiscall?$AA@ 0000000180059430     libvcruntime:undname.obj
 0002:00005440       ??_C@_0L@JMKHOMEK@__fastcall?$AA@ 0000000180059440     libvcruntime:undname.obj
 0002:00005450       ??_C@_0N@BCKKPABJ@__vectorcall?$AA@ 0000000180059450     libvcruntime:undname.obj
 0002:00005460       ??_C@_09HIJEGCPM@__clrcall?$AA@ 0000000180059460     libvcruntime:undname.obj
 0002:0000546c       ??_C@_06GHPCKEAG@__eabi?$AA@ 000000018005946c     libvcruntime:undname.obj
 0002:00005478       ??_C@_07JOMMBBKO@__ptr64?$AA@ 0000000180059478     libvcruntime:undname.obj
 0002:00005480       ??_C@_0L@PILCLIHE@__restrict?$AA@ 0000000180059480     libvcruntime:undname.obj
 0002:00005490       ??_C@_0M@GFIIJFMG@__unaligned?$AA@ 0000000180059490     libvcruntime:undname.obj
 0002:000054a0       ??_C@_09DHDLOLLB@restrict?$CI?$AA@ 00000001800594a0     libvcruntime:undname.obj
 0002:000054ac       ??_C@_04NIHEBCM@?5new?$AA@ 00000001800594ac     libvcruntime:undname.obj
 0002:000054b8       ??_C@_07FPCDHGMM@?5delete?$AA@ 00000001800594b8     libvcruntime:undname.obj
 0002:000054c0       ??_C@_01NEMOKFLO@?$DN?$AA@ 00000001800594c0     libvcruntime:undname.obj
 0002:000054c4       ??_C@_02GPIOPFAK@?$DO?$DO?$AA@ 00000001800594c4     libvcruntime:undname.obj
 0002:000054c8       ??_C@_02FODMEDOG@?$DM?$DM?$AA@ 00000001800594c8     libvcruntime:undname.obj
 0002:000054cc       ??_C@_01DCLJPIOD@?$CB?$AA@ 00000001800594cc     libvcruntime:undname.obj
 0002:000054d0       ??_C@_02EGOFBIJA@?$DN?$DN?$AA@ 00000001800594d0     libvcruntime:undname.obj
 0002:000054d4       ??_C@_02FDNJECIE@?$CB?$DN?$AA@ 00000001800594d4     libvcruntime:undname.obj
 0002:000054d8       ??_C@_02GPECMEKF@?$FL?$FN?$AA@ 00000001800594d8     libvcruntime:undname.obj
 0002:000054e0       ??_C@_08LHJFAFGD@operator?$AA@ 00000001800594e0     libvcruntime:undname.obj
 0002:000054ec       ??_C@_02HBOOOICD@?9?$DO?$AA@ 00000001800594ec     libvcruntime:undname.obj
 0002:000054f0       ??_C@_02ECNGHCIF@?$CL?$CL?$AA@ 00000001800594f0     libvcruntime:undname.obj
 0002:000054f4       ??_C@_02BAABKJLB@?9?9?$AA@ 00000001800594f4     libvcruntime:undname.obj
 0002:000054f8       ??_C@_01MIFGBAGJ@?$CL?$AA@ 00000001800594f8     libvcruntime:undname.obj
 0002:000054fc       ??_C@_01HNPIGOCE@?$CG?$AA@ 00000001800594fc     libvcruntime:undname.obj
 0002:00005500       ??_C@_03MNHNFDLC@?9?$DO?$CK?$AA@ 0000000180059500     libvcruntime:undname.obj
 0002:00005504       ??_C@_01KMDKNFGN@?1?$AA@   0000000180059504     libvcruntime:undname.obj
 0002:00005508       ??_C@_01FGNFDNOH@?$CF?$AA@ 0000000180059508     libvcruntime:undname.obj
 0002:0000550c       ??_C@_01MNNFJEPP@?$DM?$AA@ 000000018005950c     libvcruntime:undname.obj
 0002:00005510       ??_C@_02EHCHHCKH@?$DM?$DN?$AA@ 0000000180059510     libvcruntime:undname.obj
 0002:00005514       ??_C@_01PPODPGHN@?$DO?$AA@ 0000000180059514     libvcruntime:undname.obj
 0002:00005518       ??_C@_02EEKDKGMJ@?$DO?$DN?$AA@ 0000000180059518     libvcruntime:undname.obj
 0002:0000551c       ??_C@_01IHBHIGKO@?0?$AA@   000000018005951c     libvcruntime:undname.obj
 0002:00005520       ??_C@_02HCKGKOFO@?$CI?$CJ?$AA@ 0000000180059520     libvcruntime:undname.obj
 0002:00005524       ??_C@_01PJKLJHI@?$HO?$AA@  0000000180059524     libvcruntime:undname.obj
 0002:00005528       ??_C@_01JKBOJNNK@?$FO?$AA@ 0000000180059528     libvcruntime:undname.obj
 0002:0000552c       ??_C@_01DNKMNLPK@?$HM?$AA@ 000000018005952c     libvcruntime:undname.obj
 0002:00005530       ??_C@_02PPKAJPJL@?$CG?$CG?$AA@ 0000000180059530     libvcruntime:undname.obj
 0002:00005534       ??_C@_02NONPIBCD@?$HM?$HM?$AA@ 0000000180059534     libvcruntime:undname.obj
 0002:00005538       ??_C@_02FPIMKNGF@?$CK?$DN?$AA@ 0000000180059538     libvcruntime:undname.obj
 0002:0000553c       ??_C@_02FOEOMHFC@?$CL?$DN?$AA@ 000000018005953c     libvcruntime:undname.obj
 0002:00005540       ??_C@_02FKMDLLOA@?9?$DN?$AA@ 0000000180059540     libvcruntime:undname.obj
 0002:00005544       ??_C@_02FJEHGPIO@?1?$DN?$AA@ 0000000180059544     libvcruntime:undname.obj
 0002:00005548       ??_C@_02FENAOKFI@?$CF?$DN?$AA@ 0000000180059548     libvcruntime:undname.obj
 0002:0000554c       ??_C@_03IKFCCPFF@?$DO?$DO?$DN?$AA@ 000000018005954c     libvcruntime:undname.obj
 0002:00005550       ??_C@_03CDNPDDLA@?$DM?$DM?$DN?$AA@ 0000000180059550     libvcruntime:undname.obj
 0002:00005554       ??_C@_02FGJGFEAB@?$CG?$DN?$AA@ 0000000180059554     libvcruntime:undname.obj
 0002:00005558       ??_C@_02DHLNPPGH@?$HM?$DN?$AA@ 0000000180059558     libvcruntime:undname.obj
 0002:0000555c       ??_C@_02MHEGNOJ@?$FO?$DN?$AA@ 000000018005955c     libvcruntime:undname.obj
 0002:00005560       ??_C@_09IFPLHPGF@?$GAvftable?8?$AA@ 0000000180059560     libvcruntime:undname.obj
 0002:00005570       ??_C@_09BLBHBJP@?$GAvbtable?8?$AA@ 0000000180059570     libvcruntime:undname.obj
 0002:00005580       ??_C@_07FEEIOKP@?$GAvcall?8?$AA@ 0000000180059580     libvcruntime:undname.obj
 0002:00005588       ??_C@_08LLFFHHDJ@?$GAtypeof?8?$AA@ 0000000180059588     libvcruntime:undname.obj
 0002:00005598       ??_C@_0BF@KDPPACIK@?$GAlocal?5static?5guard?8?$AA@ 0000000180059598     libvcruntime:undname.obj
 0002:000055b0       ??_C@_08OBABFOLI@?$GAstring?8?$AA@ 00000001800595b0     libvcruntime:undname.obj
 0002:000055c0       ??_C@_0BD@JDLKDPAB@?$GAvbase?5destructor?8?$AA@ 00000001800595c0     libvcruntime:undname.obj
 0002:000055d8       ??_C@_0BN@DEGPLNFK@?$GAvector?5deleting?5destructor?8?$AA@ 00000001800595d8     libvcruntime:undname.obj
 0002:000055f8       ??_C@_0BO@OBMKPJIG@?$GAdefault?5constructor?5closure?8?$AA@ 00000001800595f8     libvcruntime:undname.obj
 0002:00005618       ??_C@_0BN@IMDCHIKM@?$GAscalar?5deleting?5destructor?8?$AA@ 0000000180059618     libvcruntime:undname.obj
 0002:00005638       ??_C@_0BO@PFGOCPJJ@?$GAvector?5constructor?5iterator?8?$AA@ 0000000180059638     libvcruntime:undname.obj
 0002:00005658       ??_C@_0BN@LFPFMEDL@?$GAvector?5destructor?5iterator?8?$AA@ 0000000180059658     libvcruntime:undname.obj
 0002:00005678       ??_C@_0CE@IKBNEHA@?$GAvector?5vbase?5constructor?5iterat@ 0000000180059678     libvcruntime:undname.obj
 0002:000056a0       ??_C@_0BL@NILFHHPC@?$GAvirtual?5displacement?5map?8?$AA@ 00000001800596a0     libvcruntime:undname.obj
 0002:000056c0       ??_C@_0CB@JONCMFFK@?$GAeh?5vector?5constructor?5iterator?8@ 00000001800596c0     libvcruntime:undname.obj
 0002:000056e8       ??_C@_0CA@GCEOPDGL@?$GAeh?5vector?5destructor?5iterator?8?$AA@ 00000001800596e8     libvcruntime:undname.obj
 0002:00005708       ??_C@_0CH@OOJPLCPH@?$GAeh?5vector?5vbase?5constructor?5ite@ 0000000180059708     libvcruntime:undname.obj
 0002:00005730       ??_C@_0BL@LLKPOHJI@?$GAcopy?5constructor?5closure?8?$AA@ 0000000180059730     libvcruntime:undname.obj
 0002:00005750       ??_C@_0BA@KBCDOMBN@?$GAudt?5returning?8?$AA@ 0000000180059750     libvcruntime:undname.obj
 0002:00005760       ??_C@_03KLGMFNMG@?$GAEH?$AA@ 0000000180059760     libvcruntime:undname.obj
 0002:00005764       ??_C@_05KHLCHHI@?$GARTTI?$AA@ 0000000180059764     libvcruntime:undname.obj
 0002:00005770       ??_C@_0BA@KKLDJDLB@?$GAlocal?5vftable?8?$AA@ 0000000180059770     libvcruntime:undname.obj
 0002:00005780       ??_C@_0CE@IIHCMGGL@?$GAlocal?5vftable?5constructor?5closu@ 0000000180059780     libvcruntime:undname.obj
 0002:000057a4       ??_C@_06FHBGPFGH@?5new?$FL?$FN?$AA@ 00000001800597a4     libvcruntime:undname.obj
 0002:000057b0       ??_C@_09LBNFPBCA@?5delete?$FL?$FN?$AA@ 00000001800597b0     libvcruntime:undname.obj
 0002:000057c0       ??_C@_0P@HJKNJFNN@?$GAomni?5callsig?8?$AA@ 00000001800597c0     libvcruntime:undname.obj
 0002:000057d0       ??_C@_0BL@CNOONJFP@?$GAplacement?5delete?5closure?8?$AA@ 00000001800597d0     libvcruntime:undname.obj
 0002:000057f0       ??_C@_0BN@CKNJLHMB@?$GAplacement?5delete?$FL?$FN?5closure?8?$AA@ 00000001800597f0     libvcruntime:undname.obj
 0002:00005810       ??_C@_0CG@CFDHKGGD@?$GAmanaged?5vector?5constructor?5iter@ 0000000180059810     libvcruntime:undname.obj
 0002:00005838       ??_C@_0CF@IMGKMJNO@?$GAmanaged?5vector?5destructor?5itera@ 0000000180059838     libvcruntime:undname.obj
 0002:00005860       ??_C@_0CG@HLDDJMAG@?$GAeh?5vector?5copy?5constructor?5iter@ 0000000180059860     libvcruntime:undname.obj
 0002:00005888       ??_C@_0CM@FCBBDIGB@?$GAeh?5vector?5vbase?5copy?5constructo@ 0000000180059888     libvcruntime:undname.obj
 0002:000058b8       ??_C@_0BL@CLIPGLGB@?$GAdynamic?5initializer?5for?5?8?$AA@ 00000001800598b8     libvcruntime:undname.obj
 0002:000058d8       ??_C@_0CB@PDBIFEP@?$GAdynamic?5atexit?5destructor?5for?5?8@ 00000001800598d8     libvcruntime:undname.obj
 0002:00005900       ??_C@_0CD@CGAJBKEJ@?$GAvector?5copy?5constructor?5iterato@ 0000000180059900     libvcruntime:undname.obj
 0002:00005928       ??_C@_0CJ@GJELGAMM@?$GAvector?5vbase?5copy?5constructor?5i@ 0000000180059928     libvcruntime:undname.obj
 0002:00005958       ??_C@_0CL@FGIJHLCE@?$GAmanaged?5vector?5copy?5constructor@ 0000000180059958     libvcruntime:undname.obj
 0002:00005988       ??_C@_0BM@PMGGMLDN@?$GAlocal?5static?5thread?5guard?8?$AA@ 0000000180059988     libvcruntime:undname.obj
 0002:000059a8       ??_C@_0N@BDNMDMOL@operator?5?$CC?$CC?5?$AA@ 00000001800599a8     libvcruntime:undname.obj
 0002:000059b8       ??_C@_0BC@GGEBGALA@operator?5co_await?$AA@ 00000001800599b8     libvcruntime:undname.obj
 0002:000059d0       ??_C@_0BC@DAFEJGAK@?5Type?5Descriptor?8?$AA@ 00000001800599d0     libvcruntime:undname.obj
 0002:000059e8       ??_C@_0BM@LDKODKLH@?5Base?5Class?5Descriptor?5at?5?$CI?$AA@ 00000001800599e8     libvcruntime:undname.obj
 0002:00005a08       ??_C@_0BD@LGICGFMM@?5Base?5Class?5Array?8?$AA@ 0000000180059a08     libvcruntime:undname.obj
 0002:00005a20       ??_C@_0BN@MECKDCOJ@?5Class?5Hierarchy?5Descriptor?8?$AA@ 0000000180059a20     libvcruntime:undname.obj
 0002:00005a40       ??_C@_0BK@CFCOFLF@?5Complete?5Object?5Locator?8?$AA@ 0000000180059a40     libvcruntime:undname.obj
 0002:00005a60       standard_lookup_table      0000000180059a60     libucrt:output.obj
 0002:00005ac0       format_validation_lookup_table 0000000180059ac0     libucrt:output.obj
 0002:00005b20       ??_C@_1O@CEDCILHN@?$AA?$CI?$AAn?$AAu?$AAl?$AAl?$AA?$CJ?$AA?$AA@ 0000000180059b20     libucrt:output.obj
 0002:00005b30       ??_C@_06OJHGLDPL@?$CInull?$CJ?$AA@ 0000000180059b30     libucrt:output.obj
 0002:00005b38       __real@0000000000000000    0000000180059b38     libucrt:frexp.obj
 0002:00005b40       __real@8000000000000000    0000000180059b40     libucrt:frexp.obj
 0002:00005b50       ??_C@_1EK@MBDPDCGA@?$AAM?$AAi?$AAc?$AAr?$AAo?$AAs?$AAo?$AAf?$AAt?$AA?5?$AAV?$AAi?$AAs?$AAu?$AAa?$AAl?$AA?5?$AAC?$AA?$CL?$AA?$CL?$AA?5?$AAR?$AAu?$AAn?$AAt?$AAi?$AAm?$AAe?$AA?5?$AAL?$AAi?$AAb@ 0000000180059b50     libucrt:assert.obj
 0002:00005ba0       ??_C@_1FE@LHBLIKM@?$AAA?$AAs?$AAs?$AAe?$AAr?$AAt?$AAi?$AAo?$AAn?$AA?5?$AAf?$AAa?$AAi?$AAl?$AAe?$AAd?$AA?3?$AA?5?$AA?$CF?$AAT?$AAs?$AA?0?$AA?5?$AAf?$AAi?$AAl?$AAe?$AA?5?$AA?$CF?$AAT?$AAs?$AA?0@ 0000000180059ba0     libucrt:assert.obj
 0002:00005bf8       ??_C@_1CE@OJBNHDMO@?$AAA?$AAs?$AAs?$AAe?$AAr?$AAt?$AAi?$AAo?$AAn?$AA?5?$AAf?$AAa?$AAi?$AAl?$AAe?$AAd?$AA?$CB?$AA?$AA@ 0000000180059bf8     libucrt:assert.obj
 0002:00005c20       ??_C@_1BE@PHKBBGE@?$AAP?$AAr?$AAo?$AAg?$AAr?$AAa?$AAm?$AA?3?$AA?5?$AA?$AA@ 0000000180059c20     libucrt:assert.obj
 0002:00005c38       ??_C@_1O@HEMHKNDC@?$AAF?$AAi?$AAl?$AAe?$AA?3?$AA?5?$AA?$AA@ 0000000180059c38     libucrt:assert.obj
 0002:00005c48       ??_C@_1O@KCAFKHJE@?$AAL?$AAi?$AAn?$AAe?$AA?3?$AA?5?$AA?$AA@ 0000000180059c48     libucrt:assert.obj
 0002:00005c58       ??_C@_1BK@PEDCIPMA@?$AAE?$AAx?$AAp?$AAr?$AAe?$AAs?$AAs?$AAi?$AAo?$AAn?$AA?3?$AA?5?$AA?$AA@ 0000000180059c58     libucrt:assert.obj
 0002:00005c80       ??_C@_1OA@EGMLFBHJ@?$AAF?$AAo?$AAr?$AA?5?$AAi?$AAn?$AAf?$AAo?$AAr?$AAm?$AAa?$AAt?$AAi?$AAo?$AAn?$AA?5?$AAo?$AAn?$AA?5?$AAh?$AAo?$AAw?$AA?5?$AAy?$AAo?$AAu?$AAr?$AA?5?$AAp?$AAr?$AAo?$AAg@ 0000000180059c80     libucrt:assert.obj
 0002:00005d60       ??_C@_1HK@POCJMFGK@?$AA?$CI?$AAP?$AAr?$AAe?$AAs?$AAs?$AA?5?$AAR?$AAe?$AAt?$AAr?$AAy?$AA?5?$AAt?$AAo?$AA?5?$AAd?$AAe?$AAb?$AAu?$AAg?$AA?5?$AAt?$AAh?$AAe?$AA?5?$AAa?$AAp?$AAp?$AAl?$AAi?$AAc@ 0000000180059d60     libucrt:assert.obj
 0002:00005de0       ??_C@_17LGKOMLJ@?$AA?4?$AA?4?$AA?4?$AA?$AA@ 0000000180059de0     libucrt:assert.obj
 0002:00005de8       ??_C@_13LBAGMAIH@?$AA?6?$AA?$AA@ 0000000180059de8     libucrt:assert.obj
 0002:00005dec       ??_C@_15IABLJNFO@?$AA?6?$AA?6?$AA?$AA@ 0000000180059dec     libucrt:assert.obj
 0002:00005df8       ??_C@_1CO@EAEJAADC@?$AA?$DM?$AAp?$AAr?$AAo?$AAg?$AAr?$AAa?$AAm?$AA?5?$AAn?$AAa?$AAm?$AAe?$AA?5?$AAu?$AAn?$AAk?$AAn?$AAo?$AAw?$AAn?$AA?$DO?$AA?$AA@ 0000000180059df8     libucrt:assert.obj
 0002:00005e30       _wctype                    0000000180059e30     libucrt:ctype.obj
 0002:00006040       __newctype                 000000018005a040     libucrt:ctype.obj
 0002:00006340       __newclmap                 000000018005a340     libucrt:ctype.obj
 0002:000064c0       __newcumap                 000000018005a4c0     libucrt:ctype.obj
 0002:000067a0       ?large_power_data@?1??multiply_by_power_of_ten@__crt_strtox@@YA_NAEAUbig_integer@2@I@Z@4QBIB 000000018005a7a0     libucrt:strtod.obj
 0002:000070b0       ?large_power_indices@?1??multiply_by_power_of_ten@__crt_strtox@@YA_NAEAUbig_integer@2@I@Z@4QBUunpack_index@?1??12@YA_N0I@Z@B 000000018005b0b0     libucrt:strtod.obj
 0002:00007148       ?small_powers_of_ten@?1??multiply_by_power_of_ten@__crt_strtox@@YA_NAEAUbig_integer@2@I@Z@4QBIB 000000018005b148     libucrt:strtod.obj
 0002:00008e20       __acrt_exception_action_table 000000018005ce20     libucrt:exception_filter.obj
 0002:00008ee0       __acrt_signal_action_table_count 000000018005cee0     libucrt:exception_filter.obj
 0002:00008ee8       __acrt_signal_action_first_fpe_index 000000018005cee8     libucrt:exception_filter.obj
 0002:00008ef0       __acrt_signal_action_fpe_count 000000018005cef0     libucrt:exception_filter.obj
 0002:00008ef8       ??_C@_1BI@BGOHAHKC@?$AAm?$AAs?$AAc?$AAo?$AAr?$AAe?$AAe?$AA?4?$AAd?$AAl?$AAl?$AA?$AA@ 000000018005cef8     libucrt:exit.obj
 0002:00008f10       ??_C@_0P@MIGLKIOC@CorExitProcess?$AA@ 000000018005cf10     libucrt:exit.obj
 0002:00009010       ??_C@_03OEIAHPBN@INF?$AA@  000000018005d010     libucrt:cvt.obj
 0002:00009014       ??_C@_03OJHLLCGB@inf?$AA@  000000018005d014     libucrt:cvt.obj
 0002:00009018       ??_C@_03LKNCIKJB@NAN?$AA@  000000018005d018     libucrt:cvt.obj
 0002:0000901c       ??_C@_03LHCJEHON@nan?$AA@  000000018005d01c     libucrt:cvt.obj
 0002:00009020       ??_C@_09OFJJIMPC@NAN?$CISNAN?$CJ?$AA@ 000000018005d020     libucrt:cvt.obj
 0002:00009030       ??_C@_09IPFBKMDL@nan?$CIsnan?$CJ?$AA@ 000000018005d030     libucrt:cvt.obj
 0002:00009040       ??_C@_08IKHNHAJ@NAN?$CIIND?$CJ?$AA@ 000000018005d040     libucrt:cvt.obj
 0002:00009050       ??_C@_08OFCDMILK@nan?$CIind?$CJ?$AA@ 000000018005d050     libucrt:cvt.obj
 0002:0000905c       ??_C@_05KLBDPFGC@e?$CL000?$AA@ 000000018005d05c     libucrt:cvt.obj
 0002:00009070       __lc_category              000000018005d070     libucrt:wsetlocale.obj
 0002:00009100       ??_C@_1O@GIFLHMA@?$AAL?$AAC?$AA_?$AAA?$AAL?$AAL?$AA?$AA@ 000000018005d100     libucrt:wsetlocale.obj
 0002:00009110       ??_C@_1BG@PPOMIBNJ@?$AAL?$AAC?$AA_?$AAC?$AAO?$AAL?$AAL?$AAA?$AAT?$AAE?$AA?$AA@ 000000018005d110     libucrt:wsetlocale.obj
 0002:00009128       ??_C@_1BC@FFJGAPJM@?$AAL?$AAC?$AA_?$AAC?$AAT?$AAY?$AAP?$AAE?$AA?$AA@ 000000018005d128     libucrt:wsetlocale.obj
 0002:00009140       ??_C@_1BI@PCKFNJFB@?$AAL?$AAC?$AA_?$AAM?$AAO?$AAN?$AAE?$AAT?$AAA?$AAR?$AAY?$AA?$AA@ 000000018005d140     libucrt:wsetlocale.obj
 0002:00009158       ??_C@_1BG@ENIEDKID@?$AAL?$AAC?$AA_?$AAN?$AAU?$AAM?$AAE?$AAR?$AAI?$AAC?$AA?$AA@ 000000018005d158     libucrt:wsetlocale.obj
 0002:00009170       ??_C@_1BA@HAAOMIIG@?$AAL?$AAC?$AA_?$AAT?$AAI?$AAM?$AAE?$AA?$AA@ 000000018005d170     libucrt:wsetlocale.obj
 0002:00009200       ??_C@_15NBPDDFIP@?$AA?$DN?$AA?$DL?$AA?$AA@ 000000018005d200     libucrt:wsetlocale.obj
 0002:00009208       ??_C@_13PJJBFPED@?$AA?$DL?$AA?$AA@ 000000018005d208     libucrt:wsetlocale.obj
 0002:0000920c       ??_C@_13NMPKAAJP@?$AA?$DN?$AA?$AA@ 000000018005d20c     libucrt:wsetlocale.obj
 0002:00009210       ??_C@_13FHBKNHDA@?$AAC?$AA?$AA@ 000000018005d210     libucrt:wsetlocale.obj
 0002:00009218       ??_C@_17MBJJLFDM@?$AA_?$AA?4?$AA?0?$AA?$AA@ 000000018005d218     libucrt:wsetlocale.obj
 0002:00009220       ??_C@_13ENNFDPBH@?$AA_?$AA?$AA@ 000000018005d220     libucrt:wsetlocale.obj
 0002:00009224       ??_C@_13JOFGPIOO@?$AA?4?$AA?$AA@ 000000018005d224     libucrt:wsetlocale.obj
 0002:00009228       ??_C@_03KOEHGMDN@Sun?$AA@  000000018005d228     libucrt:nlsdata.obj
 0002:0000922c       ??_C@_03PDAGKDH@Mon?$AA@   000000018005d22c     libucrt:nlsdata.obj
 0002:00009230       ??_C@_03NAGEINEP@Tue?$AA@  000000018005d230     libucrt:nlsdata.obj
 0002:00009234       ??_C@_03MHOMLAJA@Wed?$AA@  000000018005d234     libucrt:nlsdata.obj
 0002:00009238       ??_C@_03IOFIKPDN@Thu?$AA@  000000018005d238     libucrt:nlsdata.obj
 0002:0000923c       ??_C@_03IDIOELNC@Fri?$AA@  000000018005d23c     libucrt:nlsdata.obj
 0002:00009240       ??_C@_03FEFJNEK@Sat?$AA@   000000018005d240     libucrt:nlsdata.obj
 0002:00009244       ??_C@_06OOPIFAJ@Sunday?$AA@ 000000018005d244     libucrt:nlsdata.obj
 0002:0000924c       ??_C@_06JLEDEDGH@Monday?$AA@ 000000018005d24c     libucrt:nlsdata.obj
 0002:00009258       ??_C@_07BAAGCFCM@Tuesday?$AA@ 000000018005d258     libucrt:nlsdata.obj
 0002:00009260       ??_C@_09DLIGFAKA@Wednesday?$AA@ 000000018005d260     libucrt:nlsdata.obj
 0002:00009270       ??_C@_08HACCIKIA@Thursday?$AA@ 000000018005d270     libucrt:nlsdata.obj
 0002:0000927c       ??_C@_06JECMNKMI@Friday?$AA@ 000000018005d27c     libucrt:nlsdata.obj
 0002:00009288       ??_C@_08INBOOONO@Saturday?$AA@ 000000018005d288     libucrt:nlsdata.obj
 0002:00009294       ??_C@_03JIHJHPIE@Jan?$AA@  000000018005d294     libucrt:nlsdata.obj
 0002:00009298       ??_C@_03HJBDCHOM@Feb?$AA@  000000018005d298     libucrt:nlsdata.obj
 0002:0000929c       ??_C@_03ODNJBKGA@Mar?$AA@  000000018005d29c     libucrt:nlsdata.obj
 0002:000092a0       ??_C@_03LEOLGMJP@Apr?$AA@  000000018005d2a0     libucrt:nlsdata.obj
 0002:000092a4       ??_C@_03CNMDKL@May?$AA@    000000018005d2a4     libucrt:nlsdata.obj
 0002:000092a8       ??_C@_03IDFGHECI@Jun?$AA@  000000018005d2a8     libucrt:nlsdata.obj
 0002:000092ac       ??_C@_03LBGABGKK@Jul?$AA@  000000018005d2ac     libucrt:nlsdata.obj
 0002:000092b0       ??_C@_03IFJFEIGA@Aug?$AA@  000000018005d2b0     libucrt:nlsdata.obj
 0002:000092b4       ??_C@_03GGCAPAJC@Sep?$AA@  000000018005d2b4     libucrt:nlsdata.obj
 0002:000092b8       ??_C@_03BMAOKBAD@Oct?$AA@  000000018005d2b8     libucrt:nlsdata.obj
 0002:000092bc       ??_C@_03JPJOFNIA@Nov?$AA@  000000018005d2bc     libucrt:nlsdata.obj
 0002:000092c0       ??_C@_03MKABNOCG@Dec?$AA@  000000018005d2c0     libucrt:nlsdata.obj
 0002:000092c8       ??_C@_07CGJPFGJA@January?$AA@ 000000018005d2c8     libucrt:nlsdata.obj
 0002:000092d0       ??_C@_08GNJGEPFN@February?$AA@ 000000018005d2d0     libucrt:nlsdata.obj
 0002:000092dc       ??_C@_05HPCKOFNC@March?$AA@ 000000018005d2dc     libucrt:nlsdata.obj
 0002:000092e4       ??_C@_05DMJDNLEJ@April?$AA@ 000000018005d2e4     libucrt:nlsdata.obj
 0002:000092ec       ??_C@_04CNLMGBGM@June?$AA@ 000000018005d2ec     libucrt:nlsdata.obj
 0002:000092f4       ??_C@_04MIEPOIFP@July?$AA@ 000000018005d2f4     libucrt:nlsdata.obj
 0002:000092fc       ??_C@_06LBBHFDDG@August?$AA@ 000000018005d2fc     libucrt:nlsdata.obj
 0002:00009308       ??_C@_09BHHEALKD@September?$AA@ 000000018005d308     libucrt:nlsdata.obj
 0002:00009318       ??_C@_07JJNFCEND@October?$AA@ 000000018005d318     libucrt:nlsdata.obj
 0002:00009320       ??_C@_08HCHEGEOA@November?$AA@ 000000018005d320     libucrt:nlsdata.obj
 0002:00009330       ??_C@_08EDHMEBNP@December?$AA@ 000000018005d330     libucrt:nlsdata.obj
 0002:0000933c       ??_C@_02DEDBPAFC@AM?$AA@   000000018005d33c     libucrt:nlsdata.obj
 0002:00009340       ??_C@_02CJNFDJBF@PM?$AA@   000000018005d340     libucrt:nlsdata.obj
 0002:00009348       ??_C@_08BPBNCDIB@MM?1dd?1yy?$AA@ 000000018005d348     libucrt:nlsdata.obj
 0002:00009358       ??_C@_0BE@CKGJFCPC@dddd?0?5MMMM?5dd?0?5yyyy?$AA@ 000000018005d358     libucrt:nlsdata.obj
 0002:00009370       ??_C@_08JCCMCCIL@HH?3mm?3ss?$AA@ 000000018005d370     libucrt:nlsdata.obj
 0002:00009380       ??_C@_17MBGCMIPB@?$AAS?$AAu?$AAn?$AA?$AA@ 000000018005d380     libucrt:nlsdata.obj
 0002:00009388       ??_C@_17KBOMKBF@?$AAM?$AAo?$AAn?$AA?$AA@ 000000018005d388     libucrt:nlsdata.obj
 0002:00009390       ??_C@_17BMKGEGOJ@?$AAT?$AAu?$AAe?$AA?$AA@ 000000018005d390     libucrt:nlsdata.obj
 0002:00009398       ??_C@_17CJEDCEPE@?$AAW?$AAe?$AAd?$AA?$AA@ 000000018005d398     libucrt:nlsdata.obj
 0002:000093a0       ??_C@_17PDPHAADD@?$AAT?$AAh?$AAu?$AA?$AA@ 000000018005d3a0     libucrt:nlsdata.obj
 0002:000093a8       ??_C@_17HFOLPPLP@?$AAF?$AAr?$AAi?$AA?$AA@ 000000018005d3a8     libucrt:nlsdata.obj
 0002:000093b0       ??_C@_17GGIBDPIH@?$AAS?$AAa?$AAt?$AA?$AA@ 000000018005d3b0     libucrt:nlsdata.obj
 0002:000093b8       ??_C@_1O@IHNHDHPB@?$AAS?$AAu?$AAn?$AAd?$AAa?$AAy?$AA?$AA@ 000000018005d3b8     libucrt:nlsdata.obj
 0002:000093c8       ??_C@_1O@MMNBFLIA@?$AAM?$AAo?$AAn?$AAd?$AAa?$AAy?$AA?$AA@ 000000018005d3c8     libucrt:nlsdata.obj
 0002:000093d8       ??_C@_1BA@ENFBFFEK@?$AAT?$AAu?$AAe?$AAs?$AAd?$AAa?$AAy?$AA?$AA@ 000000018005d3d8     libucrt:nlsdata.obj
 0002:000093e8       ??_C@_1BE@EBOGMDOH@?$AAW?$AAe?$AAd?$AAn?$AAe?$AAs?$AAd?$AAa?$AAy?$AA?$AA@ 000000018005d3e8     libucrt:nlsdata.obj
 0002:00009400       ??_C@_1BC@HHMNLIHE@?$AAT?$AAh?$AAu?$AAr?$AAs?$AAd?$AAa?$AAy?$AA?$AA@ 000000018005d400     libucrt:nlsdata.obj
 0002:00009418       ??_C@_1O@PDICJHAG@?$AAF?$AAr?$AAi?$AAd?$AAa?$AAy?$AA?$AA@ 000000018005d418     libucrt:nlsdata.obj
 0002:00009428       ??_C@_1BC@ENMNNPAJ@?$AAS?$AAa?$AAt?$AAu?$AAr?$AAd?$AAa?$AAy?$AA?$AA@ 000000018005d428     libucrt:nlsdata.obj
 0002:00009440       ??_C@_17DKNBKCHM@?$AAJ?$AAa?$AAn?$AA?$AA@ 000000018005d440     libucrt:nlsdata.obj
 0002:00009448       ??_C@_17LMDJEKJN@?$AAF?$AAe?$AAb?$AA?$AA@ 000000018005d448     libucrt:nlsdata.obj
 0002:00009450       ??_C@_17CKNLEDEC@?$AAM?$AAa?$AAr?$AA?$AA@ 000000018005d450     libucrt:nlsdata.obj
 0002:00009458       ??_C@_17LFPOIHDD@?$AAA?$AAp?$AAr?$AA?$AA@ 000000018005d458     libucrt:nlsdata.obj
 0002:00009460       ??_C@_17PNNKMEED@?$AAM?$AAa?$AAy?$AA?$AA@ 000000018005d460     libucrt:nlsdata.obj
 0002:00009468       ??_C@_17KCJGOCPB@?$AAJ?$AAu?$AAn?$AA?$AA@ 000000018005d468     libucrt:nlsdata.obj
 0002:00009470       ??_C@_17IJPCKHK@?$AAJ?$AAu?$AAl?$AA?$AA@ 000000018005d470     libucrt:nlsdata.obj
 0002:00009478       ??_C@_17ICPELBCN@?$AAA?$AAu?$AAg?$AA?$AA@ 000000018005d478     libucrt:nlsdata.obj
 0002:00009480       ??_C@_17HCHCOKMG@?$AAS?$AAe?$AAp?$AA?$AA@ 000000018005d480     libucrt:nlsdata.obj
 0002:00009488       ??_C@_17FNLKOI@?$AAO?$AAc?$AAt?$AA?$AA@ 000000018005d488     libucrt:nlsdata.obj
 0002:00009490       ??_C@_17BBDMLCIG@?$AAN?$AAo?$AAv?$AA?$AA@ 000000018005d490     libucrt:nlsdata.obj
 0002:00009498       ??_C@_17EGKACKIF@?$AAD?$AAe?$AAc?$AA?$AA@ 000000018005d498     libucrt:nlsdata.obj
 0002:000094a0       ??_C@_1BA@EFMEIEBA@?$AAJ?$AAa?$AAn?$AAu?$AAa?$AAr?$AAy?$AA?$AA@ 000000018005d4a0     libucrt:nlsdata.obj
 0002:000094b0       ??_C@_1BC@JGDDFFAM@?$AAF?$AAe?$AAb?$AAr?$AAu?$AAa?$AAr?$AAy?$AA?$AA@ 000000018005d4b0     libucrt:nlsdata.obj
 0002:000094c8       ??_C@_1M@IKEENEDF@?$AAM?$AAa?$AAr?$AAc?$AAh?$AA?$AA@ 000000018005d4c8     libucrt:nlsdata.obj
 0002:000094d8       ??_C@_1M@GJNLMHFD@?$AAA?$AAp?$AAr?$AAi?$AAl?$AA?$AA@ 000000018005d4d8     libucrt:nlsdata.obj
 0002:000094e8       ??_C@_19EPFLPGAP@?$AAJ?$AAu?$AAn?$AAe?$AA?$AA@ 000000018005d4e8     libucrt:nlsdata.obj
 0002:000094f8       ??_C@_19BIFMLPCD@?$AAJ?$AAu?$AAl?$AAy?$AA?$AA@ 000000018005d4f8     libucrt:nlsdata.obj
 0002:00009508       ??_C@_1O@PAHLKOAC@?$AAA?$AAu?$AAg?$AAu?$AAs?$AAt?$AA?$AA@ 000000018005d508     libucrt:nlsdata.obj
 0002:00009518       ??_C@_1BE@DKAAMBJL@?$AAS?$AAe?$AAp?$AAt?$AAe?$AAm?$AAb?$AAe?$AAr?$AA?$AA@ 000000018005d518     libucrt:nlsdata.obj
 0002:00009530       ??_C@_1BA@EPANDLNG@?$AAO?$AAc?$AAt?$AAo?$AAb?$AAe?$AAr?$AA?$AA@ 000000018005d530     libucrt:nlsdata.obj
 0002:00009540       ??_C@_1BC@BGLIFPF@?$AAN?$AAo?$AAv?$AAe?$AAm?$AAb?$AAe?$AAr?$AA?$AA@ 000000018005d540     libucrt:nlsdata.obj
 0002:00009558       ??_C@_1BC@FEMKIFH@?$AAD?$AAe?$AAc?$AAe?$AAm?$AAb?$AAe?$AAr?$AA?$AA@ 000000018005d558     libucrt:nlsdata.obj
 0002:0000956c       ??_C@_15ODEHAHHF@?$AAA?$AAM?$AA?$AA@ 000000018005d56c     libucrt:nlsdata.obj
 0002:00009574       ??_C@_15CLMNNGEL@?$AAP?$AAM?$AA?$AA@ 000000018005d574     libucrt:nlsdata.obj
 0002:00009580       ??_C@_1BC@IEBCMHCM@?$AAM?$AAM?$AA?1?$AAd?$AAd?$AA?1?$AAy?$AAy?$AA?$AA@ 000000018005d580     libucrt:nlsdata.obj
 0002:00009598       ??_C@_1CI@KNAKOEBC@?$AAd?$AAd?$AAd?$AAd?$AA?0?$AA?5?$AAM?$AAM?$AAM?$AAM?$AA?5?$AAd?$AAd?$AA?0?$AA?5?$AAy?$AAy?$AAy?$AAy?$AA?$AA@ 000000018005d598     libucrt:nlsdata.obj
 0002:000095c0       ??_C@_1BC@GDGBMEMK@?$AAH?$AAH?$AA?3?$AAm?$AAm?$AA?3?$AAs?$AAs?$AA?$AA@ 000000018005d5c0     libucrt:nlsdata.obj
 0002:000095e0       __lc_time_c                000000018005d5e0     libucrt:nlsdata.obj
 0002:00009a70       ??_C@_03KHJOGHMM@exp?$AA@  000000018005da70     libucrt:fpexcept.obj
 0002:00009a74       ??_C@_03JGHBODFD@pow?$AA@  000000018005da74     libucrt:fpexcept.obj
 0002:00009a78       ??_C@_03MGHMBJCF@log?$AA@  000000018005da78     libucrt:fpexcept.obj
 0002:00009a7c       ??_C@_05HGHHAHAP@log10?$AA@ 000000018005da7c     libucrt:fpexcept.obj
 0002:00009a84       ??_C@_04COOMCNPB@sinh?$AA@ 000000018005da84     libucrt:fpexcept.obj
 0002:00009a8c       ??_C@_04HPJJNFIM@cosh?$AA@ 000000018005da8c     libucrt:fpexcept.obj
 0002:00009a94       ??_C@_04FJHINJAO@tanh?$AA@ 000000018005da94     libucrt:fpexcept.obj
 0002:00009a9c       ??_C@_04FIHNOPOL@asin?$AA@ 000000018005da9c     libucrt:fpexcept.obj
 0002:00009aa4       ??_C@_04PDIFKINK@acos?$AA@ 000000018005daa4     libucrt:fpexcept.obj
 0002:00009aac       ??_C@_04MLLJIGOK@atan?$AA@ 000000018005daac     libucrt:fpexcept.obj
 0002:00009ab4       ??_C@_05KNGEOGJB@atan2?$AA@ 000000018005dab4     libucrt:fpexcept.obj
 0002:00009abc       ??_C@_04EIAKFFMI@sqrt?$AA@ 000000018005dabc     libucrt:fpexcept.obj
 0002:00009ac4       ??_C@_03BLEJJJBH@sin?$AA@  000000018005dac4     libucrt:fpexcept.obj
 0002:00009ac8       ??_C@_03LALBNOCG@cos?$AA@  000000018005dac8     libucrt:fpexcept.obj
 0002:00009acc       ??_C@_03IIINPABG@tan?$AA@  000000018005dacc     libucrt:fpexcept.obj
 0002:00009ad0       ??_C@_04GFPJNGEK@ceil?$AA@ 000000018005dad0     libucrt:fpexcept.obj
 0002:00009ad8       ??_C@_05PBJFFIGL@floor?$AA@ 000000018005dad8     libucrt:fpexcept.obj
 0002:00009ae0       ??_C@_04ODHECPBC@fabs?$AA@ 000000018005dae0     libucrt:fpexcept.obj
 0002:00009ae8       ??_C@_04EHEDPDJG@modf?$AA@ 000000018005dae8     libucrt:fpexcept.obj
 0002:00009af0       ??_C@_05CEJMAHNP@ldexp?$AA@ 000000018005daf0     libucrt:fpexcept.obj
 0002:00009af8       ??_C@_05KBKMEMPO@_cabs?$AA@ 000000018005daf8     libucrt:fpexcept.obj
 0002:00009b00       ??_C@_06MEIMCGCF@_hypot?$AA@ 000000018005db00     libucrt:fpexcept.obj
 0002:00009b08       ??_C@_04KEPJIHGP@fmod?$AA@ 000000018005db08     libucrt:fpexcept.obj
 0002:00009b10       ??_C@_05GKKHEGJL@frexp?$AA@ 000000018005db10     libucrt:fpexcept.obj
 0002:00009b18       ??_C@_03MJLDFKDL@_y0?$AA@  000000018005db18     libucrt:fpexcept.obj
 0002:00009b1c       ??_C@_03NAKIGLHK@_y1?$AA@  000000018005db1c     libucrt:fpexcept.obj
 0002:00009b20       ??_C@_03ONILCKOB@_yn?$AA@  000000018005db20     libucrt:fpexcept.obj
 0002:00009b24       ??_C@_05JGDBENOH@_logb?$AA@ 000000018005db24     libucrt:fpexcept.obj
 0002:00009b30       ??_C@_0L@KDOEJCKC@_nextafter?$AA@ 000000018005db30     libucrt:fpexcept.obj
 0002:00009b40       _d_inf                     000000018005db40     libucrt:util.obj
 0002:00009b48       _d_max                     000000018005db48     libucrt:util.obj
 0002:00009bf0       ??_C@_1EA@JGEFHKEI@?$AAa?$AAp?$AAi?$AA?9?$AAm?$AAs?$AA?9?$AAw?$AAi?$AAn?$AA?9?$AAc?$AAo?$AAr?$AAe?$AA?9?$AAd?$AAa?$AAt?$AAe?$AAt?$AAi?$AAm?$AAe?$AA?9?$AAl?$AA1?$AA?9?$AA1?$AA?9?$AA1?$AA?$AA@ 000000018005dbf0     libucrt:winapi_thunks.obj
 0002:00009c30       ??_C@_1DI@IJCEHOCB@?$AAa?$AAp?$AAi?$AA?9?$AAm?$AAs?$AA?9?$AAw?$AAi?$AAn?$AA?9?$AAc?$AAo?$AAr?$AAe?$AA?9?$AAf?$AAi?$AAl?$AAe?$AA?9?$AAl?$AA1?$AA?9?$AA2?$AA?9?$AA2?$AA?$AA@ 000000018005dc30     libucrt:winapi_thunks.obj
 0002:00009c70       ??_C@_1EI@MPIAOHOC@?$AAa?$AAp?$AAi?$AA?9?$AAm?$AAs?$AA?9?$AAw?$AAi?$AAn?$AA?9?$AAc?$AAo?$AAr?$AAe?$AA?9?$AAl?$AAo?$AAc?$AAa?$AAl?$AAi?$AAz?$AAa?$AAt?$AAi?$AAo?$AAn?$AA?9?$AAl?$AA1?$AA?9@ 000000018005dc70     libucrt:winapi_thunks.obj
 0002:00009cc0       ??_C@_1FK@FPHCKFIE@?$AAa?$AAp?$AAi?$AA?9?$AAm?$AAs?$AA?9?$AAw?$AAi?$AAn?$AA?9?$AAc?$AAo?$AAr?$AAe?$AA?9?$AAl?$AAo?$AAc?$AAa?$AAl?$AAi?$AAz?$AAa?$AAt?$AAi?$AAo?$AAn?$AA?9?$AAo?$AAb?$AAs@ 000000018005dcc0     libucrt:winapi_thunks.obj
 0002:00009d20       ??_C@_1EM@DILCGIIO@?$AAa?$AAp?$AAi?$AA?9?$AAm?$AAs?$AA?9?$AAw?$AAi?$AAn?$AA?9?$AAc?$AAo?$AAr?$AAe?$AA?9?$AAp?$AAr?$AAo?$AAc?$AAe?$AAs?$AAs?$AAt?$AAh?$AAr?$AAe?$AAa?$AAd?$AAs?$AA?9?$AAl@ 000000018005dd20     libucrt:winapi_thunks.obj
 0002:00009d70       ??_C@_1DM@LNCGDDPN@?$AAa?$AAp?$AAi?$AA?9?$AAm?$AAs?$AA?9?$AAw?$AAi?$AAn?$AA?9?$AAc?$AAo?$AAr?$AAe?$AA?9?$AAs?$AAt?$AAr?$AAi?$AAn?$AAg?$AA?9?$AAl?$AA1?$AA?9?$AA1?$AA?9?$AA0?$AA?$AA@ 000000018005dd70     libucrt:winapi_thunks.obj
 0002:00009db0       ??_C@_1DO@FPAPJEMD@?$AAa?$AAp?$AAi?$AA?9?$AAm?$AAs?$AA?9?$AAw?$AAi?$AAn?$AA?9?$AAc?$AAo?$AAr?$AAe?$AA?9?$AAs?$AAy?$AAs?$AAi?$AAn?$AAf?$AAo?$AA?9?$AAl?$AA1?$AA?9?$AA2?$AA?9?$AA1?$AA?$AA@ 000000018005ddb0     libucrt:winapi_thunks.obj
 0002:00009df0       ??_C@_1DK@NDHNAHIO@?$AAa?$AAp?$AAi?$AA?9?$AAm?$AAs?$AA?9?$AAw?$AAi?$AAn?$AA?9?$AAc?$AAo?$AAr?$AAe?$AA?9?$AAw?$AAi?$AAn?$AAr?$AAt?$AA?9?$AAl?$AA1?$AA?9?$AA1?$AA?9?$AA0?$AA?$AA@ 000000018005ddf0     libucrt:winapi_thunks.obj
 0002:00009e30       ??_C@_1DM@KGHDGBCM@?$AAa?$AAp?$AAi?$AA?9?$AAm?$AAs?$AA?9?$AAw?$AAi?$AAn?$AA?9?$AAc?$AAo?$AAr?$AAe?$AA?9?$AAx?$AAs?$AAt?$AAa?$AAt?$AAe?$AA?9?$AAl?$AA2?$AA?9?$AA1?$AA?9?$AA0?$AA?$AA@ 000000018005de30     libucrt:winapi_thunks.obj
 0002:00009e70       ??_C@_1EO@IJIOEFOH@?$AAa?$AAp?$AAi?$AA?9?$AAm?$AAs?$AA?9?$AAw?$AAi?$AAn?$AA?9?$AAr?$AAt?$AAc?$AAo?$AAr?$AAe?$AA?9?$AAn?$AAt?$AAu?$AAs?$AAe?$AAr?$AA?9?$AAw?$AAi?$AAn?$AAd?$AAo?$AAw?$AA?9@ 000000018005de70     libucrt:winapi_thunks.obj
 0002:00009ec0       ??_C@_1FG@HHGEKANL@?$AAa?$AAp?$AAi?$AA?9?$AAm?$AAs?$AA?9?$AAw?$AAi?$AAn?$AA?9?$AAs?$AAe?$AAc?$AAu?$AAr?$AAi?$AAt?$AAy?$AA?9?$AAs?$AAy?$AAs?$AAt?$AAe?$AAm?$AAf?$AAu?$AAn?$AAc?$AAt?$AAi@ 000000018005dec0     libucrt:winapi_thunks.obj
 0002:00009f20       ??_C@_1EG@DBIOJECG@?$AAe?$AAx?$AAt?$AA?9?$AAm?$AAs?$AA?9?$AAw?$AAi?$AAn?$AA?9?$AAn?$AAt?$AAu?$AAs?$AAe?$AAr?$AA?9?$AAd?$AAi?$AAa?$AAl?$AAo?$AAg?$AAb?$AAo?$AAx?$AA?9?$AAl?$AA1?$AA?9?$AA1@ 000000018005df20     libucrt:winapi_thunks.obj
 0002:00009f70       ??_C@_1EO@FIHMJCLF@?$AAe?$AAx?$AAt?$AA?9?$AAm?$AAs?$AA?9?$AAw?$AAi?$AAn?$AA?9?$AAn?$AAt?$AAu?$AAs?$AAe?$AAr?$AA?9?$AAw?$AAi?$AAn?$AAd?$AAo?$AAw?$AAs?$AAt?$AAa?$AAt?$AAi?$AAo?$AAn?$AA?9@ 000000018005df70     libucrt:winapi_thunks.obj
 0002:00009fc0       ??_C@_1BC@DNHGCMLG@?$AAa?$AAd?$AAv?$AAa?$AAp?$AAi?$AA3?$AA2?$AA?$AA@ 000000018005dfc0     libucrt:winapi_thunks.obj
 0002:00009fd8       ??_C@_1M@OAIMIKLP@?$AAn?$AAt?$AAd?$AAl?$AAl?$AA?$AA@ 000000018005dfd8     libucrt:winapi_thunks.obj
 0002:00009ff0       ??_C@_1EG@DPGNFKGC@?$AAa?$AAp?$AAi?$AA?9?$AAm?$AAs?$AA?9?$AAw?$AAi?$AAn?$AA?9?$AAa?$AAp?$AAp?$AAm?$AAo?$AAd?$AAe?$AAl?$AA?9?$AAr?$AAu?$AAn?$AAt?$AAi?$AAm?$AAe?$AA?9?$AAl?$AA1?$AA?9?$AA1@ 000000018005dff0     libucrt:winapi_thunks.obj
 0002:0000a038       ??_C@_1O@BCCLBEOE@?$AAu?$AAs?$AAe?$AAr?$AA3?$AA2?$AA?$AA@ 000000018005e038     libucrt:winapi_thunks.obj
 0002:0000a050       ??_C@_0BA@FHFNEAED@AreFileApisANSI?$AA@ 000000018005e050     libucrt:winapi_thunks.obj
 0002:0000a070       ??_C@_0BE@LJANKFHF@EnumSystemLocalesEx?$AA@ 000000018005e070     libucrt:winapi_thunks.obj
 0002:0000a0b0       ??_C@_0BA@HNOPNCHB@GetActiveWindow?$AA@ 000000018005e0b0     libucrt:winapi_thunks.obj
 0002:0000a0c8       ??_C@_0BA@EPCJIIPD@GetDateFormatEx?$AA@ 000000018005e0c8     libucrt:winapi_thunks.obj
 0002:0000a0e0       ??_C@_0BD@HHGDFDBJ@GetLastActivePopup?$AA@ 000000018005e0e0     libucrt:winapi_thunks.obj
 0002:0000a108       ??_C@_0BI@DFKBFLJE@GetProcessWindowStation?$AA@ 000000018005e108     libucrt:winapi_thunks.obj
 0002:0000a128       ??_C@_0BA@CIJJKCJJ@GetTimeFormatEx?$AA@ 000000018005e128     libucrt:winapi_thunks.obj
 0002:0000a140       ??_C@_0BJ@PBCCBIPI@GetUserDefaultLocaleName?$AA@ 000000018005e140     libucrt:winapi_thunks.obj
 0002:0000a168       ??_C@_0BK@DEKFELLI@GetUserObjectInformationW?$AA@ 000000018005e168     libucrt:winapi_thunks.obj
 0002:0000a198       ??_C@_0BC@CELBKLLA@IsValidLocaleName?$AA@ 000000018005e198     libucrt:winapi_thunks.obj
 0002:0000a1c0       ??_C@_0BB@CDHDDLLP@LCIDToLocaleName?$AA@ 000000018005e1c0     libucrt:winapi_thunks.obj
 0002:0000a1e0       ??_C@_0BB@HBDEELFH@LocaleNameToLCID?$AA@ 000000018005e1e0     libucrt:winapi_thunks.obj
 0002:0000a200       ??_C@_0M@CHKKJDAI@MessageBoxA?$AA@ 000000018005e200     libucrt:winapi_thunks.obj
 0002:0000a218       ??_C@_0M@DLDCCGNP@MessageBoxW?$AA@ 000000018005e218     libucrt:winapi_thunks.obj
 0002:0000a228       ??_C@_0CF@OJOFEIGO@AppPolicyGetProcessTerminationMe@ 000000018005e228     libucrt:winapi_thunks.obj
 0002:0000a258       ??_C@_0CE@OICFMIKE@AppPolicyGetShowDeveloperDiagnos@ 000000018005e258     libucrt:winapi_thunks.obj
 0002:0000a280       ??_C@_0BL@ODDJNEDA@AppPolicyGetWindowingModel?$AA@ 000000018005e280     libucrt:winapi_thunks.obj
 0002:0000a2a0       __log_256_lead             000000018005e2a0     libucrt:log_256_lead_tail_table.obj
 0002:0000aab0       __log_256_tail             000000018005eab0     libucrt:log_256_lead_tail_table.obj
 0002:0000b2c0       __two_to_jby64_head_table  000000018005f2c0     libucrt:two_to_jby64_head_tail_table.obj
 0002:0000b4c0       __two_to_jby64_tail_table  000000018005f4c0     libucrt:two_to_jby64_head_tail_table.obj
 0002:0000b6c0       ??_C@_04MBFDLNIM@powf?$AA@ 000000018005f6c0     libucrt:pow_special.obj
 0002:0000b6d0       __two_to_jby64_table       000000018005f6d0     libucrt:two_to_jby64_table.obj
 0002:0000b8d0       __log_F_inv_qword          000000018005f8d0     libucrt:log_f_inv_qword_table.obj
 0002:0000c100       ??_C@_01GBGANLPD@0?$AA@    0000000180060100     libucrt:cfout.obj
 0002:0000c104       ??_C@_05DNEBIAHO@1?$CDINF?$AA@ 0000000180060104     libucrt:cfout.obj
 0002:0000c10c       ??_C@_06IMKFLFPG@1?$CDQNAN?$AA@ 000000018006010c     libucrt:cfout.obj
 0002:0000c114       ??_C@_06PGGFOGJG@1?$CDSNAN?$AA@ 0000000180060114     libucrt:cfout.obj
 0002:0000c11c       ??_C@_05PHHOCPM@1?$CDIND?$AA@ 000000018006011c     libucrt:cfout.obj
 0002:0000c128       ??_C@_1BC@LLOKLNP@?$AAa?$AAm?$AAe?$AAr?$AAi?$AAc?$AAa?$AAn?$AA?$AA@ 0000000180060128     libucrt:get_qualified_locale.obj
 0002:0000c140       ??_C@_1CC@HEIGCDGG@?$AAa?$AAm?$AAe?$AAr?$AAi?$AAc?$AAa?$AAn?$AA?5?$AAe?$AAn?$AAg?$AAl?$AAi?$AAs?$AAh?$AA?$AA@ 0000000180060140     libucrt:get_qualified_locale.obj
 0002:0000c168       ??_C@_1CC@IHCNOMIN@?$AAa?$AAm?$AAe?$AAr?$AAi?$AAc?$AAa?$AAn?$AA?9?$AAe?$AAn?$AAg?$AAl?$AAi?$AAs?$AAh?$AA?$AA@ 0000000180060168     libucrt:get_qualified_locale.obj
 0002:0000c190       ??_C@_1BG@GKAGPCGG@?$AAa?$AAu?$AAs?$AAt?$AAr?$AAa?$AAl?$AAi?$AAa?$AAn?$AA?$AA@ 0000000180060190     libucrt:get_qualified_locale.obj
 0002:0000c1a8       ??_C@_1BA@GMENCENF@?$AAb?$AAe?$AAl?$AAg?$AAi?$AAa?$AAn?$AA?$AA@ 00000001800601a8     libucrt:get_qualified_locale.obj
 0002:0000c1b8       ??_C@_1BC@PJMIIAAN@?$AAc?$AAa?$AAn?$AAa?$AAd?$AAi?$AAa?$AAn?$AA?$AA@ 00000001800601b8     libucrt:get_qualified_locale.obj
 0002:0000c1d0       ??_C@_17NOIMNFBF@?$AAc?$AAh?$AAh?$AA?$AA@ 00000001800601d0     libucrt:get_qualified_locale.obj
 0002:0000c1d8       ??_C@_17GGDALCHA@?$AAc?$AAh?$AAi?$AA?$AA@ 00000001800601d8     libucrt:get_qualified_locale.obj
 0002:0000c1e0       ??_C@_1BA@NPNJKIBL@?$AAc?$AAh?$AAi?$AAn?$AAe?$AAs?$AAe?$AA?$AA@ 00000001800601e0     libucrt:get_qualified_locale.obj
 0002:0000c1f0       ??_C@_1CC@DINBAMMJ@?$AAc?$AAh?$AAi?$AAn?$AAe?$AAs?$AAe?$AA?9?$AAh?$AAo?$AAn?$AAg?$AAk?$AAo?$AAn?$AAg?$AA?$AA@ 00000001800601f0     libucrt:get_qualified_locale.obj
 0002:0000c218       ??_C@_1CG@IOBJPACO@?$AAc?$AAh?$AAi?$AAn?$AAe?$AAs?$AAe?$AA?9?$AAs?$AAi?$AAm?$AAp?$AAl?$AAi?$AAf?$AAi?$AAe?$AAd?$AA?$AA@ 0000000180060218     libucrt:get_qualified_locale.obj
 0002:0000c240       ??_C@_1CE@GAJNDCKG@?$AAc?$AAh?$AAi?$AAn?$AAe?$AAs?$AAe?$AA?9?$AAs?$AAi?$AAn?$AAg?$AAa?$AAp?$AAo?$AAr?$AAe?$AA?$AA@ 0000000180060240     libucrt:get_qualified_locale.obj
 0002:0000c268       ??_C@_1CI@PAJPIOOD@?$AAc?$AAh?$AAi?$AAn?$AAe?$AAs?$AAe?$AA?9?$AAt?$AAr?$AAa?$AAd?$AAi?$AAt?$AAi?$AAo?$AAn?$AAa?$AAl?$AA?$AA@ 0000000180060268     libucrt:get_qualified_locale.obj
 0002:0000c290       ??_C@_1BM@NILJBMMD@?$AAd?$AAu?$AAt?$AAc?$AAh?$AA?9?$AAb?$AAe?$AAl?$AAg?$AAi?$AAa?$AAn?$AA?$AA@ 0000000180060290     libucrt:get_qualified_locale.obj
 0002:0000c2b0       ??_C@_1CC@OOJPJNEJ@?$AAe?$AAn?$AAg?$AAl?$AAi?$AAs?$AAh?$AA?9?$AAa?$AAm?$AAe?$AAr?$AAi?$AAc?$AAa?$AAn?$AA?$AA@ 00000001800602b0     libucrt:get_qualified_locale.obj
 0002:0000c2d8       ??_C@_1BI@IOLFEEM@?$AAe?$AAn?$AAg?$AAl?$AAi?$AAs?$AAh?$AA?9?$AAa?$AAu?$AAs?$AA?$AA@ 00000001800602d8     libucrt:get_qualified_locale.obj
 0002:0000c2f0       ??_C@_1BO@HFFNLENJ@?$AAe?$AAn?$AAg?$AAl?$AAi?$AAs?$AAh?$AA?9?$AAb?$AAe?$AAl?$AAi?$AAz?$AAe?$AA?$AA@ 00000001800602f0     libucrt:get_qualified_locale.obj
 0002:0000c310       ??_C@_1BI@HAPKJMPO@?$AAe?$AAn?$AAg?$AAl?$AAi?$AAs?$AAh?$AA?9?$AAc?$AAa?$AAn?$AA?$AA@ 0000000180060310     libucrt:get_qualified_locale.obj
 0002:0000c328       ??_C@_1CE@HLNDMIOJ@?$AAe?$AAn?$AAg?$AAl?$AAi?$AAs?$AAh?$AA?9?$AAc?$AAa?$AAr?$AAi?$AAb?$AAb?$AAe?$AAa?$AAn?$AA?$AA@ 0000000180060328     libucrt:get_qualified_locale.obj
 0002:0000c350       ??_C@_1BI@LDHJHHAC@?$AAe?$AAn?$AAg?$AAl?$AAi?$AAs?$AAh?$AA?9?$AAi?$AAr?$AAe?$AA?$AA@ 0000000180060350     libucrt:get_qualified_locale.obj
 0002:0000c368       ??_C@_1CA@NJMMCFOC@?$AAe?$AAn?$AAg?$AAl?$AAi?$AAs?$AAh?$AA?9?$AAj?$AAa?$AAm?$AAa?$AAi?$AAc?$AAa?$AA?$AA@ 0000000180060368     libucrt:get_qualified_locale.obj
 0002:0000c388       ??_C@_1BG@BHJEBBGG@?$AAe?$AAn?$AAg?$AAl?$AAi?$AAs?$AAh?$AA?9?$AAn?$AAz?$AA?$AA@ 0000000180060388     libucrt:get_qualified_locale.obj
 0002:0000c3a0       ??_C@_1CK@FGOEJJCO@?$AAe?$AAn?$AAg?$AAl?$AAi?$AAs?$AAh?$AA?9?$AAs?$AAo?$AAu?$AAt?$AAh?$AA?5?$AAa?$AAf?$AAr?$AAi?$AAc?$AAa?$AA?$AA@ 00000001800603a0     libucrt:get_qualified_locale.obj
 0002:0000c3d0       ??_C@_1DE@PDBJPCJ@?$AAe?$AAn?$AAg?$AAl?$AAi?$AAs?$AAh?$AA?9?$AAt?$AAr?$AAi?$AAn?$AAi?$AAd?$AAa?$AAd?$AA?5?$AAy?$AA?5?$AAt?$AAo?$AAb?$AAa?$AAg?$AAo?$AA?$AA@ 00000001800603d0     libucrt:get_qualified_locale.obj
 0002:0000c408       ??_C@_1BG@JGCANDME@?$AAe?$AAn?$AAg?$AAl?$AAi?$AAs?$AAh?$AA?9?$AAu?$AAk?$AA?$AA@ 0000000180060408     libucrt:get_qualified_locale.obj
 0002:0000c420       ??_C@_1BG@DINKMLE@?$AAe?$AAn?$AAg?$AAl?$AAi?$AAs?$AAh?$AA?9?$AAu?$AAs?$AA?$AA@ 0000000180060420     libucrt:get_qualified_locale.obj
 0002:0000c438       ??_C@_1BI@NMFDBHJE@?$AAe?$AAn?$AAg?$AAl?$AAi?$AAs?$AAh?$AA?9?$AAu?$AAs?$AAa?$AA?$AA@ 0000000180060438     libucrt:get_qualified_locale.obj
 0002:0000c450       ??_C@_1BO@OIHKJKII@?$AAf?$AAr?$AAe?$AAn?$AAc?$AAh?$AA?9?$AAb?$AAe?$AAl?$AAg?$AAi?$AAa?$AAn?$AA?$AA@ 0000000180060450     libucrt:get_qualified_locale.obj
 0002:0000c470       ??_C@_1CA@NKAELJKI@?$AAf?$AAr?$AAe?$AAn?$AAc?$AAh?$AA?9?$AAc?$AAa?$AAn?$AAa?$AAd?$AAi?$AAa?$AAn?$AA?$AA@ 0000000180060470     libucrt:get_qualified_locale.obj
 0002:0000c490       ??_C@_1CE@MGKCNLGN@?$AAf?$AAr?$AAe?$AAn?$AAc?$AAh?$AA?9?$AAl?$AAu?$AAx?$AAe?$AAm?$AAb?$AAo?$AAu?$AAr?$AAg?$AA?$AA@ 0000000180060490     libucrt:get_qualified_locale.obj
 0002:0000c4b8       ??_C@_1BK@CEGEAILM@?$AAf?$AAr?$AAe?$AAn?$AAc?$AAh?$AA?9?$AAs?$AAw?$AAi?$AAs?$AAs?$AA?$AA@ 00000001800604b8     libucrt:get_qualified_locale.obj
 0002:0000c4d8       ??_C@_1CA@PAFKEOCC@?$AAg?$AAe?$AAr?$AAm?$AAa?$AAn?$AA?9?$AAa?$AAu?$AAs?$AAt?$AAr?$AAi?$AAa?$AAn?$AA?$AA@ 00000001800604d8     libucrt:get_qualified_locale.obj
 0002:0000c4f8       ??_C@_1CI@HCFHGOFD@?$AAg?$AAe?$AAr?$AAm?$AAa?$AAn?$AA?9?$AAl?$AAi?$AAc?$AAh?$AAt?$AAe?$AAn?$AAs?$AAt?$AAe?$AAi?$AAn?$AA?$AA@ 00000001800604f8     libucrt:get_qualified_locale.obj
 0002:0000c520       ??_C@_1CE@FEDDNPDG@?$AAg?$AAe?$AAr?$AAm?$AAa?$AAn?$AA?9?$AAl?$AAu?$AAx?$AAe?$AAm?$AAb?$AAo?$AAu?$AAr?$AAg?$AA?$AA@ 0000000180060520     libucrt:get_qualified_locale.obj
 0002:0000c548       ??_C@_1BK@LIMINNMN@?$AAg?$AAe?$AAr?$AAm?$AAa?$AAn?$AA?9?$AAs?$AAw?$AAi?$AAs?$AAs?$AA?$AA@ 0000000180060548     libucrt:get_qualified_locale.obj
 0002:0000c568       ??_C@_1BM@LGMDBEPD@?$AAi?$AAr?$AAi?$AAs?$AAh?$AA?9?$AAe?$AAn?$AAg?$AAl?$AAi?$AAs?$AAh?$AA?$AA@ 0000000180060568     libucrt:get_qualified_locale.obj
 0002:0000c588       ??_C@_1BM@NNCFBAEE@?$AAi?$AAt?$AAa?$AAl?$AAi?$AAa?$AAn?$AA?9?$AAs?$AAw?$AAi?$AAs?$AAs?$AA?$AA@ 0000000180060588     libucrt:get_qualified_locale.obj
 0002:0000c5a8       ??_C@_1BE@FEDJNPIB@?$AAn?$AAo?$AAr?$AAw?$AAe?$AAg?$AAi?$AAa?$AAn?$AA?$AA@ 00000001800605a8     libucrt:get_qualified_locale.obj
 0002:0000c5c0       ??_C@_1CC@CILKDEIE@?$AAn?$AAo?$AAr?$AAw?$AAe?$AAg?$AAi?$AAa?$AAn?$AA?9?$AAb?$AAo?$AAk?$AAm?$AAa?$AAl?$AA?$AA@ 00000001800605c0     libucrt:get_qualified_locale.obj
 0002:0000c5e8       ??_C@_1CE@DHMMHEPL@?$AAn?$AAo?$AAr?$AAw?$AAe?$AAg?$AAi?$AAa?$AAn?$AA?9?$AAn?$AAy?$AAn?$AAo?$AAr?$AAs?$AAk?$AA?$AA@ 00000001800605e8     libucrt:get_qualified_locale.obj
 0002:0000c610       ??_C@_1CK@OPNMHECD@?$AAp?$AAo?$AAr?$AAt?$AAu?$AAg?$AAu?$AAe?$AAs?$AAe?$AA?9?$AAb?$AAr?$AAa?$AAz?$AAi?$AAl?$AAi?$AAa?$AAn?$AA?$AA@ 0000000180060610     libucrt:get_qualified_locale.obj
 0002:0000c640       ??_C@_1CE@KEEHCDB@?$AAs?$AAp?$AAa?$AAn?$AAi?$AAs?$AAh?$AA?9?$AAa?$AAr?$AAg?$AAe?$AAn?$AAt?$AAi?$AAn?$AAa?$AA?$AA@ 0000000180060640     libucrt:get_qualified_locale.obj
 0002:0000c668       ??_C@_1CA@GIAOLHJD@?$AAs?$AAp?$AAa?$AAn?$AAi?$AAs?$AAh?$AA?9?$AAb?$AAo?$AAl?$AAi?$AAv?$AAi?$AAa?$AA?$AA@ 0000000180060668     libucrt:get_qualified_locale.obj
 0002:0000c688       ??_C@_1BM@OJNDFNPD@?$AAs?$AAp?$AAa?$AAn?$AAi?$AAs?$AAh?$AA?9?$AAc?$AAh?$AAi?$AAl?$AAe?$AA?$AA@ 0000000180060688     libucrt:get_qualified_locale.obj
 0002:0000c6a8       ??_C@_1CC@OCOLPALL@?$AAs?$AAp?$AAa?$AAn?$AAi?$AAs?$AAh?$AA?9?$AAc?$AAo?$AAl?$AAo?$AAm?$AAb?$AAi?$AAa?$AA?$AA@ 00000001800606a8     libucrt:get_qualified_locale.obj
 0002:0000c6d0       ??_C@_1CG@BPOFMKBB@?$AAs?$AAp?$AAa?$AAn?$AAi?$AAs?$AAh?$AA?9?$AAc?$AAo?$AAs?$AAt?$AAa?$AA?5?$AAr?$AAi?$AAc?$AAa?$AA?$AA@ 00000001800606d0     libucrt:get_qualified_locale.obj
 0002:0000c6f8       ??_C@_1DG@IGOBAPBB@?$AAs?$AAp?$AAa?$AAn?$AAi?$AAs?$AAh?$AA?9?$AAd?$AAo?$AAm?$AAi?$AAn?$AAi?$AAc?$AAa?$AAn?$AA?5?$AAr?$AAe?$AAp?$AAu?$AAb?$AAl?$AAi?$AAc?$AA?$AA@ 00000001800606f8     libucrt:get_qualified_locale.obj
 0002:0000c730       ??_C@_1CA@JHAPGEGI@?$AAs?$AAp?$AAa?$AAn?$AAi?$AAs?$AAh?$AA?9?$AAe?$AAc?$AAu?$AAa?$AAd?$AAo?$AAr?$AA?$AA@ 0000000180060730     libucrt:get_qualified_locale.obj
 0002:0000c750       ??_C@_1CI@LAPALJPP@?$AAs?$AAp?$AAa?$AAn?$AAi?$AAs?$AAh?$AA?9?$AAe?$AAl?$AA?5?$AAs?$AAa?$AAl?$AAv?$AAa?$AAd?$AAo?$AAr?$AA?$AA@ 0000000180060750     libucrt:get_qualified_locale.obj
 0002:0000c778       ??_C@_1CE@PDGBOFOM@?$AAs?$AAp?$AAa?$AAn?$AAi?$AAs?$AAh?$AA?9?$AAg?$AAu?$AAa?$AAt?$AAe?$AAm?$AAa?$AAl?$AAa?$AA?$AA@ 0000000180060778     libucrt:get_qualified_locale.obj
 0002:0000c7a0       ??_C@_1CC@NBEBAODI@?$AAs?$AAp?$AAa?$AAn?$AAi?$AAs?$AAh?$AA?9?$AAh?$AAo?$AAn?$AAd?$AAu?$AAr?$AAa?$AAs?$AA?$AA@ 00000001800607a0     libucrt:get_qualified_locale.obj
 0002:0000c7c8       ??_C@_1CA@LLKGHBMF@?$AAs?$AAp?$AAa?$AAn?$AAi?$AAs?$AAh?$AA?9?$AAm?$AAe?$AAx?$AAi?$AAc?$AAa?$AAn?$AA?$AA@ 00000001800607c8     libucrt:get_qualified_locale.obj
 0002:0000c7e8       ??_C@_1BO@LKNDOIGD@?$AAs?$AAp?$AAa?$AAn?$AAi?$AAs?$AAh?$AA?9?$AAm?$AAo?$AAd?$AAe?$AAr?$AAn?$AA?$AA@ 00000001800607e8     libucrt:get_qualified_locale.obj
 0002:0000c808       ??_C@_1CE@NMDMOEEB@?$AAs?$AAp?$AAa?$AAn?$AAi?$AAs?$AAh?$AA?9?$AAn?$AAi?$AAc?$AAa?$AAr?$AAa?$AAg?$AAu?$AAa?$AA?$AA@ 0000000180060808     libucrt:get_qualified_locale.obj
 0002:0000c830       ??_C@_1BO@LLCBEJGB@?$AAs?$AAp?$AAa?$AAn?$AAi?$AAs?$AAh?$AA?9?$AAp?$AAa?$AAn?$AAa?$AAm?$AAa?$AA?$AA@ 0000000180060830     libucrt:get_qualified_locale.obj
 0002:0000c850       ??_C@_1CC@FKPGGIHO@?$AAs?$AAp?$AAa?$AAn?$AAi?$AAs?$AAh?$AA?9?$AAp?$AAa?$AAr?$AAa?$AAg?$AAu?$AAa?$AAy?$AA?$AA@ 0000000180060850     libucrt:get_qualified_locale.obj
 0002:0000c878       ??_C@_1BK@CDEIHOOP@?$AAs?$AAp?$AAa?$AAn?$AAi?$AAs?$AAh?$AA?9?$AAp?$AAe?$AAr?$AAu?$AA?$AA@ 0000000180060878     libucrt:get_qualified_locale.obj
 0002:0000c898       ??_C@_1CI@GAHAKKGP@?$AAs?$AAp?$AAa?$AAn?$AAi?$AAs?$AAh?$AA?9?$AAp?$AAu?$AAe?$AAr?$AAt?$AAo?$AA?5?$AAr?$AAi?$AAc?$AAo?$AA?$AA@ 0000000180060898     libucrt:get_qualified_locale.obj
 0002:0000c8c0       ??_C@_1CA@NKJBCAGP@?$AAs?$AAp?$AAa?$AAn?$AAi?$AAs?$AAh?$AA?9?$AAu?$AAr?$AAu?$AAg?$AAu?$AAa?$AAy?$AA?$AA@ 00000001800608c0     libucrt:get_qualified_locale.obj
 0002:0000c8e0       ??_C@_1CE@ODILCONM@?$AAs?$AAp?$AAa?$AAn?$AAi?$AAs?$AAh?$AA?9?$AAv?$AAe?$AAn?$AAe?$AAz?$AAu?$AAe?$AAl?$AAa?$AA?$AA@ 00000001800608e0     libucrt:get_qualified_locale.obj
 0002:0000c908       ??_C@_1CA@OBNMCGFO@?$AAs?$AAw?$AAe?$AAd?$AAi?$AAs?$AAh?$AA?9?$AAf?$AAi?$AAn?$AAl?$AAa?$AAn?$AAd?$AA?$AA@ 0000000180060908     libucrt:get_qualified_locale.obj
 0002:0000c928       ??_C@_1M@PIPDDPPI@?$AAs?$AAw?$AAi?$AAs?$AAs?$AA?$AA@ 0000000180060928     libucrt:get_qualified_locale.obj
 0002:0000c934       ??_C@_15GMFIMNFM@?$AAu?$AAs?$AA?$AA@ 0000000180060934     libucrt:get_qualified_locale.obj
 0002:0000c940       ??_C@_17HAEBFAGL@?$AAu?$AAs?$AAa?$AA?$AA@ 0000000180060940     libucrt:get_qualified_locale.obj
 0002:0000c948       ??_C@_1BA@DPFJEPHB@?$AAa?$AAm?$AAe?$AAr?$AAi?$AAc?$AAa?$AA?$AA@ 0000000180060948     libucrt:get_qualified_locale.obj
 0002:0000c958       ??_C@_1BA@ELOGGFK@?$AAb?$AAr?$AAi?$AAt?$AAa?$AAi?$AAn?$AA?$AA@ 0000000180060958     libucrt:get_qualified_locale.obj
 0002:0000c968       ??_C@_1M@GHBGIGDA@?$AAc?$AAh?$AAi?$AAn?$AAa?$AA?$AA@ 0000000180060968     libucrt:get_qualified_locale.obj
 0002:0000c978       ??_C@_1M@NCHEJOPO@?$AAc?$AAz?$AAe?$AAc?$AAh?$AA?$AA@ 0000000180060978     libucrt:get_qualified_locale.obj
 0002:0000c988       ??_C@_1BA@BKPAPBLA@?$AAe?$AAn?$AAg?$AAl?$AAa?$AAn?$AAd?$AA?$AA@ 0000000180060988     libucrt:get_qualified_locale.obj
 0002:0000c998       ??_C@_1BM@HKBCKIPC@?$AAg?$AAr?$AAe?$AAa?$AAt?$AA?5?$AAb?$AAr?$AAi?$AAt?$AAa?$AAi?$AAn?$AA?$AA@ 0000000180060998     libucrt:get_qualified_locale.obj
 0002:0000c9b8       ??_C@_1BA@PPCHPGJB@?$AAh?$AAo?$AAl?$AAl?$AAa?$AAn?$AAd?$AA?$AA@ 00000001800609b8     libucrt:get_qualified_locale.obj
 0002:0000c9c8       ??_C@_1BE@JBMPEGDG@?$AAh?$AAo?$AAn?$AAg?$AA?9?$AAk?$AAo?$AAn?$AAg?$AA?$AA@ 00000001800609c8     libucrt:get_qualified_locale.obj
 0002:0000c9e0       ??_C@_1BI@KOELBBPJ@?$AAn?$AAe?$AAw?$AA?9?$AAz?$AAe?$AAa?$AAl?$AAa?$AAn?$AAd?$AA?$AA@ 00000001800609e0     libucrt:get_qualified_locale.obj
 0002:0000c9f8       ??_C@_15HIEBHAIO@?$AAn?$AAz?$AA?$AA@ 00000001800609f8     libucrt:get_qualified_locale.obj
 0002:0000ca00       ??_C@_1BC@CHBCPFPI@?$AAp?$AAr?$AA?5?$AAc?$AAh?$AAi?$AAn?$AAa?$AA?$AA@ 0000000180060a00     libucrt:get_qualified_locale.obj
 0002:0000ca18       ??_C@_1BC@JAOIIFKD@?$AAp?$AAr?$AA?9?$AAc?$AAh?$AAi?$AAn?$AAa?$AA?$AA@ 0000000180060a18     libucrt:get_qualified_locale.obj
 0002:0000ca30       ??_C@_1BI@BEHPPHKC@?$AAp?$AAu?$AAe?$AAr?$AAt?$AAo?$AA?9?$AAr?$AAi?$AAc?$AAo?$AA?$AA@ 0000000180060a30     libucrt:get_qualified_locale.obj
 0002:0000ca48       ??_C@_1O@PAEOFKDI@?$AAs?$AAl?$AAo?$AAv?$AAa?$AAk?$AA?$AA@ 0000000180060a48     libucrt:get_qualified_locale.obj
 0002:0000ca58       ??_C@_1BK@FIHMCKAM@?$AAs?$AAo?$AAu?$AAt?$AAh?$AA?5?$AAa?$AAf?$AAr?$AAi?$AAc?$AAa?$AA?$AA@ 0000000180060a58     libucrt:get_qualified_locale.obj
 0002:0000ca78       ??_C@_1BI@NAEOODKB@?$AAs?$AAo?$AAu?$AAt?$AAh?$AA?5?$AAk?$AAo?$AAr?$AAe?$AAa?$AA?$AA@ 0000000180060a78     libucrt:get_qualified_locale.obj
 0002:0000ca90       ??_C@_1BK@FBDGGIFF@?$AAs?$AAo?$AAu?$AAt?$AAh?$AA?9?$AAa?$AAf?$AAr?$AAi?$AAc?$AAa?$AA?$AA@ 0000000180060a90     libucrt:get_qualified_locale.obj
 0002:0000cab0       ??_C@_1BI@GHLEJDPK@?$AAs?$AAo?$AAu?$AAt?$AAh?$AA?9?$AAk?$AAo?$AAr?$AAe?$AAa?$AA?$AA@ 0000000180060ab0     libucrt:get_qualified_locale.obj
 0002:0000cac8       ??_C@_1CE@PLHLOMJF@?$AAt?$AAr?$AAi?$AAn?$AAi?$AAd?$AAa?$AAd?$AA?5?$AA?$CG?$AA?5?$AAt?$AAo?$AAb?$AAa?$AAg?$AAo?$AA?$AA@ 0000000180060ac8     libucrt:get_qualified_locale.obj
 0002:0000caf0       ??_C@_1BO@MODIMHHI@?$AAu?$AAn?$AAi?$AAt?$AAe?$AAd?$AA?9?$AAk?$AAi?$AAn?$AAg?$AAd?$AAo?$AAm?$AA?$AA@ 0000000180060af0     libucrt:get_qualified_locale.obj
 0002:0000cb10       ??_C@_1BM@FFHJONBJ@?$AAu?$AAn?$AAi?$AAt?$AAe?$AAd?$AA?9?$AAs?$AAt?$AAa?$AAt?$AAe?$AAs?$AA?$AA@ 0000000180060b10     libucrt:get_qualified_locale.obj
 0002:0000cb30       __acrt_rg_language         0000000180060b30     libucrt:get_qualified_locale.obj
 0002:0000cf40       __acrt_rg_language_count   0000000180060f40     libucrt:get_qualified_locale.obj
 0002:0000cf50       __acrt_rg_country          0000000180060f50     libucrt:get_qualified_locale.obj
 0002:0000d0c0       __acrt_rg_country_count    00000001800610c0     libucrt:get_qualified_locale.obj
 0002:0000d0c8       ??_C@_17DNCLJFIF@?$AAA?$AAC?$AAP?$AA?$AA@ 00000001800610c8     libucrt:get_qualified_locale.obj
 0002:0000d0d0       ??_C@_17CIKBIHLH@?$AAO?$AAC?$AAP?$AA?$AA@ 00000001800610d0     libucrt:get_qualified_locale.obj
 0002:0000d0d8       __rglangidNotDefault       00000001800610d8     libucrt:getqloc_downlevel.obj
 0002:0000efd0       __log10_256_lead           0000000180062fd0     libucrt:log10_256_lead_tail_table.obj
 0002:0000f7e0       __log10_256_tail           00000001800637e0     libucrt:log10_256_lead_tail_table.obj
 0002:0000ffe8       ??_C@_1BA@BALFACEM@?$AAC?$AAO?$AAN?$AAO?$AAU?$AAT?$AA$?$AA?$AA@ 0000000180063fe8     libucrt:initcon.obj
 0002:0000fff8       ??_C@_1BK@DBDEIDLH@?$AAK?$AAE?$AAR?$AAN?$AAE?$AAL?$AA3?$AA2?$AA?4?$AAD?$AAL?$AAL?$AA?$AA@ 0000000180063ff8     DelayImp:delayhlp.obj
 0002:00010018       __pfnDliFailureHook2       0000000180064018     DelayImp:delayhk1.obj
 0002:00010020       _load_config_used          0000000180064020     LIBCMT:loadcfg.obj
 0002:00010118       ??_C@_0BC@BDKFLDHL@unknown?5exception?$AA@ 0000000180064118     njsOracle.obj
 0002:00010130       ??_C@_1DG@OKCGPKIB@?$AAp?$AAe?$AAr?$AAs?$AAi?$AAs?$AAt?$AAe?$AAn?$AAt?$AA?$CI?$AA?$CJ?$AA?4?$AAI?$AAs?$AAN?$AAe?$AAa?$AAr?$AAD?$AAe?$AAa?$AAt?$AAh?$AA?$CI?$AA?$CJ?$AA?$AA@ 0000000180064130     njsOracle.obj
 0002:00010168       ??_C@_1CO@EGNPJLKI@?$AAp?$AAe?$AAr?$AAs?$AAi?$AAs?$AAt?$AAe?$AAn?$AAt?$AA?$CI?$AA?$CJ?$AA?4?$AAI?$AAs?$AAE?$AAm?$AAp?$AAt?$AAy?$AA?$CI?$AA?$CJ?$AA?$AA@ 0000000180064168     njsOracle.obj
 0002:00010198       ??_C@_1DA@FBGAEOIO@?$AA?$CB?$AAp?$AAe?$AAr?$AAs?$AAi?$AAs?$AAt?$AAe?$AAn?$AAt?$AA?$CI?$AA?$CJ?$AA?4?$AAI?$AAs?$AAE?$AAm?$AAp?$AAt?$AAy?$AA?$CI?$AA?$CJ?$AA?$AA@ 0000000180064198     njsOracle.obj
 0002:000101c8       ??_C@_1CO@JCKLEFMA@?$AA?$CB?$AAp?$AAe?$AAr?$AAs?$AAi?$AAs?$AAt?$AAe?$AAn?$AAt?$AA?$CI?$AA?$CJ?$AA?4?$AAI?$AAs?$AAW?$AAe?$AAa?$AAk?$AA?$CI?$AA?$CJ?$AA?$AA@ 00000001800641c8     njsOracle.obj
 0002:000101f8       ??_C@_1BE@GMLLOIPJ@?$AAr?$AAe?$AAf?$AAs?$AA_?$AA?5?$AA?$DO?$AA?5?$AA0?$AA?$AA@ 00000001800641f8     njsOracle.obj
 0002:00010210       ??_C@_1CC@GBFLAAPF@?$AAw?$AAr?$AAa?$AAp?$AA?9?$AA?$DO?$AAr?$AAe?$AAf?$AAs?$AA_?$AA?5?$AA?$DN?$AA?$DN?$AA?5?$AA0?$AA?$AA@ 0000000180064210     njsOracle.obj
 0002:00010238       ??_C@_0BA@ELKIONDK@bad?5locale?5name?$AA@ 0000000180064238     njsOracle.obj
 0002:00010248       ??_C@_05LAPONLG@false?$AA@ 0000000180064248     njsOracle.obj
 0002:00010250       ??_C@_04LOAJBDKD@true?$AA@ 0000000180064250     njsOracle.obj
 0002:00010255       ??_C@_00CNPNBAHC@?$AA@     0000000180064255     njsOracle.obj
 0002:00010258       ??_C@_02LMMGGCAJ@?3?5?$AA@ 0000000180064258     njsOracle.obj
 0002:00010260       ??_C@_08LLGCOLLL@iostream?$AA@ 0000000180064260     njsOracle.obj
 0002:00010270       ??_C@_0BG@PADBLCHM@iostream?5stream?5error?$AA@ 0000000180064270     njsOracle.obj
 0002:00010288       ??_C@_0BF@PHHKMMFD@ios_base?3?3badbit?5set?$AA@ 0000000180064288     njsOracle.obj
 0002:000102a0       ??_C@_0BG@FMKFHCIL@ios_base?3?3failbit?5set?$AA@ 00000001800642a0     njsOracle.obj
 0002:000102b8       ??_C@_0BF@OOHOMBOF@ios_base?3?3eofbit?5set?$AA@ 00000001800642b8     njsOracle.obj
 0002:000102d0       ??_C@_0BA@JFNIOLAK@string?5too?5long?$AA@ 00000001800642d0     njsOracle.obj
 0002:000102e0       ??_C@_1ME@CGPDFFLL@?$AAc?$AA?3?$AA?2?$AAu?$AAs?$AAe?$AAr?$AAs?$AA?2?$AAn?$AAh?$AAo?$AAx?$AA_?$AA?2?$AAd?$AAe?$AAs?$AAk?$AAt?$AAo?$AAp?$AA?2?$AAt?$AAl?$AAc?$AAn?$AA?2?$AAs?$AAt?$AAu?$AAd@ 00000001800642e0     njsOracle.obj
 0002:000103b0       ??_C@_1FK@CBGIJHDF@?$AAv?$AAa?$AAl?$AAu?$AAe?$AA?4?$AAs?$AAi?$AAz?$AAe?$AA?$CI?$AA?$CJ?$AA?5?$AA?$DM?$AA?$DN?$AA?5?$AAI?$AAN?$AAT?$AA_?$AAM?$AAA?$AAX?$AA?5?$AA?$CG?$AA?$CG?$AA?5?$AA?$CC?$AAs?$AAt?$AAr?$AAi@ 00000001800643b0     njsOracle.obj
 0002:00010410       ??_C@_1LA@DGNBGGBO@?$AAc?$AA?3?$AA?2?$AAu?$AAs?$AAe?$AAr?$AAs?$AA?2?$AAn?$AAh?$AAo?$AAx?$AA_?$AA?2?$AAd?$AAe?$AAs?$AAk?$AAt?$AAo?$AAp?$AA?2?$AAt?$AAl?$AAc?$AAn?$AA?2?$AAs?$AAt?$AAu?$AAd@ 0000000180064410     njsOracle.obj
 0002:000104c0       ??_C@_1EC@MGGLMBLC@?$AAo?$AAb?$AAj?$AAe?$AAc?$AAt?$AA?9?$AA?$DO?$AAI?$AAn?$AAt?$AAe?$AAr?$AAn?$AAa?$AAl?$AAF?$AAi?$AAe?$AAl?$AAd?$AAC?$AAo?$AAu?$AAn?$AAt?$AA?$CI?$AA?$CJ?$AA?5?$AA?$DO?$AA?5?$AA0@ 00000001800644c0     njsOracle.obj
 0002:00010508       ??_C@_1DI@ELDBKNAK@?$AAw?$AAr?$AAa?$AAp?$AA?9?$AA?$DO?$AAh?$AAa?$AAn?$AAd?$AAl?$AAe?$AA_?$AA?4?$AAI?$AAs?$AAN?$AAe?$AAa?$AAr?$AAD?$AAe?$AAa?$AAt?$AAh?$AA?$CI?$AA?$CJ?$AA?$AA@ 0000000180064508     njsOracle.obj
 0002:00010540       ??_C@_03MCPBMLDJ@?5?3?5?$AA@ 0000000180064540     njsOracle.obj
 0002:00010548       ??_C@_0O@HGNEKDAO@node?9oracledb?$AA@ 0000000180064548     njsOracle.obj
 0002:00010558       ??_C@_01LFCBOECM@?4?$AA@   0000000180064558     njsOracle.obj
 0002:00010560       ??_C@_08BNCGHMGL@Oracledb?$AA@ 0000000180064560     njsOracle.obj
 0002:00010570       ??_C@_0O@GICFJCLP@getConnection?$AA@ 0000000180064570     njsOracle.obj
 0002:00010580       ??_C@_0L@DEMMGFLI@createPool?$AA@ 0000000180064580     njsOracle.obj
 0002:00010590       ??_C@_07CJJOHIMA@poolMax?$AA@ 0000000180064590     njsOracle.obj
 0002:00010598       ??_C@_07DLBFJMKP@poolMin?$AA@ 0000000180064598     njsOracle.obj
 0002:000105a0       ??_C@_0O@CEEKNGK@poolIncrement?$AA@ 00000001800645a0     njsOracle.obj
 0002:000105b0       ??_C@_0M@KJCBBGHI@poolTimeout?$AA@ 00000001800645b0     njsOracle.obj
 0002:000105c0       ??_C@_0O@MCOBCHKC@stmtCacheSize?$AA@ 00000001800645c0     njsOracle.obj
 0002:000105d0       ??_C@_0N@GLFJDLAP@prefetchRows?$AA@ 00000001800645d0     njsOracle.obj
 0002:000105e0       ??_C@_0L@JJDMGLON@autoCommit?$AA@ 00000001800645e0     njsOracle.obj
 0002:000105f0       ??_C@_0BB@NCBAEODJ@extendedMetaData?$AA@ 00000001800645f0     njsOracle.obj
 0002:00010608       ??_C@_07GPLJHCBP@maxRows?$AA@ 0000000180064608     njsOracle.obj
 0002:00010610       ??_C@_09DINGKNNM@outFormat?$AA@ 0000000180064610     njsOracle.obj
 0002:00010620       ??_C@_07CPCPJPKL@version?$AA@ 0000000180064620     njsOracle.obj
 0002:00010628       ??_C@_0BA@GPOPFKB@connectionClass?$AA@ 0000000180064628     njsOracle.obj
 0002:00010638       ??_C@_0N@DGEJBIKB@externalAuth?$AA@ 0000000180064638     njsOracle.obj
 0002:00010648       ??_C@_0O@KBLMAIHK@fetchAsString?$AA@ 0000000180064648     njsOracle.obj
 0002:00010658       ??_C@_0O@FNKKGEEE@fetchAsBuffer?$AA@ 0000000180064658     njsOracle.obj
 0002:00010668       ??_C@_0BA@NCMFLOHA@lobPrefetchSize?$AA@ 0000000180064668     njsOracle.obj
 0002:00010678       ??_C@_0BE@HLPLDCII@oracleClientVersion?$AA@ 0000000180064678     njsOracle.obj
 0002:00010690       ??_C@_0BB@GCCMNFHO@poolPingInterval?$AA@ 0000000180064690     njsOracle.obj
 0002:000106a8       ??_C@_0BB@BBCNNNEI@pingPoolInterval?$AA@ 00000001800646a8     njsOracle.obj
 0002:000106bc       ??_C@_04CCHAHKJA@user?$AA@ 00000001800646bc     njsOracle.obj
 0002:000106c8       ??_C@_08NLHBPEGP@password?$AA@ 00000001800646c8     njsOracle.obj
 0002:000106d8       ??_C@_0O@GBMHGACH@connectString?$AA@ 00000001800646d8     njsOracle.obj
 0002:000106e8       ??_C@_0O@KFEBOKGH@GetConnection?$AA@ 00000001800646e8     njsOracle.obj
 0002:000106f8       ??_C@_0O@BEGDKJHM@uv_queue_work?$AA@ 00000001800646f8     njsOracle.obj
 0002:00010708       ??_C@_0L@LCFAOKGP@CreatePool?$AA@ 0000000180064708     njsOracle.obj
 0002:00010718       ??_C@_0BN@CPKFGOJG@?4?4?2src?2njs?2src?2njsOracle?4cpp?$AA@ 0000000180064718     njsOracle.obj
 0002:00010738       ??_C@_08JPNHPOMI@oracledb?$AA@ 0000000180064738     njsOracle.obj
 0002:00010744       ??_C@_02BBAHNLBA@?$CFp?$AA@ 0000000180064744     njsOracle.obj
 0002:00010748       ??_C@_02MDKMJEGG@eE?$AA@   0000000180064748     njsOracle.obj
 0002:0001074c       ??_C@_02OOPEBDOJ@pP?$AA@   000000018006474c     njsOracle.obj
 0002:00010750       ??_C@_0BI@CFPLBAOH@invalid?5string?5position?$AA@ 0000000180064750     njsOracle.obj
 0002:00010768       ??_C@_1CE@LNAGEONJ@?$AA?$CB?$AAo?$AAb?$AAj?$AAe?$AAc?$AAt?$AA?4?$AAI?$AAs?$AAE?$AAm?$AAp?$AAt?$AAy?$AA?$CI?$AA?$CJ?$AA?$AA@ 0000000180064768     njsOracle.obj
 0002:00010790       ??_7?$basic_streambuf@DU?$char_traits@D@std@@@std@@6B@ 0000000180064790     njsOracle.obj
 0002:00010808       ??_7_Iostream_error_category@std@@6B@ 0000000180064808     njsOracle.obj
 0002:00010838       ??_7ios_base@std@@6B@      0000000180064838     njsOracle.obj
 0002:00010840       ??_8?$basic_stringstream@DU?$char_traits@D@std@@V?$allocator@D@2@@std@@7B?$basic_ostream@DU?$char_traits@D@std@@@1@@ 0000000180064840     njsOracle.obj
 0002:00010848       ??_7?$basic_ios@DU?$char_traits@D@std@@@std@@6B@ 0000000180064848     njsOracle.obj
 0002:00010850       ??_7Oracledb@@6B@          0000000180064850     njsOracle.obj
 0002:00010868       ??_7?$basic_iostream@DU?$char_traits@D@std@@@std@@6B@ 0000000180064868     njsOracle.obj
 0002:00010870       ??_7exception@stdext@@6B@  0000000180064870     njsOracle.obj
 0002:00010888       ??_7?$basic_stringbuf@DU?$char_traits@D@std@@V?$allocator@D@2@@std@@6B@ 0000000180064888     njsOracle.obj
 0002:00010900       ??_7?$basic_stringstream@DU?$char_traits@D@std@@V?$allocator@D@2@@std@@6B@ 0000000180064900     njsOracle.obj
 0002:00010908       ??_7?$basic_istream@DU?$char_traits@D@std@@@std@@6B@ 0000000180064908     njsOracle.obj
 0002:00010910       ??_7ObjectWrap@Nan@@6B@    0000000180064910     njsOracle.obj
 0002:00010928       ??_8?$basic_stringstream@DU?$char_traits@D@std@@V?$allocator@D@2@@std@@7B?$basic_istream@DU?$char_traits@D@std@@@1@@ 0000000180064928     njsOracle.obj
 0002:00010930       ??_7?$basic_ostream@DU?$char_traits@D@std@@@std@@6B@ 0000000180064930     njsOracle.obj
 0002:00010938       ??_7failure@ios_base@std@@6B@ 0000000180064938     njsOracle.obj
 0002:00010950       ??_C@_04OIEIIIMK@Pool?$AA@ 0000000180064950     njsPool.obj
 0002:00010958       ??_C@_09DACGJFPO@terminate?$AA@ 0000000180064958     njsPool.obj
 0002:00010968       ??_C@_0BA@ILIHCEPM@connectionsOpen?$AA@ 0000000180064968     njsPool.obj
 0002:00010978       ??_C@_0BB@EBFGKEIN@connectionsInUse?$AA@ 0000000180064978     njsPool.obj
 0002:00010990       ??_C@_09HPHLJGCO@Terminate?$AA@ 0000000180064990     njsPool.obj
 0002:000109a0       ??_7Pool@@6B@              00000001800649a0     njsPool.obj
 0002:000109c0       ??_C@_1JI@BGIJGII@?$AAC?$AA?3?$AA?2?$AAU?$AAs?$AAe?$AAr?$AAs?$AA?2?$AAn?$AAh?$AAo?$AAx?$AA_?$AA?2?$AAD?$AAe?$AAs?$AAk?$AAt?$AAo?$AAp?$AA?2?$AAT?$AAL?$AAC?$AAN?$AA?2?$AAS?$AAt?$AAu?$AAd@ 00000001800649c0     njsConnection.obj
 0002:00010a60       ??_C@_1FM@LOELJOFK@?$AAs?$AAi?$AAz?$AAe?$AA?5?$AA?$DM?$AA?$DN?$AA?5?$AAi?$AAm?$AAp?$AA?3?$AA?3?$AAk?$AAM?$AAa?$AAx?$AAL?$AAe?$AAn?$AAg?$AAt?$AAh?$AA?5?$AA?$CG?$AA?$CG?$AA?5?$AA?$CC?$AAt?$AAo?$AAo?$AA?5@ 0000000180064a60     njsConnection.obj
 0002:00010ac0       ??_C@_0L@PJJKMLL@Connection?$AA@ 0000000180064ac0     njsConnection.obj
 0002:00010ad0       ??_C@_07EMGJIMLB@execute?$AA@ 0000000180064ad0     njsConnection.obj
 0002:00010ad8       ??_C@_07EOGFDLKI@release?$AA@ 0000000180064ad8     njsConnection.obj
 0002:00010ae0       ??_C@_06IFNEBLAJ@commit?$AA@ 0000000180064ae0     njsConnection.obj
 0002:00010ae8       ??_C@_08FBLICIPL@rollback?$AA@ 0000000180064ae8     njsConnection.obj
 0002:00010af4       ??_C@_05ELPHFHOI@break?$AA@ 0000000180064af4     njsConnection.obj
 0002:00010b00       ??_C@_09EJNJPPHA@createLob?$AA@ 0000000180064b00     njsConnection.obj
 0002:00010b10       ??_C@_08BMOJCBA@clientId?$AA@ 0000000180064b10     njsConnection.obj
 0002:00010b1c       ??_C@_06BIEEJMKO@module?$AA@ 0000000180064b1c     njsConnection.obj
 0002:00010b24       ??_C@_06DDLLCOJG@action?$AA@ 0000000180064b24     njsConnection.obj
 0002:00010b30       ??_C@_0BE@FLLIGNEJ@oracleServerVersion?$AA@ 0000000180064b30     njsConnection.obj
 0002:00010b48       ??_C@_07LFBPOOOH@Execute?$AA@ 0000000180064b48     njsConnection.obj
 0002:00010b50       ??_C@_09MLCBPDGD@resultSet?$AA@ 0000000180064b50     njsConnection.obj
 0002:00010b60       ??_C@_09IALOBJIC@fetchInfo?$AA@ 0000000180064b60     njsConnection.obj
 0002:00010b6c       ??_C@_04GPMDFGEJ@type?$AA@ 0000000180064b6c     njsConnection.obj
 0002:00010b74       ??_C@_01JLIPDDHJ@?3?$AA@   0000000180064b74     njsConnection.obj
 0002:00010b78       ??_C@_03DAPAKLGM@dir?$AA@  0000000180064b78     njsConnection.obj
 0002:00010b80       ??_C@_07GDPCCCPH@maxSize?$AA@ 0000000180064b80     njsConnection.obj
 0002:00010b88       ??_C@_03BALCFKBP@val?$AA@  0000000180064b88     njsConnection.obj
 0002:00010b90       ??_C@_0N@HGIHOFAC@maxArraySize?$AA@ 0000000180064b90     njsConnection.obj
 0002:00010ba0       ??_C@_04GIHNHPGD@iLob?$AA@ 0000000180064ba0     njsConnection.obj
 0002:00010ba8       ??_C@_09KHNPILMG@DoDefines?$AA@ 0000000180064ba8     njsConnection.obj
 0002:00010bb8       ??_C@_08JNCPAJPH@default?3?$AA@ 0000000180064bb8     njsConnection.obj
 0002:00010bc4       ??_C@_04IMCGAIPI@rows?$AA@ 0000000180064bc4     njsConnection.obj
 0002:00010bd0       ??_C@_08CADMLJEK@outBinds?$AA@ 0000000180064bd0     njsConnection.obj
 0002:00010be0       ??_C@_0N@KAPCDOFA@rowsAffected?$AA@ 0000000180064be0     njsConnection.obj
 0002:00010bf0       ??_C@_08PGKJPPDP@metaData?$AA@ 0000000180064bf0     njsConnection.obj
 0002:00010bfc       ??_C@_04MEMAJGDJ@name?$AA@ 0000000180064bfc     njsConnection.obj
 0002:00010c08       ??_C@_09DHEEBCNP@fetchType?$AA@ 0000000180064c08     njsConnection.obj
 0002:00010c14       ??_C@_06MPIJJHIJ@dbType?$AA@ 0000000180064c14     njsConnection.obj
 0002:00010c20       ??_C@_08OABDNNOP@byteSize?$AA@ 0000000180064c20     njsConnection.obj
 0002:00010c30       ??_C@_09HJGOLHNF@precision?$AA@ 0000000180064c30     njsConnection.obj
 0002:00010c3c       ??_C@_05MHMEBBGO@scale?$AA@ 0000000180064c3c     njsConnection.obj
 0002:00010c48       ??_C@_08DGPNALPA@nullable?$AA@ 0000000180064c48     njsConnection.obj
 0002:00010c58       ??_C@_07LHBDFJPO@Release?$AA@ 0000000180064c58     njsConnection.obj
 0002:00010c60       ??_C@_06EKGJCCJF@Commit?$AA@ 0000000180064c60     njsConnection.obj
 0002:00010c68       ??_C@_08NDEJKKFI@Rollback?$AA@ 0000000180064c68     njsConnection.obj
 0002:00010c74       ??_C@_05EMFLFCNO@Break?$AA@ 0000000180064c74     njsConnection.obj
 0002:00010c80       ??_C@_09GIEPMKA@CreateLob?$AA@ 0000000180064c80     njsConnection.obj
 0002:00010c8c       ??_C@_06GPFDNHLC@newLob?$AA@ 0000000180064c8c     njsConnection.obj
 0002:00010c98       ??_C@_0BD@OLBABOEK@vector?$DMT?$DO?5too?5long?$AA@ 0000000180064c98     njsConnection.obj
 0002:00010cb0       ??_7Connection@@6B@        0000000180064cb0     njsConnection.obj
 0002:00010cc8       ??_C@_09IEHMPALD@ResultSet?$AA@ 0000000180064cc8     njsResultSet.obj
 0002:00010cd4       ??_C@_05LBOHBHFK@close?$AA@ 0000000180064cd4     njsResultSet.obj
 0002:00010cdc       ??_C@_06DKBICOAJ@getRow?$AA@ 0000000180064cdc     njsResultSet.obj
 0002:00010ce8       ??_C@_07HNPEIKLP@getRows?$AA@ 0000000180064ce8     njsResultSet.obj
 0002:00010cf0       ??_C@_0O@BENJIPMF@GetRowsCommon?$AA@ 0000000180064cf0     njsResultSet.obj
 0002:00010d00       ??_C@_0P@CLHDOECI@ResultSetClose?$AA@ 0000000180064d00     njsResultSet.obj
 0002:00010d10       ??_7ResultSet@@6B@         0000000180064d10     njsResultSet.obj
 0002:00010d28       ??_C@_0BB@EBPPLLMA@NJS?9000?3?5success?$AA@ 0000000180064d28     njsMessages.obj
 0002:00010d40       ??_C@_0CN@EAPPLFIE@NJS?9001?3?5expected?5callback?5as?5la@ 0000000180064d40     njsMessages.obj
 0002:00010d70       ??_C@_0BG@CPODOMNC@NJS?9002?3?5invalid?5pool?$AA@ 0000000180064d70     njsMessages.obj
 0002:00010d88       ??_C@_0BM@JFAMIHMB@NJS?9003?3?5invalid?5connection?$AA@ 0000000180064d88     njsMessages.obj
 0002:00010da8       ??_C@_0CH@LDFPEIAC@NJS?9004?3?5invalid?5value?5for?5prope@ 0000000180064da8     njsMessages.obj
 0002:00010dd0       ??_C@_0CI@LJKIPLLG@NJS?9005?3?5invalid?5value?5for?5param@ 0000000180064dd0     njsMessages.obj
 0002:00010df8       ??_C@_0CH@LNEBGLBI@NJS?9006?3?5invalid?5type?5for?5parame@ 0000000180064df8     njsMessages.obj
 0002:00010e20       ??_C@_0DA@LLNCMIBF@NJS?9007?3?5invalid?5value?5for?5?$CC?$CFs?$CC?5@ 0000000180064e20     njsMessages.obj
 0002:00010e50       ??_C@_0CP@IGIOFNIJ@NJS?9008?3?5invalid?5type?5for?5?$CC?$CFs?$CC?5i@ 0000000180064e50     njsMessages.obj
 0002:00010e80       ??_C@_0CG@NEDBOLL@NJS?9009?3?5invalid?5number?5of?5param@ 0000000180064e80     njsMessages.obj
 0002:00010ea8       ??_C@_0CO@NPMIEIEG@NJS?9010?3?5unsupported?5data?5type?5i@ 0000000180064ea8     njsMessages.obj
 0002:00010ee0       ??_C@_0EC@NNFBKLIL@NJS?9011?3?5encountered?5bind?5value?5@ 0000000180064ee0     njsMessages.obj
 0002:00010f28       ??_C@_0DM@ODFBBPME@NJS?9012?3?5encountered?5invalid?5bin@ 0000000180064f28     njsMessages.obj
 0002:00010f68       ??_C@_0CA@BACDJBHC@NJS?9013?3?5invalid?5bind?5direction?$AA@ 0000000180064f68     njsMessages.obj
 0002:00010f88       ??_C@_0CE@JHOFBEHB@NJS?9014?3?5?$CFs?5is?5a?5read?9only?5prope@ 0000000180064f88     njsMessages.obj
 0002:00010fb0       ??_C@_0CP@JOOECMDP@NJS?9015?3?5type?5was?5not?5specified?5@ 0000000180064fb0     njsMessages.obj
 0002:00010fe0       ??_C@_0CL@LPGLEDEI@NJS?9016?3?5buffer?5is?5too?5small?5for@ 0000000180064fe0     njsMessages.obj
 0002:00011010       ??_C@_0DM@BJIOPMLG@NJS?9017?3?5concurrent?5operations?5o@ 0000000180065010     njsMessages.obj
 0002:00011050       ??_C@_0BL@KIHNNALH@NJS?9018?3?5invalid?5ResultSet?$AA@ 0000000180065050     njsMessages.obj
 0002:00011070       ??_C@_0DP@HMGLKLNL@NJS?9019?3?5ResultSet?5cannot?5be?5ret@ 0000000180065070     njsMessages.obj
 0002:000110b0       ??_C@_0DN@GENKDPOG@NJS?9020?3?5empty?5array?5was?5specifi@ 00000001800650b0     njsMessages.obj
 0002:000110f0       ??_C@_0CP@EDPFAMJK@NJS?9021?3?5invalid?5type?5for?5conver@ 00000001800650f0     njsMessages.obj
 0002:00011120       ??_C@_0BF@EAGHGEHI@NJS?9022?3?5invalid?5Lob?$AA@ 0000000180065120     njsMessages.obj
 0002:00011138       ??_C@_0DI@FLAMFHCO@NJS?9023?3?5concurrent?5operations?5o@ 0000000180065138     njsMessages.obj
 0002:00011170       ??_C@_0CC@HFOJMIAK@NJS?9024?3?5memory?5allocation?5faile@ 0000000180065170     njsMessages.obj
 0002:00011198       ??_C@_0DI@IOFJHOEH@NJS?9025?3?5overflow?5when?5calculati@ 0000000180065198     njsMessages.obj
 0002:000111d0       ??_C@_0CL@CJKMEINN@NJS?9026?3?5maxRows?5must?5be?5greater@ 00000001800651d0     njsMessages.obj
 0002:00011200       ??_C@_0CG@GKLPAPFN@NJS?9027?3?5unexpected?5SQL?5parsing?5@ 0000000180065200     njsMessages.obj
 0002:00011230       ??_C@_0EK@HKOEANNA@NJS?9028?3?5RAW?5database?5type?5is?5no@ 0000000180065230     njsMessages.obj
 0002:00011280       ??_C@_0CI@GNLLBCJN@NJS?9029?3?5invalid?5object?5from?5Jav@ 0000000180065280     njsMessages.obj
 0002:000112b0       ??_C@_0EO@LBKHOOCH@NJS?9030?3?5connection?5cannot?5be?5re@ 00000001800652b0     njsMessages.obj
 0002:00011300       ??_C@_0FE@IIHCGNKK@NJS?9031?3?5connection?5cannot?5be?5re@ 0000000180065300     njsMessages.obj
 0002:00011360       ??_C@_0EO@IIBEDJAF@NJS?9032?3?5connection?5cannot?5be?5re@ 0000000180065360     njsMessages.obj
 0002:000113b0       ??_C@_0CO@BBIFBNCF@NJS?9033?3?5an?5internal?5error?5occur@ 00000001800653b0     njsMessages.obj
 0002:000113e0       ??_C@_0DB@LPMKGDAI@NJS?9034?3?5data?5type?5is?5unsupporte@ 00000001800653e0     njsMessages.obj
 0002:00011418       ??_C@_0DI@GIABIGIA@NJS?9035?3?5maxArraySize?5is?5require@ 0000000180065418     njsMessages.obj
 0002:00011450       ??_C@_0DK@CJKKNDFP@NJS?9036?3?5given?5array?5is?5of?5size?5@ 0000000180065450     njsMessages.obj
 0002:00011490       ??_C@_0DL@OEKBIKCP@NJS?9037?3?5invalid?5data?5type?5at?5ar@ 0000000180065490     njsMessages.obj
 0002:000114d0       ??_C@_0DI@IPDIHFKI@NJS?9038?3?5maxArraySize?5value?5shou@ 00000001800654d0     njsMessages.obj
 0002:00011508       ??_C@_0DA@MGPCJFHJ@NJS?9039?3?5empty?5array?5is?5not?5allo@ 0000000180065508     njsMessages.obj
 0002:00011538       ??_C@_0CE@LNNNGBGB@NJS?9040?3?5connection?5request?5time@ 0000000180065538     njsMessages.obj
 0002:00011560       ??_C@_0EI@HKOKPOIO@NJS?9041?3?5cannot?5convert?5ResultSe@ 0000000180065560     njsMessages.obj
 0002:000115b0       ??_C@_0EJ@EGFNABEI@NJS?9042?3?5cannot?5invoke?5ResultSet@ 00000001800655b0     njsMessages.obj
 0002:00011600       ??_C@_0DE@NMIFCHOP@NJS?9043?3?5ResultSet?5already?5conve@ 0000000180065600     njsMessages.obj
 0002:00011638       ??_C@_0DL@HIIGKHG@NJS?9044?3?5named?5JSON?5object?5is?5no@ 0000000180065638     njsMessages.obj
 0002:00011678       ??_C@_0DA@OIEKOIC@NJS?9045?3?5cannot?5load?5the?5oracled@ 0000000180065678     njsMessages.obj
 0002:000116b0       ??_C@_0EF@ICDLGKFG@NJS?9046?3?5pool?5alias?5?$CC?$CFs?$CC?5already@ 00000001800656b0     njsMessages.obj
 0002:00011700       ??_C@_0EA@DLMJKHLN@NJS?9047?3?5pool?5alias?5?$CC?$CFs?$CC?5not?5fou@ 0000000180065700     njsMessages.obj
 0002:00011740       ??_C@_0FA@FJJJFLHM@NJS?9048?3?5operation?5not?5permitted@ 0000000180065740     njsMessages.obj
 0002:00011790       ??_C@_0EB@NEBCGMKM@NJS?9049?3?5Temporary?5LOBs?5were?5ope@ 0000000180065790     njsMessages.obj
 0002:000117d8       ??_C@_0CG@LOIBHGAO@NJS?9050?3?5data?5must?5be?5shorter?5th@ 00000001800657d8     njsMessages.obj
 0002:00011800       ??_C@_0CD@OHMJLAHD@NJS?9051?3?5?$CC?$CFs?$CC?5must?5be?5less?5than?5@ 0000000180065800     njsMessages.obj
 0002:00011830       ??_C@_0EC@NMPEHBDL@NJS?9052?3?5invalid?5data?5type?5at?5ar@ 0000000180065830     njsMessages.obj
 0002:00011a28       __pfnDliNotifyHook2        0000000180065a28     win_delay_load_hook.obj
 0002:00011a80       ??_C@_04KJLMFAGH@ILob?$AA@ 0000000180065a80     njsIntLob.obj
 0002:00011a88       ??_C@_04POLDLDMI@read?$AA@ 0000000180065a88     njsIntLob.obj
 0002:00011a90       ??_C@_05NGFEDHGN@write?$AA@ 0000000180065a90     njsIntLob.obj
 0002:00011a98       ??_C@_09OEGFCDGF@chunkSize?$AA@ 0000000180065a98     njsIntLob.obj
 0002:00011aa4       ??_C@_06IJDLPEM@length?$AA@ 0000000180065aa4     njsIntLob.obj
 0002:00011ab0       ??_C@_09BIOBDMFG@pieceSize?$AA@ 0000000180065ab0     njsIntLob.obj
 0002:00011abc       ??_C@_06KLHHMIGM@offset?$AA@ 0000000180065abc     njsIntLob.obj
 0002:00011ac8       ??_C@_0N@PFFDGBBL@autoCloseLob?$AA@ 0000000180065ac8     njsIntLob.obj
 0002:00011ad8       ??_C@_05HDPIMK@valid?$AA@  0000000180065ad8     njsIntLob.obj
 0002:00011ae0       ??_C@_08MMMELIKJ@LobClose?$AA@ 0000000180065ae0     njsIntLob.obj
 0002:00011af0       ??_C@_07NKICPBEH@LobRead?$AA@ 0000000180065af0     njsIntLob.obj
 0002:00011af8       ??_C@_08KLHHJIJO@LobWrite?$AA@ 0000000180065af8     njsIntLob.obj
 0002:00011b08       ??_7ILob@@6B@              0000000180065b08     njsIntLob.obj
 0002:00011b20       ??_7Env@dpi@@6B@           0000000180065b20     dpiEnv.obj
 0002:00011bd0       ??_7EnvImpl@@6B@           0000000180065bd0     dpiEnvImpl.obj
 0002:00011ca8       ??_7ExceptionImpl@@6B@     0000000180065ca8     dpiEnvImpl.obj
 0002:00011cd0       ??_7Exception@dpi@@6B@     0000000180065cd0     dpiEnvImpl.obj
 0002:00011cf8       ??_C@_07CIFAGBMG@unknown?$AA@ 0000000180065cf8     dpiExceptionImpl.obj
 0002:00011d00       ??_C@_0N@FKKFHCIB@not?5an?5error?$AA@ 0000000180065d00     dpiExceptionImpl.obj
 0002:00011d10       ??_C@_0P@LPIEGNHB@internal?5error?$AA@ 0000000180065d10     dpiExceptionImpl.obj
 0002:00011d20       ??_C@_0CA@EGKFLPDP@could?5not?5get?5OCI?5error?5message?$AA@ 0000000180065d20     dpiExceptionImpl.obj
 0002:00011d40       ??_C@_0CC@DONOAHM@no?5OCI?5environment?5handle?5create@ 0000000180065d40     dpiExceptionImpl.obj
 0002:00011d68       ??_C@_0CL@NBAEMACC@invalid?5state?5while?5working?5with@ 0000000180065d68     dpiExceptionImpl.obj
 0002:00011d98       ??_C@_0DB@DLEOEFBD@uninitialized?5state?5while?5workin@ 0000000180065d98     dpiExceptionImpl.obj
 0002:00011dd0       ??_C@_0EH@IBENPCCD@user?5and?5password?5should?5not?5be?5@ 0000000180065dd0     dpiExceptionImpl.obj
 0002:00011e18       ??_C@_0CB@DEGMBPIK@invalid?5OCI?5handle?5or?5descriptor@ 0000000180065e18     dpiExceptionImpl.obj
 0002:00011e40       ??_C@_0BJ@FDBIHNP@memory?5allocation?5failed?$AA@ 0000000180065e40     dpiExceptionImpl.obj
 0002:00011e60       ??_C@_0BG@COLCDFLN@unexpected?5NULL?5value?$AA@ 0000000180065e60     dpiExceptionImpl.obj
 0002:00011e78       ??_C@_03IHMKDFHF@DPI?$AA@  0000000180065e78     dpiExceptionImpl.obj
 0002:00011e7c       ??_C@_01JOAMLHOP@?9?$AA@   0000000180065e7c     dpiExceptionImpl.obj
 0002:00011e80       ??_C@_0M@LMACPLJG@TIME_2_PING?$AA@ 0000000180065e80     dpiConnImpl.obj
 0002:00011e90       ??_7Conn@dpi@@6B@          0000000180065e90     dpiConnImpl.obj
 0002:00011f38       ??_7ConnImpl@@6B@          0000000180065f38     dpiConnImpl.obj
 0002:00011fe8       ??_C@_06GOMJDJGK@?$CL00?300?$AA@ 0000000180065fe8     dpiDateTimeArrayImpl.obj
 0002:00011ff0       ??_7DateTimeArrayImpl@dpi@@6B@ 0000000180065ff0     dpiDateTimeArrayImpl.obj
 0002:00012018       ??_7DateTimeArray@dpi@@6B@ 0000000180066018     dpiDateTimeArrayImpl.obj
 0002:00012040       ??_7SPool@dpi@@6B@         0000000180066040     dpiPoolImpl.obj
 0002:00012070       ??_7PoolImpl@@6B@          0000000180066070     dpiPoolImpl.obj
 0002:000120b8       ??_7Stmt@dpi@@6B@          00000001800660b8     dpiStmtImpl.obj
 0002:00012138       ??_7StmtImpl@@6B@          0000000180066138     dpiStmtImpl.obj
 0002:000121b8       ??_C@_03JLJGOMBC@ORA?$AA@  00000001800661b8     dpiUtils.obj
 0002:000121c0       ??_C@_08HCOMDCCD@iojs?4exe?$AA@ 00000001800661c0     win_delay_load_hook.obj
 0002:000121d0       ??_C@_08JDDNMFDB@node?4exe?$AA@ 00000001800661d0     win_delay_load_hook.obj
 0002:00012d70       __real@3ff0000000000000    0000000180066d70     njsIntLob.obj
 0002:00012d78       __real@408f400000000000    0000000180066d78     dpiDateTimeArrayImpl.obj
 0002:00012d80       __real@40ed4c0000000000    0000000180066d80     dpiDateTimeArrayImpl.obj
 0002:00012d88       __real@412e848000000000    0000000180066d88     dpiDateTimeArrayImpl.obj
 0002:00012d90       __real@414b774000000000    0000000180066d90     dpiDateTimeArrayImpl.obj
 0002:00012d98       __real@4194997000000000    0000000180066d98     dpiDateTimeArrayImpl.obj
 0002:00012da0       __real@4202a05f20000000    0000000180066da0     njsOracle.obj
 0002:00012da8       __real@43e0000000000000    0000000180066da8     njsIntLob.obj
 0002:00012db0       __real@43f0000000000000    0000000180066db0     njsIntLob.obj
 0002:00012dc0       __xmm@000000000000000f0000000000000000 0000000180066dc0     njsOracle.obj
 0002:00012dd0       __xmm@7fffffffffffffff7fffffffffffffff 0000000180066dd0     njsOracle.obj
 0002:000145d8       _tls_used                  00000001800685d8     LIBCMT:tlssup.obj
 0002:00014600       ??_R4exception@std@@6B@    0000000180068600     libcpmt:xonce.obj
 0002:00014628       ??_R3exception@std@@8      0000000180068628     libcpmt:xonce.obj
 0002:00014640       ??_R2exception@std@@8      0000000180068640     libcpmt:xonce.obj
 0002:00014650       ??_R1A@?0A@EA@exception@std@@8 0000000180068650     libcpmt:xonce.obj
 0002:00014678       ??_R4runtime_error@std@@6B@ 0000000180068678     libcpmt:xonce.obj
 0002:000146a0       ??_R3runtime_error@std@@8  00000001800686a0     libcpmt:xonce.obj
 0002:000146b8       ??_R2runtime_error@std@@8  00000001800686b8     libcpmt:xonce.obj
 0002:000146d0       ??_R1A@?0A@EA@runtime_error@std@@8 00000001800686d0     libcpmt:xonce.obj
 0002:000146f8       ??_R4_System_error@std@@6B@ 00000001800686f8     libcpmt:xonce.obj
 0002:00014720       ??_R3_System_error@std@@8  0000000180068720     libcpmt:xonce.obj
 0002:00014738       ??_R2_System_error@std@@8  0000000180068738     libcpmt:xonce.obj
 0002:00014758       ??_R1A@?0A@EA@_System_error@std@@8 0000000180068758     libcpmt:xonce.obj
 0002:00014780       ??_R4_Facet_base@std@@6B@  0000000180068780     libcpmt:locale0.obj
 0002:000147a8       ??_R3_Facet_base@std@@8    00000001800687a8     libcpmt:locale0.obj
 0002:000147c0       ??_R2_Facet_base@std@@8    00000001800687c0     libcpmt:locale0.obj
 0002:000147d0       ??_R1A@?0A@EA@_Facet_base@std@@8 00000001800687d0     libcpmt:locale0.obj
 0002:000147f8       ??_R4_Locimp@locale@std@@6B@ 00000001800687f8     libcpmt:locale0.obj
 0002:00014820       ??_R3_Locimp@locale@std@@8 0000000180068820     libcpmt:locale0.obj
 0002:00014838       ??_R2_Locimp@locale@std@@8 0000000180068838     libcpmt:locale0.obj
 0002:00014860       ??_R1A@?0A@EA@_Locimp@locale@std@@8 0000000180068860     libcpmt:locale0.obj
 0002:00014888       ??_R1A@?0A@EA@facet@locale@std@@8 0000000180068888     libcpmt:locale0.obj
 0002:000148b0       ??_R3facet@locale@std@@8   00000001800688b0     libcpmt:locale0.obj
 0002:000148c8       ??_R2facet@locale@std@@8   00000001800688c8     libcpmt:locale0.obj
 0002:000148e8       ??_R17?0A@EA@_Crt_new_delete@std@@8 00000001800688e8     libcpmt:locale0.obj
 0002:00014910       ??_R3_Crt_new_delete@std@@8 0000000180068910     libcpmt:locale0.obj
 0002:00014928       ??_R2_Crt_new_delete@std@@8 0000000180068928     libcpmt:locale0.obj
 0002:00014938       ??_R1A@?0A@EA@_Crt_new_delete@std@@8 0000000180068938     libcpmt:locale0.obj
 0002:00014960       ??_R4bad_alloc@std@@6B@    0000000180068960     libcpmt:xthrow.obj
 0002:00014988       ??_R3bad_alloc@std@@8      0000000180068988     libcpmt:xthrow.obj
 0002:000149a0       ??_R2bad_alloc@std@@8      00000001800689a0     libcpmt:xthrow.obj
 0002:000149b8       ??_R1A@?0A@EA@bad_alloc@std@@8 00000001800689b8     libcpmt:xthrow.obj
 0002:000149e0       ??_R4logic_error@std@@6B@  00000001800689e0     libcpmt:xthrow.obj
 0002:00014a08       ??_R3logic_error@std@@8    0000000180068a08     libcpmt:xthrow.obj
 0002:00014a20       ??_R2logic_error@std@@8    0000000180068a20     libcpmt:xthrow.obj
 0002:00014a38       ??_R1A@?0A@EA@logic_error@std@@8 0000000180068a38     libcpmt:xthrow.obj
 0002:00014a60       ??_R4length_error@std@@6B@ 0000000180068a60     libcpmt:xthrow.obj
 0002:00014a88       ??_R3length_error@std@@8   0000000180068a88     libcpmt:xthrow.obj
 0002:00014aa0       ??_R2length_error@std@@8   0000000180068aa0     libcpmt:xthrow.obj
 0002:00014ac0       ??_R1A@?0A@EA@length_error@std@@8 0000000180068ac0     libcpmt:xthrow.obj
 0002:00014ae8       ??_R4out_of_range@std@@6B@ 0000000180068ae8     libcpmt:xthrow.obj
 0002:00014b10       ??_R3out_of_range@std@@8   0000000180068b10     libcpmt:xthrow.obj
 0002:00014b28       ??_R2out_of_range@std@@8   0000000180068b28     libcpmt:xthrow.obj
 0002:00014b48       ??_R1A@?0A@EA@out_of_range@std@@8 0000000180068b48     libcpmt:xthrow.obj
 0002:00014b70       ??_R3ctype_base@std@@8     0000000180068b70     libcpmt:locale.obj
 0002:00014b88       ??_R2ctype_base@std@@8     0000000180068b88     libcpmt:locale.obj
 0002:00014bb0       ??_R1A@?0A@EA@ctype_base@std@@8 0000000180068bb0     libcpmt:locale.obj
 0002:00014bd8       ??_R4?$ctype@D@std@@6B@    0000000180068bd8     libcpmt:locale.obj
 0002:00014c00       ??_R3?$ctype@D@std@@8      0000000180068c00     libcpmt:locale.obj
 0002:00014c18       ??_R2?$ctype@D@std@@8      0000000180068c18     libcpmt:locale.obj
 0002:00014c48       ??_R1A@?0A@EA@?$ctype@D@std@@8 0000000180068c48     libcpmt:locale.obj
 0002:00014c70       ??_R4?$num_put@DV?$ostreambuf_iterator@DU?$char_traits@D@std@@@std@@@std@@6B@ 0000000180068c70     libcpmt:locale.obj
 0002:00014c98       ??_R3?$num_put@DV?$ostreambuf_iterator@DU?$char_traits@D@std@@@std@@@std@@8 0000000180068c98     libcpmt:locale.obj
 0002:00014cb0       ??_R2?$num_put@DV?$ostreambuf_iterator@DU?$char_traits@D@std@@@std@@@std@@8 0000000180068cb0     libcpmt:locale.obj
 0002:00014cd8       ??_R1A@?0A@EA@?$num_put@DV?$ostreambuf_iterator@DU?$char_traits@D@std@@@std@@@std@@8 0000000180068cd8     libcpmt:locale.obj
 0002:00014d00       ??_R4?$numpunct@D@std@@6B@ 0000000180068d00     libcpmt:locale.obj
 0002:00014d28       ??_R3?$numpunct@D@std@@8   0000000180068d28     libcpmt:locale.obj
 0002:00014d40       ??_R2?$numpunct@D@std@@8   0000000180068d40     libcpmt:locale.obj
 0002:00014d68       ??_R1A@?0A@EA@?$numpunct@D@std@@8 0000000180068d68     libcpmt:locale.obj
 0002:00014d90       ??_R4type_info@@6B@        0000000180068d90     LIBCMT:std_type_info_static.obj
 0002:00014db8       ??_R3type_info@@8          0000000180068db8     LIBCMT:std_type_info_static.obj
 0002:00014dd0       ??_R2type_info@@8          0000000180068dd0     LIBCMT:std_type_info_static.obj
 0002:00014de0       ??_R1A@?0A@EA@type_info@@8 0000000180068de0     LIBCMT:std_type_info_static.obj
 0002:00014e08       ??_R4bad_array_new_length@std@@6B@ 0000000180068e08     LIBCMT:throw_bad_alloc.obj
 0002:00014e30       ??_R3bad_array_new_length@std@@8 0000000180068e30     LIBCMT:throw_bad_alloc.obj
 0002:00014e48       ??_R2bad_array_new_length@std@@8 0000000180068e48     LIBCMT:throw_bad_alloc.obj
 0002:00014e68       ??_R1A@?0A@EA@bad_array_new_length@std@@8 0000000180068e68     LIBCMT:throw_bad_alloc.obj
 0002:00014e90       ??_R4bad_exception@std@@6B@ 0000000180068e90     libvcruntime:frame.obj
 0002:00014eb8       ??_R3bad_exception@std@@8  0000000180068eb8     libvcruntime:frame.obj
 0002:00014ed0       ??_R2bad_exception@std@@8  0000000180068ed0     libvcruntime:frame.obj
 0002:00014ee8       ??_R1A@?0A@EA@bad_exception@std@@8 0000000180068ee8     libvcruntime:frame.obj
 0002:000153a0       __rtc_iaa                  00000001800693a0     LIBCMT:_initsect_.obj
 0002:000153a8       __rtc_izz                  00000001800693a8     LIBCMT:_initsect_.obj
 0002:000153b0       __rtc_taa                  00000001800693b0     LIBCMT:_initsect_.obj
 0002:000153b8       __rtc_tzz                  00000001800693b8     LIBCMT:_initsect_.obj
 0002:000153c0       _tls_start                 00000001800693c0     LIBCMT:tlssup.obj
 0002:000153c4       _Init_thread_epoch         00000001800693c4     LIBCMT:thread_safe_statics.obj
 0002:000153c8       _tls_end                   00000001800693c8     LIBCMT:tlssup.obj
 0002:0001d4d8       _CT??_R0?AVexception@std@@@8??0exception@std@@QEAA@AEBV01@@Z24 00000001800714d8     libcpmt:xonce.obj
 0002:0001d500       _TI2?AVbad_alloc@std@@     0000000180071500     libcpmt:xthrow.obj
 0002:0001d520       _CTA2?AVbad_alloc@std@@    0000000180071520     libcpmt:xthrow.obj
 0002:0001d538       _CT??_R0?AVbad_alloc@std@@@8??0bad_alloc@std@@QEAA@AEBV01@@Z24 0000000180071538     libcpmt:xthrow.obj
 0002:0001d560       _CT??_R0?AVlogic_error@std@@@8??0logic_error@std@@QEAA@AEBV01@@Z24 0000000180071560     libcpmt:xthrow.obj
 0002:0001d588       _TI3?AVlength_error@std@@  0000000180071588     libcpmt:xthrow.obj
 0002:0001d5a8       _CTA3?AVlength_error@std@@ 00000001800715a8     libcpmt:xthrow.obj
 0002:0001d5c8       _CT??_R0?AVlength_error@std@@@8??0length_error@std@@QEAA@AEBV01@@Z24 00000001800715c8     libcpmt:xthrow.obj
 0002:0001d5f0       _TI3?AVout_of_range@std@@  00000001800715f0     libcpmt:xthrow.obj
 0002:0001d610       _CTA3?AVout_of_range@std@@ 0000000180071610     libcpmt:xthrow.obj
 0002:0001d630       _CT??_R0?AVout_of_range@std@@@8??0out_of_range@std@@QEAA@AEBV01@@Z24 0000000180071630     libcpmt:xthrow.obj
 0002:0001d658       _TI3?AVbad_array_new_length@std@@ 0000000180071658     LIBCMT:throw_bad_alloc.obj
 0002:0001d678       _CTA3?AVbad_array_new_length@std@@ 0000000180071678     LIBCMT:throw_bad_alloc.obj
 0002:0001d698       _CT??_R0?AVbad_array_new_length@std@@@8??0bad_array_new_length@std@@QEAA@AEBV01@@Z24 0000000180071698     LIBCMT:throw_bad_alloc.obj
 0002:0001d6c0       _TI2?AVbad_exception@std@@ 00000001800716c0     libvcruntime:frame.obj
 0002:0001d6e0       _CTA2?AVbad_exception@std@@ 00000001800716e0     libvcruntime:frame.obj
 0002:0001d6f8       _CT??_R0?AVbad_exception@std@@@8??0bad_exception@std@@QEAA@AEBV01@@Z24 00000001800716f8     libvcruntime:frame.obj
 0002:0001d720       _CTA3?AVExceptionImpl@@    0000000180071720     dpiEnvImpl.obj
 0002:0001d740       _CT??_R0?AVException@dpi@@@816 0000000180071740     dpiEnvImpl.obj
 0002:0001d768       _CT??_R0?AVExceptionImpl@@@888 0000000180071768     dpiEnvImpl.obj
 0002:0001d790       _TI3?AVExceptionImpl@@     0000000180071790     dpiEnvImpl.obj
 0002:0001d7b0       _CT??_R0?AVexception@stdext@@@816 00000001800717b0     dpiEnvImpl.obj
 0002:0001d7d4       __DELAY_IMPORT_DESCRIPTOR_node_exe 00000001800717d4     node:node.exe
 0002:0001d7f4       __NULL_DELAY_IMPORT_DESCRIPTOR 00000001800717f4     node:node.exe
 0002:0001dac0       \177node_NULL_THUNK_DATA_DLN 0000000180071ac0     node:node.exe
 0002:0001f088       \177node_NULL_THUNK_DATA_DLB 0000000180073088     node:node.exe
 0002:0001f384       __IMPORT_DESCRIPTOR_KERNEL32 0000000180073384     kernel32:KERNEL32.dll
 0002:0001f398       __IMPORT_DESCRIPTOR_OCI    0000000180073398     oci:OCI.dll
 0002:0001f3ac       __NULL_IMPORT_DESCRIPTOR   00000001800733ac     kernel32:KERNEL32.dll
 0003:00000004       ?_Sync@ios_base@std@@0_NA  0000000180075004     libcpmt:ios.obj
 0003:00000020       ?_PJP_CPP_Copyright@@3PADA 0000000180075020     libcpmt:iosptrs.obj
 0003:00000080       _Init_global_epoch         0000000180075080     LIBCMT:thread_safe_statics.obj
 0003:00000084       __scrt_native_dllmain_reason 0000000180075084     LIBCMT:utility.obj
 0003:00000088       __security_cookie_complement 0000000180075088     LIBCMT:gs_cookie.obj
 0003:00000090       __security_cookie          0000000180075090     LIBCMT:gs_cookie.obj
 0003:00000098       _fltused                   0000000180075098     LIBCMT:fltused.obj
 0003:000000a0       __isa_available            00000001800750a0     LIBCMT:_cpu_disp_.obj
 0003:000000a4       __isa_enabled              00000001800750a4     LIBCMT:_cpu_disp_.obj
 0003:000000a8       __memcpy_nt_iters          00000001800750a8     LIBCMT:_cpu_disp_.obj
 0003:000000c0       __abort_behavior           00000001800750c0     libucrt:abort.obj
 0003:000000c4       __acrt_lconv_static_decimal 00000001800750c4     libucrt:localeconv.obj
 0003:000000c8       __acrt_lconv_static_W_decimal 00000001800750c8     libucrt:localeconv.obj
 0003:000000d0       __acrt_lconv_c             00000001800750d0     libucrt:localeconv.obj
 0003:00000168       __acrt_lconv               0000000180075168     libucrt:localeconv.obj
 0003:00000170       _pctype                    0000000180075170     libucrt:ctype.obj
 0003:00000178       _pwctype                   0000000180075178     libucrt:ctype.obj
 0003:000001a0       _iob                       00000001800751a0     libucrt:_file.obj
 0003:000002b0       __mb_cur_max               00000001800752b0     libucrt:nlsdata.obj
 0003:000002c0       __acrt_initial_locale_data 00000001800752c0     libucrt:nlsdata.obj
 0003:00000418       __acrt_initial_locale_pointers 0000000180075418     libucrt:nlsdata.obj
 0003:00000428       __acrt_wide_c_locale_string 0000000180075428     libucrt:nlsdata.obj
 0003:00000430       __badioinfo                0000000180075430     libucrt:ioinit.obj
 0003:00000474       __globallocalestatus       0000000180075474     libucrt:glstatus.obj
 0003:00000820       __acrt_initial_multibyte_data 0000000180075820     libucrt:mbctype.obj
 0003:00000aa0       ?s_propPingName_@ConnImpl@@0V?$basic_string@DU?$char_traits@D@std@@V?$allocator@D@2@@std@@A 0000000180075aa0     dpiConnImpl.obj
 0003:00000ac0       ??_R0?AV_System_error@std@@@8 0000000180075ac0     libcpmt:xonce.obj
 0003:00000ae8       ??_R0?AVruntime_error@std@@@8 0000000180075ae8     libcpmt:xonce.obj
 0003:00000b10       ??_R0?AVexception@std@@@8  0000000180075b10     libcpmt:xonce.obj
 0003:00000b38       ??_R0?AV_Facet_base@std@@@8 0000000180075b38     libcpmt:locale0.obj
 0003:00000b60       ??_R0?AV_Locimp@locale@std@@@8 0000000180075b60     libcpmt:locale0.obj
 0003:00000b90       ??_R0?AVfacet@locale@std@@@8 0000000180075b90     libcpmt:locale0.obj
 0003:00000bb8       ??_R0?AU_Crt_new_delete@std@@@8 0000000180075bb8     libcpmt:locale0.obj
 0003:00000be8       ??_R0?AVbad_alloc@std@@@8  0000000180075be8     libcpmt:xthrow.obj
 0003:00000c10       ??_R0?AVlogic_error@std@@@8 0000000180075c10     libcpmt:xthrow.obj
 0003:00000c38       ??_R0?AVlength_error@std@@@8 0000000180075c38     libcpmt:xthrow.obj
 0003:00000c60       ??_R0?AVout_of_range@std@@@8 0000000180075c60     libcpmt:xthrow.obj
 0003:00000c88       ??_R0?AUctype_base@std@@@8 0000000180075c88     libcpmt:locale.obj
 0003:00000cb0       ??_R0?AV?$ctype@D@std@@@8  0000000180075cb0     libcpmt:locale.obj
 0003:00000ce0       ??_R0?AV?$num_put@DV?$ostreambuf_iterator@DU?$char_traits@D@std@@@std@@@std@@@8 0000000180075ce0     libcpmt:locale.obj
 0003:00000d40       ??_R0?AV?$numpunct@D@std@@@8 0000000180075d40     libcpmt:locale.obj
 0003:00000d68       ??_R0?AVtype_info@@@8      0000000180075d68     LIBCMT:std_type_info_static.obj
 0003:00000d88       ??_R0?AVbad_array_new_length@std@@@8 0000000180075d88     LIBCMT:throw_bad_alloc.obj
 0003:00000db8       ??_R0?AVbad_exception@std@@@8 0000000180075db8     libvcruntime:frame.obj
 0003:00000de0       ??_R0?AVException@dpi@@@8  0000000180075de0     njsOracle.obj
 0003:00000e08       ??_R0?AVexception@stdext@@@8 0000000180075e08     dpiEnvImpl.obj
 0003:00000e30       ??_R0?AVExceptionImpl@@@8  0000000180075e30     dpiEnvImpl.obj
 0003:00000e58       __imp_uv_queue_work        0000000180075e58     node:node.exe
 0003:00000e60       __imp_?Global@Context@v8@@QEAA?AV?$Local@VObject@v8@@@2@XZ 0000000180075e60     node:node.exe
 0003:00000e68       __imp_?Value@External@v8@@QEBAPEAXXZ 0000000180075e68     node:node.exe
 0003:00000e70       __imp_?New@External@v8@@SA?AV?$Local@VExternal@v8@@@2@PEAVIsolate@2@PEAX@Z 0000000180075e70     node:node.exe
 0003:00000e78       __imp_?NewFromUnsigned@Integer@v8@@SA?AV?$Local@VInteger@v8@@@2@PEAVIsolate@2@I@Z 0000000180075e78     node:node.exe
 0003:00000e80       __imp_?New@Integer@v8@@SA?AV?$Local@VInteger@v8@@@2@PEAVIsolate@2@H@Z 0000000180075e80     node:node.exe
 0003:00000e88       __imp_?New@Signature@v8@@SA?AV?$Local@VSignature@v8@@@2@PEAVIsolate@2@V?$Local@VFunctionTemplate@v8@@@2@@Z 0000000180075e88     node:node.exe
 0003:00000e90       __imp_?ThrowException@Isolate@v8@@QEAA?AV?$Local@VValue@v8@@@2@V32@@Z 0000000180075e90     node:node.exe
 0003:00000e98       __imp_?GetCurrentContext@Isolate@v8@@QEAA?AV?$Local@VContext@v8@@@2@XZ 0000000180075e98     node:node.exe
 0003:00000ea0       __imp_?GetCurrent@Isolate@v8@@SAPEAV12@XZ 0000000180075ea0     node:node.exe
 0003:00000ea8       __imp_?CreateHandle@HandleScope@v8@@KAPEAPEAVObject@internal@2@PEAVIsolate@42@PEAV342@@Z 0000000180075ea8     node:node.exe
 0003:00000eb0       __imp_?CreateHandle@HandleScope@v8@@CAPEAPEAVObject@internal@2@PEAVHeapObject@42@PEAV342@@Z 0000000180075eb0     node:node.exe
 0003:00000eb8       __imp_??1HandleScope@v8@@QEAA@XZ 0000000180075eb8     node:node.exe
 0003:00000ec0       __imp_??0HandleScope@v8@@QEAA@PEAVIsolate@1@@Z 0000000180075ec0     node:node.exe
 0003:00000ec8       __imp_?Set@Template@v8@@QEAAXV?$Local@VName@v8@@@2@V?$Local@VData@v8@@@2@W4PropertyAttribute@2@@Z 0000000180075ec8     node:node.exe
 0003:00000ed0       __imp_?Error@Exception@v8@@SA?AV?$Local@VValue@v8@@@2@V?$Local@VString@v8@@@2@@Z 0000000180075ed0     node:node.exe
 0003:00000ed8       __imp_?New@Array@v8@@SA?AV?$Local@VArray@v8@@@2@PEAVIsolate@2@H@Z 0000000180075ed8     node:node.exe
 0003:00000ee0       __imp_?Length@Array@v8@@QEBAIXZ 0000000180075ee0     node:node.exe
 0003:00000ee8       __imp_?SetClassName@FunctionTemplate@v8@@QEAAXV?$Local@VString@v8@@@2@@Z 0000000180075ee8     node:node.exe
 0003:00000ef0       __imp_?PrototypeTemplate@FunctionTemplate@v8@@QEAA?AV?$Local@VObjectTemplate@v8@@@2@XZ 0000000180075ef0     node:node.exe
 0003:00000ef8       __imp_?InstanceTemplate@FunctionTemplate@v8@@QEAA?AV?$Local@VObjectTemplate@v8@@@2@XZ 0000000180075ef8     node:node.exe
 0003:00000f00       __imp_?GetFunction@FunctionTemplate@v8@@QEAA?AV?$Local@VFunction@v8@@@2@XZ 0000000180075f00     node:node.exe
 0003:00000f08       __imp_?GetFunction@FunctionTemplate@v8@@QEAA?AV?$MaybeLocal@VFunction@v8@@@2@V?$Local@VContext@v8@@@2@@Z 0000000180075f08     node:node.exe
 0003:00000f10       __imp_?New@FunctionTemplate@v8@@SA?AV?$Local@VFunctionTemplate@v8@@@2@PEAVIsolate@2@P6AXAEBV?$FunctionCallbackInfo@VValue@v8@@@2@@ZV?$Local@VValue@v8@@@2@V?$Local@VSignature@v8@@@2@HW4ConstructorBehavior@2@@Z 0000000180075f10     node:node.exe
 0003:00000f18       __imp_?Value@Boolean@v8@@QEBA_NXZ 0000000180075f18     node:node.exe
 0003:00000f20       __imp_?ToLocalEmpty@V8@v8@@CAXXZ 0000000180075f20     node:node.exe
 0003:00000f28       __imp_?FromJustIsNothing@V8@v8@@CAXXZ 0000000180075f28     node:node.exe
 0003:00000f30       __imp_?ClearWeak@V8@v8@@CAPEAXPEAPEAVObject@internal@2@@Z 0000000180075f30     node:node.exe
 0003:00000f38       __imp_?MakeWeak@V8@v8@@CAXPEAPEAVObject@internal@2@PEAXP6AXAEBV?$WeakCallbackInfo@X@2@@ZW4WeakCallbackType@2@@Z 0000000180075f38     node:node.exe
 0003:00000f40       __imp_?DisposeGlobal@V8@v8@@CAXPEAPEAVObject@internal@2@@Z 0000000180075f40     node:node.exe
 0003:00000f48       __imp_?GlobalizeReference@V8@v8@@CAPEAPEAVObject@internal@2@PEAVIsolate@42@PEAPEAV342@@Z 0000000180075f48     node:node.exe
 0003:00000f50       __imp_?Int32Value@Value@v8@@QEBA?AV?$Maybe@H@2@V?$Local@VContext@v8@@@2@@Z 0000000180075f50     node:node.exe
 0003:00000f58       __imp_?Uint32Value@Value@v8@@QEBA?AV?$Maybe@I@2@V?$Local@VContext@v8@@@2@@Z 0000000180075f58     node:node.exe
 0003:00000f60       __imp_?ToInteger@Value@v8@@QEBA?AV?$MaybeLocal@VInteger@v8@@@2@V?$Local@VContext@v8@@@2@@Z 0000000180075f60     node:node.exe
 0003:00000f68       __imp_?IsUint32@Value@v8@@QEBA_NXZ 0000000180075f68     node:node.exe
 0003:00000f70       __imp_?IsInt32@Value@v8@@QEBA_NXZ 0000000180075f70     node:node.exe
 0003:00000f78       __imp_?IsNumber@Value@v8@@QEBA_NXZ 0000000180075f78     node:node.exe
 0003:00000f80       __imp_?IsObject@Value@v8@@QEBA_NXZ 0000000180075f80     node:node.exe
 0003:00000f88       __imp_?IsArray@Value@v8@@QEBA_NXZ 0000000180075f88     node:node.exe
 0003:00000f90       __imp_?IsFunction@Value@v8@@QEBA_NXZ 0000000180075f90     node:node.exe
 0003:00000f98       __imp_?HasCaught@TryCatch@v8@@QEBA_NXZ 0000000180075f98     node:node.exe
 0003:00000fa0       __imp_??1TryCatch@v8@@QEAA@XZ 0000000180075fa0     node:node.exe
 0003:00000fa8       __imp_??0TryCatch@v8@@QEAA@PEAVIsolate@1@@Z 0000000180075fa8     node:node.exe
 0003:00000fb0       __imp_?Escape@EscapableHandleScope@v8@@AEAAPEAPEAVObject@internal@2@PEAPEAV342@@Z 0000000180075fb0     node:node.exe
 0003:00000fb8       __imp_??0EscapableHandleScope@v8@@QEAA@PEAVIsolate@1@@Z 0000000180075fb8     node:node.exe
 0003:00000fc0       __imp_??1Utf8Value@String@v8@@QEAA@XZ 0000000180075fc0     node:node.exe
 0003:00000fc8       __imp_??0Utf8Value@String@v8@@QEAA@V?$Local@VValue@v8@@@2@@Z 0000000180075fc8     node:node.exe
 0003:00000fd0       __imp_?NewFromUtf8@String@v8@@SA?AV?$MaybeLocal@VString@v8@@@2@PEAVIsolate@2@PEBDW4NewStringType@2@H@Z 0000000180075fd0     node:node.exe
 0003:00000fd8       __imp_?SlowGetAlignedPointerFromInternalField@Object@v8@@AEAAPEAXH@Z 0000000180075fd8     node:node.exe
 0003:00000fe0       __imp_?SlowGetInternalField@Object@v8@@AEAA?AV?$Local@VValue@v8@@@2@H@Z 0000000180075fe0     node:node.exe
 0003:00000fe8       __imp_?SetAlignedPointerInInternalField@Object@v8@@QEAAXHPEAX@Z 0000000180075fe8     node:node.exe
 0003:00000ff0       __imp_?SetInternalField@Object@v8@@QEAAXHV?$Local@VValue@v8@@@2@@Z 0000000180075ff0     node:node.exe
 0003:00000ff8       __imp_?InternalFieldCount@Object@v8@@QEAAHXZ 0000000180075ff8     node:node.exe
 0003:00001000       __imp_?Get@Object@v8@@QEAA?AV?$Local@VValue@v8@@@2@V32@@Z 0000000180076000     node:node.exe
 0003:00001008       __imp_?Get@Object@v8@@QEAA?AV?$Local@VValue@v8@@@2@I@Z 0000000180076008     node:node.exe
 0003:00001010       __imp_?Set@Object@v8@@QEAA?AV?$Maybe@_N@2@V?$Local@VContext@v8@@@2@V?$Local@VValue@v8@@@2@1@Z 0000000180076010     node:node.exe
 0003:00001018       __imp_?Set@Object@v8@@QEAA_NIV?$Local@VValue@v8@@@2@@Z 0000000180076018     node:node.exe
 0003:00001020       __imp_?SetInternalFieldCount@ObjectTemplate@v8@@QEAAXH@Z 0000000180076020     node:node.exe
 0003:00001028       __imp_?SetAccessor@ObjectTemplate@v8@@QEAAXV?$Local@VName@v8@@@2@P6AX0AEBV?$PropertyCallbackInfo@VValue@v8@@@2@@ZP6AX0V?$Local@VValue@v8@@@2@AEBV?$PropertyCallbackInfo@X@2@@Z3W4AccessControl@2@W4PropertyAttribute@2@V?$Local@VAccessorSignature@v8@@@2@@Z 0000000180076028     node:node.exe
 0003:00001030       __imp_?NewInstance@ObjectTemplate@v8@@QEAA?AV?$MaybeLocal@VObject@v8@@@2@V?$Local@VContext@v8@@@2@@Z 0000000180076030     node:node.exe
 0003:00001038       __imp_?New@ObjectTemplate@v8@@SA?AV?$Local@VObjectTemplate@v8@@@2@PEAVIsolate@2@V?$Local@VFunctionTemplate@v8@@@2@@Z 0000000180076038     node:node.exe
 0003:00001040       __imp_?FatalException@node@@YAXPEAVIsolate@v8@@AEBVTryCatch@3@@Z 0000000180076040     node:node.exe
 0003:00001048       __imp_node_module_register 0000000180076048     node:node.exe
 0003:00001050       __imp_?MakeCallback@node@@YA?AV?$Local@VValue@v8@@@v8@@PEAVIsolate@3@V?$Local@VObject@v8@@@3@V?$Local@VFunction@v8@@@3@HPEAV23@@Z 0000000180076050     node:node.exe
 0003:00001058       __imp_uv_default_loop      0000000180076058     node:node.exe
 0003:00001060       __imp_?ToObject@Value@v8@@QEBA?AV?$Local@VObject@v8@@@2@XZ 0000000180076060     node:node.exe
 0003:00001068       __imp_?ToString@Value@v8@@QEBA?AV?$Local@VString@v8@@@2@XZ 0000000180076068     node:node.exe
 0003:00001070       __imp_?ToBoolean@Value@v8@@QEBA?AV?$Local@VBoolean@v8@@@2@XZ 0000000180076070     node:node.exe
 0003:00001078       __imp_?NewInstance@Function@v8@@QEBA?AV?$MaybeLocal@VObject@v8@@@2@V?$Local@VContext@v8@@@2@@Z 0000000180076078     node:node.exe
 0003:00001080       __imp_??1EscapableHandleScope@v8@@QEAA@XZ 0000000180076080     node:node.exe
 0003:00001088       __imp_?New@Date@v8@@SA?AV?$MaybeLocal@VValue@v8@@@2@V?$Local@VContext@v8@@@2@N@Z 0000000180076088     node:node.exe
 0003:00001090       __imp_?NumberValue@Value@v8@@QEBANXZ 0000000180076090     node:node.exe
 0003:00001098       __imp_?IsDate@Value@v8@@QEBA_NXZ 0000000180076098     node:node.exe
 0003:000010a0       __imp_?New@Number@v8@@SA?AV?$Local@VNumber@v8@@@2@PEAVIsolate@2@N@Z 00000001800760a0     node:node.exe
 0003:000010a8       __imp_?New@Object@v8@@SA?AV?$Local@VObject@v8@@@2@PEAVIsolate@2@@Z 00000001800760a8     node:node.exe
 0003:000010b0       __imp_?GetOwnPropertyNames@Object@v8@@QEAA?AV?$Local@VArray@v8@@@2@XZ 00000001800760b0     node:node.exe
 0003:000010b8       __imp_?ForceSet@Object@v8@@QEAA?AV?$Maybe@_N@2@V?$Local@VContext@v8@@@2@V?$Local@VValue@v8@@@2@1W4PropertyAttribute@2@@Z 00000001800760b8     node:node.exe
 0003:000010c0       __imp_?Set@Object@v8@@QEAA?AV?$Maybe@_N@2@V?$Local@VContext@v8@@@2@IV?$Local@VValue@v8@@@2@@Z 00000001800760c0     node:node.exe
 0003:000010c8       __imp_?Call@Function@v8@@QEAA?AV?$Local@VValue@v8@@@2@V32@HQEAV32@@Z 00000001800760c8     node:node.exe
 0003:000010d0       __imp_?HasInstance@Buffer@node@@YA_NV?$Local@VValue@v8@@@v8@@@Z 00000001800760d0     node:node.exe
 0003:000010d8       __imp_?HasInstance@Buffer@node@@YA_NV?$Local@VObject@v8@@@v8@@@Z 00000001800760d8     node:node.exe
 0003:000010e0       __imp_?Data@Buffer@node@@YAPEADV?$Local@VObject@v8@@@v8@@@Z 00000001800760e0     node:node.exe
 0003:000010e8       __imp_?Copy@Buffer@node@@YA?AV?$MaybeLocal@VObject@v8@@@v8@@PEAVIsolate@4@PEBD_K@Z 00000001800760e8     node:node.exe
 0003:000010f0       __imp_?Length@Buffer@node@@YA_KV?$Local@VObject@v8@@@v8@@@Z 00000001800760f0     node:node.exe
 0003:000010f8       __imp_?HasInstance@FunctionTemplate@v8@@QEAA_NV?$Local@VValue@v8@@@2@@Z 00000001800760f8     node:node.exe
 0003:00001100       \177node_NULL_THUNK_DATA_DLA 0000000180076100     node:node.exe
 0003:00001110       __hmod__node_exe           0000000180076110     node:node.exe
 0003:00001278       ?_Id_cnt@id@locale@std@@0HA 0000000180076278     libcpmt:locale0.obj
 0003:00001280       ?_Clocptr@_Locimp@locale@std@@0PEAV123@EA 0000000180076280     libcpmt:locale0.obj
 0003:00001290       ?id@?$ctype@_W@std@@2V0locale@2@A 0000000180076290     libcpmt:locale0.obj
 0003:00001298       ?id@?$ctype@D@std@@2V0locale@2@A 0000000180076298     libcpmt:locale0.obj
 0003:000012a0       ?id@?$codecvt@GDU_Mbstatet@@@std@@2V0locale@2@A 00000001800762a0     libcpmt:locale0.obj
 0003:000012a8       ?id@?$ctype@G@std@@2V0locale@2@A 00000001800762a8     libcpmt:locale0.obj
 0003:000012c0       ?id@?$codecvt@_WDU_Mbstatet@@@std@@2V0locale@2@A 00000001800762c0     libcpmt:locale0.obj
 0003:000012d0       ?_Index@ios_base@std@@0HA  00000001800762d0     libcpmt:ios.obj
 0003:00001340       ?_Raise_handler@std@@3P6AXAEBVexception@stdext@@@ZEA 0000000180076340     libcpmt:raisehan.obj
 0003:00001350       __encodedKERNEL32Functions 0000000180076350     libcpmt:winapisupp.obj
 0003:00001490       ?_Ptr_cin@std@@3PEAV?$basic_istream@DU?$char_traits@D@std@@@1@EA 0000000180076490     libcpmt:iosptrs.obj
 0003:00001498       ?_Ptr_cout@std@@3PEAV?$basic_ostream@DU?$char_traits@D@std@@@1@EA 0000000180076498     libcpmt:iosptrs.obj
 0003:000014a0       ?_Ptr_cerr@std@@3PEAV?$basic_ostream@DU?$char_traits@D@std@@@1@EA 00000001800764a0     libcpmt:iosptrs.obj
 0003:000014a8       ?_Ptr_clog@std@@3PEAV?$basic_ostream@DU?$char_traits@D@std@@@1@EA 00000001800764a8     libcpmt:iosptrs.obj
 0003:000014b0       ?_Ptr_wcin@std@@3PEAV?$basic_istream@_WU?$char_traits@_W@std@@@1@EA 00000001800764b0     libcpmt:iosptrs.obj
 0003:000014b8       ?_Ptr_wcout@std@@3PEAV?$basic_ostream@_WU?$char_traits@_W@std@@@1@EA 00000001800764b8     libcpmt:iosptrs.obj
 0003:000014c0       ?_Ptr_wcerr@std@@3PEAV?$basic_ostream@_WU?$char_traits@_W@std@@@1@EA 00000001800764c0     libcpmt:iosptrs.obj
 0003:000014c8       ?_Ptr_wclog@std@@3PEAV?$basic_ostream@_WU?$char_traits@_W@std@@@1@EA 00000001800764c8     libcpmt:iosptrs.obj
 0003:00001528       ?id@?$num_get@DV?$istreambuf_iterator@DU?$char_traits@D@std@@@std@@@std@@2V0locale@2@A 0000000180076528     libcpmt:locale.obj
 0003:00001530       ?id@?$codecvt@DDU_Mbstatet@@@std@@2V0locale@2@A 0000000180076530     libcpmt:locale.obj
 0003:00001538       ?id@?$time_put@_WV?$ostreambuf_iterator@_WU?$char_traits@_W@std@@@std@@@std@@2V0locale@2@A 0000000180076538     libcpmt:wlocale.obj
 0003:00001540       ?id@?$num_get@_WV?$istreambuf_iterator@_WU?$char_traits@_W@std@@@std@@@std@@2V0locale@2@A 0000000180076540     libcpmt:wlocale.obj
 0003:00001548       ?id@?$num_put@_WV?$ostreambuf_iterator@_WU?$char_traits@_W@std@@@std@@@std@@2V0locale@2@A 0000000180076548     libcpmt:wlocale.obj
 0003:00001550       ?id@?$numpunct@_W@std@@2V0locale@2@A 0000000180076550     libcpmt:wlocale.obj
 0003:00001558       ?id@?$collate@_W@std@@2V0locale@2@A 0000000180076558     libcpmt:wlocale.obj
 0003:00001560       ?id@?$messages@_W@std@@2V0locale@2@A 0000000180076560     libcpmt:wlocale.obj
 0003:00001568       ?id@?$money_get@_WV?$istreambuf_iterator@_WU?$char_traits@_W@std@@@std@@@std@@2V0locale@2@A 0000000180076568     libcpmt:wlocale.obj
 0003:00001570       ?id@?$money_put@_WV?$ostreambuf_iterator@_WU?$char_traits@_W@std@@@std@@@std@@2V0locale@2@A 0000000180076570     libcpmt:wlocale.obj
 0003:00001578       ?id@?$moneypunct@_W$0A@@std@@2V0locale@2@A 0000000180076578     libcpmt:wlocale.obj
 0003:00001580       ?id@?$moneypunct@_W$00@std@@2V0locale@2@A 0000000180076580     libcpmt:wlocale.obj
 0003:00001588       ?id@?$time_get@_WV?$istreambuf_iterator@_WU?$char_traits@_W@std@@@std@@@std@@2V0locale@2@A 0000000180076588     libcpmt:wlocale.obj
 0003:00001590       ?id@?$num_get@GV?$istreambuf_iterator@GU?$char_traits@G@std@@@std@@@std@@2V0locale@2@A 0000000180076590     libcpmt:wlocale.obj
 0003:00001598       ?id@?$num_put@GV?$ostreambuf_iterator@GU?$char_traits@G@std@@@std@@@std@@2V0locale@2@A 0000000180076598     libcpmt:wlocale.obj
 0003:000015a0       ?id@?$numpunct@G@std@@2V0locale@2@A 00000001800765a0     libcpmt:wlocale.obj
 0003:000015a8       ?id@?$collate@G@std@@2V0locale@2@A 00000001800765a8     libcpmt:wlocale.obj
 0003:000015b0       ?id@?$messages@G@std@@2V0locale@2@A 00000001800765b0     libcpmt:wlocale.obj
 0003:000015b8       ?id@?$money_get@GV?$istreambuf_iterator@GU?$char_traits@G@std@@@std@@@std@@2V0locale@2@A 00000001800765b8     libcpmt:wlocale.obj
 0003:000015c0       ?id@?$money_put@GV?$ostreambuf_iterator@GU?$char_traits@G@std@@@std@@@std@@2V0locale@2@A 00000001800765c0     libcpmt:wlocale.obj
 0003:000015c8       ?id@?$moneypunct@G$0A@@std@@2V0locale@2@A 00000001800765c8     libcpmt:wlocale.obj
 0003:000015d0       ?id@?$moneypunct@G$00@std@@2V0locale@2@A 00000001800765d0     libcpmt:wlocale.obj
 0003:000015d8       ?id@?$time_get@GV?$istreambuf_iterator@GU?$char_traits@G@std@@@std@@@std@@2V0locale@2@A 00000001800765d8     libcpmt:wlocale.obj
 0003:000015e0       ?id@?$time_put@GV?$ostreambuf_iterator@GU?$char_traits@G@std@@@std@@@std@@2V0locale@2@A 00000001800765e0     libcpmt:wlocale.obj
 0003:000015e8       ?id@?$collate@D@std@@2V0locale@2@A 00000001800765e8     libcpmt:xlocale.obj
 0003:000015f0       ?id@?$messages@D@std@@2V0locale@2@A 00000001800765f0     libcpmt:xlocale.obj
 0003:000015f8       ?id@?$money_get@DV?$istreambuf_iterator@DU?$char_traits@D@std@@@std@@@std@@2V0locale@2@A 00000001800765f8     libcpmt:xlocale.obj
 0003:00001600       ?id@?$money_put@DV?$ostreambuf_iterator@DU?$char_traits@D@std@@@std@@@std@@2V0locale@2@A 0000000180076600     libcpmt:xlocale.obj
 0003:00001608       ?id@?$moneypunct@D$0A@@std@@2V0locale@2@A 0000000180076608     libcpmt:xlocale.obj
 0003:00001610       ?id@?$moneypunct@D$00@std@@2V0locale@2@A 0000000180076610     libcpmt:xlocale.obj
 0003:00001618       ?id@?$time_get@DV?$istreambuf_iterator@DU?$char_traits@D@std@@@std@@@std@@2V0locale@2@A 0000000180076618     libcpmt:xlocale.obj
 0003:00001620       ?id@?$time_put@DV?$ostreambuf_iterator@DU?$char_traits@D@std@@@std@@@std@@2V0locale@2@A 0000000180076620     libcpmt:xlocale.obj
 0003:00001670       __scrt_current_native_startup_state 0000000180076670     LIBCMT:utility.obj
 0003:00001678       __scrt_native_startup_lock 0000000180076678     LIBCMT:utility.obj
 0003:00001c34       __scrt_debugger_hook_flag  0000000180076c34     LIBCMT:utility_desktop.obj
 0003:00001c38       _tls_index                 0000000180076c38     LIBCMT:tlssup.obj
 0003:00001c3c       __favor                    0000000180076c3c     LIBCMT:_cpu_disp_.obj
 0003:00001c40       ?__type_info_root_node@@3U__type_info_node@@A 0000000180076c40     LIBCMT:tncleanup.obj
 0003:00001c50       ?_OptionsStorage@?1??__local_stdio_scanf_options@@9@4_KA 0000000180076c50     LIBCMT:default_local_stdio_options.obj
 0003:00001c58       ?__WinRTOutOfMemoryExceptionCallback@@3P6APEAXXZEA 0000000180076c58     libvcruntime:ehhelpers.obj
 0003:00001d18       __pPurecall                0000000180076d18     libvcruntime:purevirt_data.obj
 0003:00001d50       ?pArgList@UnDecorator@@0PEAVReplicator@@EA 0000000180076d50     libvcruntime:undname.obj
 0003:00001d58       ?pZNameList@UnDecorator@@0PEAVReplicator@@EA 0000000180076d58     libvcruntime:undname.obj
 0003:00001d60       ?pTemplateArgList@UnDecorator@@0PEAVReplicator@@EA 0000000180076d60     libvcruntime:undname.obj
 0003:00001d68       ?gName@UnDecorator@@0PEBDEB 0000000180076d68     libvcruntime:undname.obj
 0003:00001d70       ?name@UnDecorator@@0PEBDEB 0000000180076d70     libvcruntime:undname.obj
 0003:00001d78       ?outputString@UnDecorator@@0PEADEA 0000000180076d78     libvcruntime:undname.obj
 0003:00001d80       ?maxStringLength@UnDecorator@@0HA 0000000180076d80     libvcruntime:undname.obj
 0003:00001d84       ?disableFlags@UnDecorator@@0KA 0000000180076d84     libvcruntime:undname.obj
 0003:00001d88       ?fExplicitTemplateParams@UnDecorator@@0_NA 0000000180076d88     libvcruntime:undname.obj
 0003:00001d89       ?fGetTemplateArgumentList@UnDecorator@@0_NA 0000000180076d89     libvcruntime:undname.obj
 0003:00001d90       ?m_pGetParameter@UnDecorator@@0P6APEADJ@ZEA 0000000180076d90     libvcruntime:undname.obj
 0003:00001dc8       __acrt_lconv_static_null   0000000180076dc8     libucrt:localeconv.obj
 0003:00001dcc       __acrt_lconv_static_W_null 0000000180076dcc     libucrt:localeconv.obj
 0003:00002020       ?c_exit_complete@?1???R<lambda_6e4b09c48022b2350581041d5f6b0c4c>@@QEBA@XZ@4_NA 0000000180077020     libucrt:exit.obj
 0003:00002138       _environ_table             0000000180077138     libucrt:environment_initialization.obj
 0003:00002140       _wenviron_table            0000000180077140     libucrt:environment_initialization.obj
 0003:00002148       __dcrt_initial_wide_environment 0000000180077148     libucrt:environment_initialization.obj
 0003:00002150       __dcrt_initial_narrow_environment 0000000180077150     libucrt:environment_initialization.obj
 0003:00002158       __acrt_atexit_table        0000000180077158     libucrt:onexit.obj
 0003:00002170       __acrt_at_quick_exit_table 0000000180077170     libucrt:onexit.obj
 0003:000021a8       _nstream                   00000001800771a8     libucrt:_file.obj
 0003:000021b0       __piob                     00000001800771b0     libucrt:_file.obj
 0003:000021b8       _cflush                    00000001800771b8     libucrt:_file.obj
 0003:000021c8       __acrt_stdout_buffer       00000001800771c8     libucrt:_sftbuf.obj
 0003:000021d0       __acrt_stderr_buffer       00000001800771d0     libucrt:_sftbuf.obj
 0003:000021d8       __acrt_locale_changed_data 00000001800771d8     libucrt:wsetlocale.obj
 0003:000021e0       __acrt_current_locale_data 00000001800771e0     libucrt:nlsdata.obj
 0003:000021f0       __pioinfo                  00000001800771f0     libucrt:ioinit.obj
 0003:000025f0       _nhandle                   00000001800775f0     libucrt:ioinit.obj
 0003:000027c0       __acrt_heap                00000001800777c0     libucrt:heap_handle.obj
 0003:000027c8       __fma3_is_available        00000001800777c8     libucrt:fma3_available.obj
 0003:000027cc       __use_fma3_lib             00000001800777cc     libucrt:fma3_available.obj
 0003:000027d0       ?_timezone@@3V?$dual_state_global@J@__crt_state_management@@A 00000001800777d0     libucrt:timeset.obj
 0003:000027d4       ?_daylight@@3V?$dual_state_global@H@__crt_state_management@@A 00000001800777d4     libucrt:timeset.obj
 0003:000027d8       ?_dstbias@@3V?$dual_state_global@J@__crt_state_management@@A 00000001800777d8     libucrt:timeset.obj
 0003:000028b8       _mbctype                   00000001800778b8     libucrt:mbctype.obj
 0003:000028c0       _mbcasemap                 00000001800778c0     libucrt:mbctype.obj
 0003:000028c8       __acrt_current_multibyte_data 00000001800778c8     libucrt:mbctype.obj
 0003:000028d8       __argc                     00000001800778d8     libucrt:argv_data.obj
 0003:000028e0       __argv                     00000001800778e0     libucrt:argv_data.obj
 0003:000028e8       __wargv                    00000001800778e8     libucrt:argv_data.obj
 0003:000028f0       _acmdln                    00000001800778f0     libucrt:argv_data.obj
 0003:000028f8       _wcmdln                    00000001800778f8     libucrt:argv_data.obj
 0003:00002900       _pgmptr                    0000000180077900     libucrt:argv_data.obj
 0003:00002910       ?DloadKernel32@@3PEAUHINSTANCE__@@EA 0000000180077910     DelayImp:delayhlp.obj
 0003:00002918       ?DloadAcquireSRWLockExclusive@@3P6AXPEA_K@ZEA 0000000180077918     DelayImp:delayhlp.obj
 0003:00002920       ?DloadReleaseSRWLockExclusive@@3P6AXPEA_K@ZEA 0000000180077920     DelayImp:delayhlp.obj
 0003:00002928       ?DloadSrwLock@@3_KA        0000000180077928     DelayImp:delayhlp.obj
 0003:00002930       ?DloadSectionLockCount@@3KA 0000000180077930     DelayImp:delayhlp.obj
 0003:00002934       ?DloadSectionOldProtection@@3KA 0000000180077934     DelayImp:delayhlp.obj
 0003:00002938       ?DloadSectionCommitPermanent@@3KA 0000000180077938     DelayImp:delayhlp.obj
 0003:0000293c       ?$TSS0@?1???$_Immortalize@V_Iostream_error_category@std@@@std@@YAAEAV_Iostream_error_category@1@XZ@4HA 000000018007793c     njsOracle.obj
 0003:00002940       ?_OptionsStorage@?1??__local_stdio_printf_options@@9@4_KA 0000000180077940     njsOracle.obj
 0003:00002948       ?_Storage@?1???$_Immortalize@V_Iostream_error_category@std@@@std@@YAAEAV_Iostream_error_category@1@XZ@4T?$_Align_type@N$0BA@@1@A 0000000180077948     njsOracle.obj
 0003:00002958       ?_Psave@?$_Facetptr@V?$numpunct@D@std@@@std@@2PEBVfacet@locale@2@EB 0000000180077958     njsOracle.obj
 0003:00002960       ?_Psave@?$_Facetptr@V?$num_put@DV?$ostreambuf_iterator@DU?$char_traits@D@std@@@std@@@std@@@std@@2PEBVfacet@locale@2@EB 0000000180077960     njsOracle.obj
 0003:00002968       ?_Psave@?$_Facetptr@V?$ctype@D@std@@@std@@2PEBVfacet@locale@2@EB 0000000180077968     njsOracle.obj
 0003:00002970       ?_Flag@?1???$_Immortalize@V_Iostream_error_category@std@@@std@@YAAEAV_Iostream_error_category@1@XZ@4Uonce_flag@1@A 0000000180077970     njsOracle.obj
 0003:00002978       ?baseDate_@DateTimeArrayImpl@dpi@@0PEAUOCIDateTime@@EA 0000000180077978     dpiDateTimeArrayImpl.obj
 0003:00002980       ?oracledbTemplate_s@Oracledb@@0V?$Persistent@VFunctionTemplate@v8@@V?$NonCopyablePersistentTraits@VFunctionTemplate@v8@@@2@@Nan@@A 0000000180077980     njsOracle.obj
 0003:00002988       ?poolTemplate_s@Pool@@2V?$Persistent@VFunctionTemplate@v8@@V?$NonCopyablePersistentTraits@VFunctionTemplate@v8@@@2@@Nan@@A 0000000180077988     njsPool.obj
 0003:00002990       ?connectionTemplate_s@Connection@@2V?$Persistent@VFunctionTemplate@v8@@V?$NonCopyablePersistentTraits@VFunctionTemplate@v8@@@2@@Nan@@A 0000000180077990     njsConnection.obj
 0003:00002998       ?resultSetTemplate_s@ResultSet@@2V?$Persistent@VFunctionTemplate@v8@@V?$NonCopyablePersistentTraits@VFunctionTemplate@v8@@@2@@Nan@@A 0000000180077998     njsResultSet.obj
 0003:000029a0       ?iLobTemplate_s@ILob@@2V?$Persistent@VFunctionTemplate@v8@@V?$NonCopyablePersistentTraits@VFunctionTemplate@v8@@@2@@Nan@@A 00000001800779a0     njsIntLob.obj
 0003:000029a8       ?id@?$num_put@DV?$ostreambuf_iterator@DU?$char_traits@D@std@@@std@@@std@@2V0locale@2@A 00000001800779a8     njsOracle.obj
 0003:000029b0       ?id@?$numpunct@D@std@@2V0locale@2@A 00000001800779b0     njsOracle.obj
 0003:000029b8       __dyn_tls_init_callback    00000001800779b8     <common>
 0003:000029c0       __scrt_ucrt_dll_is_in_use  00000001800779c0     <common>

 entry point at        0001:00031818

 Static symbols

 0000:fff81000       .debug$S                   0000000180000000     node:node.exe
 0000:fff81000       .debug$S                   0000000180000000     node:node.exe
 0000:fff81000       .debug$S                   0000000180000000     node:node.exe
 0000:fff81000       .debug$S                   0000000180000000     node:node.exe
 0000:fff81000       .debug$S                   0000000180000000     node:node.exe
 0000:fff81000       .debug$S                   0000000180000000     node:node.exe
 0000:fff81000       .debug$S                   0000000180000000     node:node.exe
 0000:fff81000       .debug$S                   0000000180000000     node:node.exe
 0000:fff81000       .debug$S                   0000000180000000     node:node.exe
 0000:fff81000       .debug$S                   0000000180000000     node:node.exe
 0000:fff81000       .debug$S                   0000000180000000     node:node.exe
 0000:fff81000       .debug$S                   0000000180000000     node:node.exe
 0000:fff81000       .debug$S                   0000000180000000     node:node.exe
 0000:fff81000       .debug$S                   0000000180000000     node:node.exe
 0000:fff81000       .debug$S                   0000000180000000     node:node.exe
 0000:fff81000       .debug$S                   0000000180000000     node:node.exe
 0000:fff81000       .debug$S                   0000000180000000     node:node.exe
 0000:fff81000       .debug$S                   0000000180000000     node:node.exe
 0000:fff81000       .debug$S                   0000000180000000     node:node.exe
 0000:fff81000       .debug$S                   0000000180000000     node:node.exe
 0000:fff81000       .debug$S                   0000000180000000     node:node.exe
 0000:fff81000       .debug$S                   0000000180000000     node:node.exe
 0000:fff81000       .debug$S                   0000000180000000     node:node.exe
 0000:fff81000       .debug$S                   0000000180000000     node:node.exe
 0000:fff81000       .debug$S                   0000000180000000     node:node.exe
 0000:fff81000       .debug$S                   0000000180000000     node:node.exe
 0000:fff81000       .debug$S                   0000000180000000     node:node.exe
 0000:fff81000       .debug$S                   0000000180000000     node:node.exe
 0000:fff81000       .debug$S                   0000000180000000     node:node.exe
 0000:fff81000       .debug$S                   0000000180000000     node:node.exe
 0000:fff81000       .debug$S                   0000000180000000     node:node.exe
 0000:fff81000       .debug$S                   0000000180000000     node:node.exe
 0000:fff81000       .debug$S                   0000000180000000     node:node.exe
 0000:fff81000       .debug$S                   0000000180000000     node:node.exe
 0000:fff81000       .debug$S                   0000000180000000     node:node.exe
 0000:fff81000       .debug$S                   0000000180000000     node:node.exe
 0000:fff81000       .debug$S                   0000000180000000     node:node.exe
 0000:fff81000       .debug$S                   0000000180000000     node:node.exe
 0000:fff81000       .debug$S                   0000000180000000     node:node.exe
 0000:fff81000       .debug$S                   0000000180000000     node:node.exe
 0000:fff81000       .debug$S                   0000000180000000     node:node.exe
 0000:fff81000       .debug$S                   0000000180000000     node:node.exe
 0000:fff81000       .debug$S                   0000000180000000     node:node.exe
 0000:fff81000       .debug$S                   0000000180000000     node:node.exe
 0000:fff81000       .debug$S                   0000000180000000     node:node.exe
 0000:fff81000       .debug$S                   0000000180000000     node:node.exe
 0000:fff81000       .debug$S                   0000000180000000     node:node.exe
 0000:fff81000       .debug$S                   0000000180000000     node:node.exe
 0000:fff81000       .debug$S                   0000000180000000     node:node.exe
 0000:fff81000       .debug$S                   0000000180000000     node:node.exe
 0000:fff81000       .debug$S                   0000000180000000     node:node.exe
 0000:fff81000       .debug$S                   0000000180000000     node:node.exe
 0000:fff81000       .debug$S                   0000000180000000     node:node.exe
 0000:fff81000       .debug$S                   0000000180000000     node:node.exe
 0000:fff81000       .debug$S                   0000000180000000     node:node.exe
 0000:fff81000       .debug$S                   0000000180000000     node:node.exe
 0000:fff81000       .debug$S                   0000000180000000     node:node.exe
 0000:fff81000       .debug$S                   0000000180000000     node:node.exe
 0000:fff81000       .debug$S                   0000000180000000     node:node.exe
 0000:fff81000       .debug$S                   0000000180000000     node:node.exe
 0000:fff81000       .debug$S                   0000000180000000     node:node.exe
 0000:fff81000       .debug$S                   0000000180000000     node:node.exe
 0000:fff81000       .debug$S                   0000000180000000     node:node.exe
 0000:fff81000       .debug$S                   0000000180000000     node:node.exe
 0000:fff81000       .debug$S                   0000000180000000     node:node.exe
 0000:fff81000       .debug$S                   0000000180000000     node:node.exe
 0000:fff81000       .debug$S                   0000000180000000     node:node.exe
 0000:fff81000       .debug$S                   0000000180000000     node:node.exe
 0000:fff81000       .debug$S                   0000000180000000     node:node.exe
 0000:fff81000       .debug$S                   0000000180000000     node:node.exe
 0000:fff81000       .debug$S                   0000000180000000     node:node.exe
 0000:fff81000       .debug$S                   0000000180000000     node:node.exe
 0000:fff81000       .debug$S                   0000000180000000     node:node.exe
 0000:fff81000       .debug$S                   0000000180000000     node:node.exe
 0000:fff81000       .debug$S                   0000000180000000     node:node.exe
 0000:fff81000       .debug$S                   0000000180000000     node:node.exe
 0000:fff81000       .debug$S                   0000000180000000     node:node.exe
 0000:fff81000       .debug$S                   0000000180000000     node:node.exe
 0000:fff81000       .debug$S                   0000000180000000     node:node.exe
 0000:fff81000       .debug$S                   0000000180000000     node:node.exe
 0000:fff81000       .debug$S                   0000000180000000     node:node.exe
 0000:fff81000       .debug$S                   0000000180000000     node:node.exe
 0000:fff81000       .debug$S                   0000000180000000     kernel32:KERNEL32.dll
 0000:fff81000       .debug$S                   0000000180000000     node:node.exe
 0000:fff81000       .debug$S                   0000000180000000     node:node.exe
 0000:fff81000       .debug$S                   0000000180000000     node:node.exe
 0000:fff81000       .debug$S                   0000000180000000     node:node.exe
 0000:fff81000       .debug$S                   0000000180000000     node:node.exe
 0000:fff81000       .debug$S                   0000000180000000     node:node.exe
 0000:fff81000       .debug$S                   0000000180000000     node:node.exe
 0000:fff81000       .debug$S                   0000000180000000     node:node.exe
 0000:fff81000       .debug$S                   0000000180000000     node:node.exe
 0000:fff81000       .debug$S                   0000000180000000     node:node.exe
 0000:fff81000       .debug$S                   0000000180000000     node:node.exe
 0000:fff81000       .debug$S                   0000000180000000     node:node.exe
 0000:fff81000       .debug$S                   0000000180000000     node:node.exe
 0000:fff81000       .debug$S                   0000000180000000     kernel32:KERNEL32.dll
 0000:fff81000       .debug$S                   0000000180000000     node:node.exe
 0000:fff81000       .debug$S                   0000000180000000     node:node.exe
 0000:fff81000       .debug$S                   0000000180000000     kernel32:KERNEL32.dll
 0000:fff81000       .debug$S                   0000000180000000     kernel32:KERNEL32.dll
 0000:fff81000       .debug$S                   0000000180000000     node:node.exe
 0000:fff81000       .debug$S                   0000000180000000     node:node.exe
 0000:fff81000       .debug$S                   0000000180000000     node:node.exe
 0000:fff81000       .debug$S                   0000000180000000     kernel32:KERNEL32.dll
 0000:fff81000       .debug$S                   0000000180000000     kernel32:KERNEL32.dll
 0000:fff81000       .debug$S                   0000000180000000     node:node.exe
 0000:fff81000       .debug$S                   0000000180000000     node:node.exe
 0000:fff81000       .debug$S                   0000000180000000     oci:OCI.dll
 0000:fff81000       .debug$S                   0000000180000000     kernel32:KERNEL32.dll
 0000:fff81000       .debug$S                   0000000180000000     kernel32:KERNEL32.dll
 0000:fff81000       .debug$S                   0000000180000000     kernel32:KERNEL32.dll
 0000:fff81000       .debug$S                   0000000180000000     oci:OCI.dll
 0000:fff81000       .debug$S                   0000000180000000     oci:OCI.dll
 0000:fff81000       .debug$S                   0000000180000000     oci:OCI.dll
 0000:fff81000       .debug$S                   0000000180000000     kernel32:KERNEL32.dll
 0000:fff81000       .debug$S                   0000000180000000     kernel32:KERNEL32.dll
 0000:fff81000       .debug$S                   0000000180000000     oci:OCI.dll
 0000:fff81000       .debug$S                   0000000180000000     oci:OCI.dll
 0000:fff81000       .debug$S                   0000000180000000     oci:OCI.dll
 0000:fff81000       .debug$S                   0000000180000000     oci:OCI.dll
 0000:fff81000       .debug$S                   0000000180000000     oci:OCI.dll
 0000:fff81000       .debug$S                   0000000180000000     oci:OCI.dll
 0000:fff81000       .debug$S                   0000000180000000     oci:OCI.dll
 0000:fff81000       .debug$S                   0000000180000000     kernel32:KERNEL32.dll
 0000:fff81000       .debug$S                   0000000180000000     kernel32:KERNEL32.dll
 0000:fff81000       .debug$S                   0000000180000000     kernel32:KERNEL32.dll
 0000:fff81000       .debug$S                   0000000180000000     kernel32:KERNEL32.dll
 0000:fff81000       .debug$S                   0000000180000000     kernel32:KERNEL32.dll
 0000:fff81000       .debug$S                   0000000180000000     kernel32:KERNEL32.dll
 0000:fff81000       .debug$S                   0000000180000000     kernel32:KERNEL32.dll
 0000:fff81000       .debug$S                   0000000180000000     kernel32:KERNEL32.dll
 0000:fff81000       .debug$S                   0000000180000000     kernel32:KERNEL32.dll
 0000:fff81000       .debug$S                   0000000180000000     kernel32:KERNEL32.dll
 0000:fff81000       .debug$S                   0000000180000000     kernel32:KERNEL32.dll
 0000:fff81000       .debug$S                   0000000180000000     kernel32:KERNEL32.dll
 0000:fff81000       .debug$S                   0000000180000000     kernel32:KERNEL32.dll
 0000:fff81000       .debug$S                   0000000180000000     kernel32:KERNEL32.dll
 0000:fff81000       .debug$S                   0000000180000000     kernel32:KERNEL32.dll
 0000:fff81000       .debug$S                   0000000180000000     kernel32:KERNEL32.dll
 0000:fff81000       .debug$S                   0000000180000000     kernel32:KERNEL32.dll
 0000:fff81000       .debug$S                   0000000180000000     kernel32:KERNEL32.dll
 0000:fff81000       .debug$S                   0000000180000000     kernel32:KERNEL32.dll
 0000:fff81000       .debug$S                   0000000180000000     kernel32:KERNEL32.dll
 0000:fff81000       .debug$S                   0000000180000000     kernel32:KERNEL32.dll
 0000:fff81000       .debug$S                   0000000180000000     kernel32:KERNEL32.dll
 0000:fff81000       .debug$S                   0000000180000000     kernel32:KERNEL32.dll
 0000:fff81000       .debug$S                   0000000180000000     kernel32:KERNEL32.dll
 0000:fff81000       .debug$S                   0000000180000000     kernel32:KERNEL32.dll
 0000:fff81000       .debug$S                   0000000180000000     kernel32:KERNEL32.dll
 0000:fff81000       .debug$S                   0000000180000000     kernel32:KERNEL32.dll
 0000:fff81000       .debug$S                   0000000180000000     kernel32:KERNEL32.dll
 0000:fff81000       .debug$S                   0000000180000000     kernel32:KERNEL32.dll
 0000:fff81000       .debug$S                   0000000180000000     kernel32:KERNEL32.dll
 0000:fff81000       .debug$S                   0000000180000000     kernel32:KERNEL32.dll
 0000:fff81000       .debug$S                   0000000180000000     kernel32:KERNEL32.dll
 0000:fff81000       .debug$S                   0000000180000000     kernel32:KERNEL32.dll
 0000:fff81000       .debug$S                   0000000180000000     kernel32:KERNEL32.dll
 0000:fff81000       .debug$S                   0000000180000000     kernel32:KERNEL32.dll
 0000:fff81000       .debug$S                   0000000180000000     kernel32:KERNEL32.dll
 0000:fff81000       .debug$S                   0000000180000000     kernel32:KERNEL32.dll
 0000:fff81000       .debug$S                   0000000180000000     kernel32:KERNEL32.dll
 0000:fff81000       .debug$S                   0000000180000000     kernel32:KERNEL32.dll
 0000:fff81000       .debug$S                   0000000180000000     kernel32:KERNEL32.dll
 0000:fff81000       .debug$S                   0000000180000000     kernel32:KERNEL32.dll
 0000:fff81000       .debug$S                   0000000180000000     kernel32:KERNEL32.dll
 0000:fff81000       .debug$S                   0000000180000000     kernel32:KERNEL32.dll
 0000:fff81000       .debug$S                   0000000180000000     kernel32:KERNEL32.dll
 0000:fff81000       .debug$S                   0000000180000000     kernel32:KERNEL32.dll
 0000:fff81000       .debug$S                   0000000180000000     kernel32:KERNEL32.dll
 0000:fff81000       .debug$S                   0000000180000000     kernel32:KERNEL32.dll
 0000:fff81000       .debug$S                   0000000180000000     kernel32:KERNEL32.dll
 0000:fff81000       .debug$S                   0000000180000000     kernel32:KERNEL32.dll
 0000:fff81000       .debug$S                   0000000180000000     kernel32:KERNEL32.dll
 0000:fff81000       .debug$S                   0000000180000000     oci:OCI.dll
 0000:fff81000       .debug$S                   0000000180000000     kernel32:KERNEL32.dll
 0000:fff81000       .debug$S                   0000000180000000     oci:OCI.dll
 0000:fff81000       .debug$S                   0000000180000000     oci:OCI.dll
 0000:fff81000       .debug$S                   0000000180000000     kernel32:KERNEL32.dll
 0000:fff81000       .debug$S                   0000000180000000     node:node.exe
 0000:fff81000       .debug$S                   0000000180000000     oci:OCI.dll
 0000:fff81000       .debug$S                   0000000180000000     kernel32:KERNEL32.dll
 0000:fff81000       .debug$S                   0000000180000000     kernel32:KERNEL32.dll
 0000:fff81000       .debug$S                   0000000180000000     oci:OCI.dll
 0000:fff81000       .debug$S                   0000000180000000     oci:OCI.dll
 0000:fff81000       .debug$S                   0000000180000000     oci:OCI.dll
 0000:fff81000       .debug$S                   0000000180000000     kernel32:KERNEL32.dll
 0000:fff81000       .debug$S                   0000000180000000     oci:OCI.dll
 0000:fff81000       .debug$S                   0000000180000000     oci:OCI.dll
 0000:fff81000       .debug$S                   0000000180000000     oci:OCI.dll
 0000:fff81000       .debug$S                   0000000180000000     oci:OCI.dll
 0000:fff81000       .debug$S                   0000000180000000     oci:OCI.dll
 0000:fff81000       .debug$S                   0000000180000000     oci:OCI.dll
 0000:fff81000       .debug$S                   0000000180000000     oci:OCI.dll
 0000:fff81000       .debug$S                   0000000180000000     oci:OCI.dll
 0000:fff81000       .debug$S                   0000000180000000     oci:OCI.dll
 0000:fff81000       .debug$S                   0000000180000000     oci:OCI.dll
 0000:fff81000       .debug$S                   0000000180000000     oci:OCI.dll
 0000:fff81000       .debug$S                   0000000180000000     oci:OCI.dll
 0000:fff81000       .debug$S                   0000000180000000     oci:OCI.dll
 0000:fff81000       .debug$S                   0000000180000000     kernel32:KERNEL32.dll
 0000:fff81000       .debug$S                   0000000180000000     kernel32:KERNEL32.dll
 0000:fff81000       .debug$S                   0000000180000000     oci:OCI.dll
 0000:fff81000       .debug$S                   0000000180000000     oci:OCI.dll
 0000:fff81000       .debug$S                   0000000180000000     kernel32:KERNEL32.dll
 0000:fff81000       .debug$S                   0000000180000000     kernel32:KERNEL32.dll
 0000:fff81000       .debug$S                   0000000180000000     kernel32:KERNEL32.dll
 0000:fff81000       .debug$S                   0000000180000000     oci:OCI.dll
 0000:fff81000       .debug$S                   0000000180000000     kernel32:KERNEL32.dll
 0000:fff81000       .debug$S                   0000000180000000     oci:OCI.dll
 0000:fff81000       .debug$S                   0000000180000000     oci:OCI.dll
 0000:fff81000       .debug$S                   0000000180000000     oci:OCI.dll
 0000:fff81000       .debug$S                   0000000180000000     oci:OCI.dll
 0000:fff81000       .debug$S                   0000000180000000     kernel32:KERNEL32.dll
 0000:fff81000       .debug$S                   0000000180000000     oci:OCI.dll
 0000:fff81000       .debug$S                   0000000180000000     kernel32:KERNEL32.dll
 0000:fff81000       .debug$S                   0000000180000000     kernel32:KERNEL32.dll
 0000:fff81000       .debug$S                   0000000180000000     oci:OCI.dll
 0000:fff81000       .debug$S                   0000000180000000     oci:OCI.dll
 0000:fff81000       .debug$S                   0000000180000000     kernel32:KERNEL32.dll
 0000:fff81000       .debug$S                   0000000180000000     oci:OCI.dll
 0000:fff81000       .debug$S                   0000000180000000     kernel32:KERNEL32.dll
 0000:fff81000       .debug$S                   0000000180000000     kernel32:KERNEL32.dll
 0000:fff81000       .debug$S                   0000000180000000     kernel32:KERNEL32.dll
 0000:fff81000       .debug$S                   0000000180000000     kernel32:KERNEL32.dll
 0000:fff81000       .debug$S                   0000000180000000     kernel32:KERNEL32.dll
 0000:fff81000       .debug$S                   0000000180000000     kernel32:KERNEL32.dll
 0000:fff81000       .debug$S                   0000000180000000     kernel32:KERNEL32.dll
 0000:fff81000       .debug$S                   0000000180000000     kernel32:KERNEL32.dll
 0000:fff81000       .debug$S                   0000000180000000     kernel32:KERNEL32.dll
 0000:fff81000       .debug$S                   0000000180000000     kernel32:KERNEL32.dll
 0000:fff81000       .debug$S                   0000000180000000     kernel32:KERNEL32.dll
 0000:fff81000       .debug$S                   0000000180000000     oracledb.exp
 0000:fff81000       .debug$S                   0000000180000000     kernel32:KERNEL32.dll
 0000:fff81000       .debug$S                   0000000180000000     kernel32:KERNEL32.dll
 0000:fff81000       .debug$S                   0000000180000000     kernel32:KERNEL32.dll
 0000:fff81000       .debug$S                   0000000180000000     kernel32:KERNEL32.dll
 0000:fff81000       .debug$S                   0000000180000000     kernel32:KERNEL32.dll
 0000:fff81000       .debug$S                   0000000180000000     kernel32:KERNEL32.dll
 0000:fff81000       .debug$S                   0000000180000000     kernel32:KERNEL32.dll
 0000:fff81000       .debug$S                   0000000180000000     kernel32:KERNEL32.dll
 0000:fff81000       .debug$S                   0000000180000000     kernel32:KERNEL32.dll
 0000:fff81000       .debug$S                   0000000180000000     kernel32:KERNEL32.dll
 0000:fff81000       .debug$S                   0000000180000000     kernel32:KERNEL32.dll
 0000:fff81000       .debug$S                   0000000180000000     kernel32:KERNEL32.dll
 0001:00000000       ??__E?oracledbTemplate_s@Oracledb@@0V?$Persistent@VFunctionTemplate@v8@@V?$NonCopyablePersistentTraits@VFunctionTemplate@v8@@@2@@Nan@@A@@YAXXZ 0000000180001000 f   njsOracle.obj
 0001:00000010       ??__E?poolTemplate_s@Pool@@2V?$Persistent@VFunctionTemplate@v8@@V?$NonCopyablePersistentTraits@VFunctionTemplate@v8@@@2@@Nan@@A@@YAXXZ 0000000180001010 f   njsPool.obj
 0001:00000020       ??__E?connectionTemplate_s@Connection@@2V?$Persistent@VFunctionTemplate@v8@@V?$NonCopyablePersistentTraits@VFunctionTemplate@v8@@@2@@Nan@@A@@YAXXZ 0000000180001020 f   njsConnection.obj
 0001:00000030       ??__E?resultSetTemplate_s@ResultSet@@2V?$Persistent@VFunctionTemplate@v8@@V?$NonCopyablePersistentTraits@VFunctionTemplate@v8@@@2@@Nan@@A@@YAXXZ 0000000180001030 f   njsResultSet.obj
 0001:00000040       ??__E?iLobTemplate_s@ILob@@2V?$Persistent@VFunctionTemplate@v8@@V?$NonCopyablePersistentTraits@VFunctionTemplate@v8@@@2@@Nan@@A@@YAXXZ 0000000180001040 f   njsIntLob.obj
 0001:00000050       ??__E?s_propPingName_@ConnImpl@@0V?$basic_string@DU?$char_traits@D@std@@V?$allocator@D@2@@std@@A@@YAXXZ 0000000180001050 f   dpiConnImpl.obj
 0001:00000080       ??__Einitlocks@std@@YAXXZ  0000000180001080 f   libcpmt:xlock.obj
 0001:000000a0       ??__E_Fac_tidy_reg@std@@YAXXZ 00000001800010a0 f   libcpmt:locale0.obj
 0001:000000ac       ??__Eclassic_locale@std@@YAXXZ 00000001800010ac f   libcpmt:locale0.obj
 0001:000000b8       ??__Einit_atexit@@YAXXZ    00000001800010b8 f   libcpmt:iosptrs.obj
 0001:000000c4       ??__Einitlocks@std@@YAXXZ  00000001800010c4 f   libcpmt:iosptrs.obj
 0001:00000c00       ?FunctionCallbackWrapper@imp@Nan@@YAXAEBV?$FunctionCallbackInfo@VValue@v8@@@v8@@@Z 0000000180001c00 f   njsOracle.obj
 0001:00000cd0       ?GetterCallbackWrapper@imp@Nan@@YAXV?$Local@VName@v8@@@v8@@AEBV?$PropertyCallbackInfo@VValue@v8@@@4@@Z 0000000180001cd0 f   njsOracle.obj
 0001:00000da0       ?SetterCallbackWrapper@imp@Nan@@YAXV?$Local@VName@v8@@@v8@@V?$Local@VValue@v8@@@4@AEBV?$PropertyCallbackInfo@X@4@@Z 0000000180001da0 f   njsOracle.obj
 0001:00009220       init                       000000018000a220 f   njsOracle.obj
 0001:00009260       _register_oracledb         000000018000a260 f   njsOracle.obj
 0001:00009fd0       no_op_initialize           000000018000afd0 f i libucrt:wsetlocale.obj
 0001:0000d2e0       ??$_Reallocate_grow_by@V<lambda_e1befb086ad3257e3f042a63030725f7>@@_KD@?$basic_string@DU?$char_traits@D@std@@V?$allocator@D@2@@std@@QEAAAEAV01@_KV<lambda_e1befb086ad3257e3f042a63030725f7>@@_KD@Z 000000018000e2e0 f   njsOracle.obj
 0001:0000d480       ??$_Reallocate_grow_by@V<lambda_65e615be2a453ca0576c979606f46740>@@PEBD_K@?$basic_string@DU?$char_traits@D@std@@V?$allocator@D@2@@std@@QEAAAEAV01@_KV<lambda_65e615be2a453ca0576c979606f46740>@@PEBD_K@Z 000000018000e480 f   njsOracle.obj
 0001:0000d620       ??$_Reallocate_grow_by@V<lambda_b986da8d428e4af07c64af60eec09b61>@@_K_KD@?$basic_string@DU?$char_traits@D@std@@V?$allocator@D@2@@std@@QEAAAEAV01@_KV<lambda_b986da8d428e4af07c64af60eec09b61>@@_K2D@Z 000000018000e620 f   njsOracle.obj
 0001:000160f8       $LN145                     00000001800170f8     njsConnection.obj
 0001:00016fb4       $LN1200                    0000000180017fb4     njsConnection.obj
 0001:0001a228       $LN391                     000000018001b228     njsConnection.obj
 0001:0001a24c       $LN390                     000000018001b24c     njsConnection.obj
 0001:0001a384       $LN9                       000000018001b384     njsConnection.obj
 0001:0001a394       $LN8                       000000018001b394     njsConnection.obj
 0001:0001a6a4       $LN110                     000000018001b6a4     njsConnection.obj
 0001:0001a6b4       $LN109                     000000018001b6b4     njsConnection.obj
 0001:0001b718       $LN1082                    000000018001c718     njsConnection.obj
 0001:0001b734       $LN1081                    000000018001c734     njsConnection.obj
 0001:0001d4bc       $LN418                     000000018001e4bc     njsConnection.obj
 0001:0001d4cc       $LN417                     000000018001e4cc     njsConnection.obj
 0001:0001e2e4       $LN178                     000000018001f2e4     njsConnection.obj
 0001:0001e300       $LN177                     000000018001f300     njsConnection.obj
 0001:0001eaa8       $LN281                     000000018001faa8     njsConnection.obj
 0001:0001eac0       $LN280                     000000018001fac0     njsConnection.obj
 0001:00022414       $LN1011                    0000000180023414     njsConnection.obj
 0001:00022438       $LN1010                    0000000180023438     njsConnection.obj
 0001:00022674       $LN23                      0000000180023674     njsConnection.obj
 0001:0002268c       $LN22                      000000018002368c     njsConnection.obj
 0001:00023200       ??$_Reallocate_grow_by@V<lambda_f3a66ab6a0570788f31503db83886f49>@@_KPEBD_K@?$basic_string@DU?$char_traits@D@std@@V?$allocator@D@2@@std@@QEAAAEAV01@_KV<lambda_f3a66ab6a0570788f31503db83886f49>@@_KPEBD2@Z 0000000180024200 f   njsConnection.obj
 0001:0002eb50       ?ociCallCommon@@YAXHPEAXI@Z 000000018002fb50 f   dpiUtils.obj
 0001:0002ec40       ?load_exe_hook@@YAP6A_JXZIPEAUDelayLoadInfo@@@Z 000000018002fc40 f   win_delay_load_hook.obj
 0001:0002f6f4       tidy_global                00000001800306f4 f   libcpmt:locale0.obj
 0001:0002fe30       ?swfun@std@@YAXAEAVios_base@1@_J@Z 0000000180030e30 f   libcpmt:iomanip.obj
 0001:0002fe60       ?initialize_pointers@@YAHXZ 0000000180030e60 f   libcpmt:winapisupp.obj
 0001:00030930       $$000000                   0000000180031930     LIBCMT:_amdsecgs_.obj
 0001:0003096c       ?__scrt_initialize_thread_safe_statics@@YAHXZ 000000018003196c f   LIBCMT:thread_safe_statics.obj
 0001:00030ab8       ?__scrt_uninitialize_thread_safe_statics@@YAXXZ 0000000180031ab8 f   LIBCMT:thread_safe_statics.obj
 0001:000313f8       capture_current_context    00000001800323f8 f   LIBCMT:gs_report.obj
 0001:00031468       capture_previous_context   0000000180032468 f   LIBCMT:gs_report.obj
 0001:000314dc       ?dllmain_crt_dispatch@@YAHQEAUHINSTANCE__@@KQEAX@Z 00000001800324dc f   LIBCMT:dll_dllmain.obj
 0001:0003152c       ?dllmain_crt_process_attach@@YAHQEAUHINSTANCE__@@QEAX@Z 000000018003252c f   LIBCMT:dll_dllmain.obj
 0001:00031640       ?dllmain_crt_process_detach@@YAH_N@Z 0000000180032640 f   LIBCMT:dll_dllmain.obj
 0001:000316cc       ?dllmain_dispatch@@YAHQEAUHINSTANCE__@@KQEAX@Z 00000001800326cc f   LIBCMT:dll_dllmain.obj
 0001:000317c4       ?dllmain_raw@@YAHQEAUHINSTANCE__@@KQEAX@Z 00000001800327c4 f   LIBCMT:dll_dllmain.obj
 0001:00031960       $$000000                   0000000180032960     LIBCMT:_chkstk_.obj
 0001:00032510       $$000000                   0000000180033510     libvcruntime:memcpy.obj
 0001:000325b7       MoveSmall                  00000001800335b7     libvcruntime:memcpy.obj
 0001:00032c70       $$000000                   0000000180033c70     libvcruntime:memset.obj
 0001:00032d6c       MsetTab                    0000000180033d6c     libvcruntime:memset.obj
 0001:00032e30       $$000000                   0000000180033e30     libvcruntime:memchr.obj
 0001:00032eb0       $$000000                   0000000180033eb0     libvcruntime:memcmp.obj
 0001:00032f88       ?try_get_function@@YAPEAXW4function_id@?A0x2db55455@@QEBDQEBW4module_id@2@2@Z 0000000180033f88 f   libvcruntime:winapi_downlevel.obj
 0001:000339c8       ?CatchIt@@YAXPEAUEHExceptionRecord@@PEA_KPEAU_CONTEXT@@PEAU_xDISPATCHER_CONTEXT@@PEBU_s_FuncInfo@@PEBU_s_HandlerType@@PEBU_s_CatchableType@@PEBU_s_TryBlockMapEntry@@H1EE@Z 00000001800349c8 f   libvcruntime:frame.obj
 0001:00033a8c       ?ExFilterRethrow@@YAHPEAU_EXCEPTION_POINTERS@@PEAUEHExceptionRecord@@PEAH@Z 0000000180034a8c f   libvcruntime:frame.obj
 0001:00033b14       ?FindHandler@@YAXPEAUEHExceptionRecord@@PEA_KPEAU_CONTEXT@@PEAU_xDISPATCHER_CONTEXT@@PEBU_s_FuncInfo@@EH1@Z 0000000180034b14 f   libvcruntime:frame.obj
 0001:00033fe4       ?FindHandlerForForeignException@@YAXPEAUEHExceptionRecord@@PEA_KPEAU_CONTEXT@@PEAU_xDISPATCHER_CONTEXT@@PEBU_s_FuncInfo@@HH1@Z 0000000180034fe4 f   libvcruntime:frame.obj
 0001:00034250       ?IsInExceptionSpec@@YAEPEAUEHExceptionRecord@@PEBU_s_ESTypeList@@@Z 0000000180035250 f   libvcruntime:frame.obj
 0001:00034da0       $$000000                   0000000180035da0     libvcruntime:_jmpuwind_.obj
 0001:00034e50       $$000000                   0000000180035e50     libvcruntime:handlers.obj
 0001:0003524c       ??$?RV<lambda_0d412022a4b28cc8a401ea49574e8ae6>@@AEAV<lambda_a775ed57af18ba8e4d5dc780aa9068fe>@@V<lambda_975a71a6baa488a08f4e15f6b0339b9e>@@@?$__crt_seh_guarded_call@H@@QEAAH$$QEAV<lambda_0d412022a4b28cc8a401ea49574e8ae6>@@AEAV<lambda_a775ed57af18ba8e4d5dc780aa9068fe>@@$$QEAV<lambda_975a71a6baa488a08f4e15f6b0339b9e>@@@Z 000000018003624c f   libucrt:output.obj
 0001:0003528c       ??$common_vsprintf@Vformat_validation_base@__crt_stdio_output@@D@@YAH_KQEAD0QEBDQEAU__crt_locale_pointers@@1@Z 000000018003628c f   libucrt:output.obj
 0001:00035458       ??$common_vsprintf@Vstandard_base@__crt_stdio_output@@D@@YAH_KQEAD0QEBDQEAU__crt_locale_pointers@@1@Z 0000000180036458 f   libucrt:output.obj
 0001:00035624       ??$common_vsprintf@Vstandard_base@__crt_stdio_output@@_W@@YAH_KQEA_W0QEB_WQEAU__crt_locale_pointers@@QEAD@Z 0000000180036624 f   libucrt:output.obj
 0001:00035d8c       ??R<lambda_a775ed57af18ba8e4d5dc780aa9068fe>@@QEBAHXZ 0000000180036d8c f   libucrt:output.obj
 0001:00038b58       ??$common_assert_to_message_box@_W@@YAXQEB_W0IQEAX@Z 0000000180039b58 f   libucrt:assert.obj
 0001:00038c1c       ??$common_assert_to_message_box_build_string@_W@@YAXQEA_W_KQEB_W2IQEAX@Z 0000000180039c1c f   libucrt:assert.obj
 0001:000393dc       ??$common_assert_to_stderr@_W@@YAXQEB_W0I@Z 000000018003a3dc f   libucrt:assert.obj
 0001:0003954c       ?get_assert_format@@YAPEB_W_W@Z 000000018003a54c f   libucrt:assert.obj
 0001:000398bc       ??$?RV<lambda_9bd929c17696992ce54f1d748594fc62>@@AEAV<lambda_082c17da81b0962e08c0587ee0fac50c>@@V<lambda_9c08ac857f4975304d44e9f601d9b878>@@@?$__crt_seh_guarded_call@PEAD@@QEAAPEAD$$QEAV<lambda_9bd929c17696992ce54f1d748594fc62>@@AEAV<lambda_082c17da81b0962e08c0587ee0fac50c>@@$$QEAV<lambda_9c08ac857f4975304d44e9f601d9b878>@@@Z 000000018003a8bc f   libucrt:setlocale.obj
 0001:000398fc       ??R<lambda_082c17da81b0962e08c0587ee0fac50c>@@QEBAPEADXZ 000000018003a8fc f   libucrt:setlocale.obj
 0001:0003a5ec       ?x_ismbbtype_l@@YAHPEAU__crt_locale_pointers@@IHH@Z 000000018003b5ec f   libucrt:ismbbyte.obj
 0001:0003ac2c       memcpy_s                   000000018003bc2c f   libucrt:cfout.obj
 0001:0003ac2c       memcpy_s                   000000018003bc2c f   libucrt:strtod.obj
 0001:0003acc0       $$000000                   000000018003bcc0     libucrt:pow.obj
 0001:0003c360       $$000000                   000000018003d360     libucrt:powf.obj
 0001:0003d280       ?internal_isupper_l@@YA_NHQEAU__crt_locale_pointers@@@Z 000000018003e280 f   libucrt:tolower_toupper.obj
 0001:0003d9b4       ??$?RV<lambda_d80eeec6fff315bfe5c115232f3240e3>@@AEAV<lambda_6e4b09c48022b2350581041d5f6b0c4c>@@V<lambda_2358e3775559c9db80273638284d5e45>@@@?$__crt_seh_guarded_call@X@@QEAAX$$QEAV<lambda_d80eeec6fff315bfe5c115232f3240e3>@@AEAV<lambda_6e4b09c48022b2350581041d5f6b0c4c>@@$$QEAV<lambda_2358e3775559c9db80273638284d5e45>@@@Z 000000018003e9b4 f   libucrt:exit.obj
 0001:0003d9ec       ??R<lambda_6e4b09c48022b2350581041d5f6b0c4c>@@QEBA@XZ 000000018003e9ec f   libucrt:exit.obj
 0001:0003dac4       ?atexit_exception_filter@@YAHK@Z 000000018003eac4 f   libucrt:exit.obj
 0001:0003dad0       ?common_exit@@YAXHW4_crt_exit_cleanup_mode@@W4_crt_exit_return_mode@@@Z 000000018003ead0 f   libucrt:exit.obj
 0001:0003db8c       ?exit_or_terminate_process@@YAXI@Z 000000018003eb8c f   libucrt:exit.obj
 0001:0003dbd8       ?try_cor_exit_process@@YAXI@Z 000000018003ebd8 f   libucrt:exit.obj
 0001:0003dc60       ??$parse_command_line@D@@YAXPEADPEAPEAD0PEA_K2@Z 000000018003ec60 f   libucrt:argv_parsing.obj
 0001:0003e004       ??$common_initialize_environment_nolock@D@@YAHXZ 000000018003f004 f   libucrt:environment_initialization.obj
 0001:0003e070       ??$create_environment@D@@YAQEAPEADQEAD@Z 000000018003f070 f   libucrt:environment_initialization.obj
 0001:0003e17c       ??$free_environment@D@@YAXQEAPEAD@Z 000000018003f17c f   libucrt:environment_initialization.obj
 0001:0003e17c       ??$free_environment@_W@@YAXQEAPEA_W@Z 000000018003f17c f   libucrt:environment_initialization.obj
 0001:0003e1c0       ??$uninitialize_environment_internal@D@@YAXAEAPEAPEAD@Z 000000018003f1c0 f   libucrt:environment_initialization.obj
 0001:0003e1dc       ??$uninitialize_environment_internal@_W@@YAXAEAPEAPEA_W@Z 000000018003f1dc f   libucrt:environment_initialization.obj
 0001:0003e238       ??$?RV<lambda_7777bce6b2f8c936911f934f8298dc43>@@AEAV<lambda_f03950bc5685219e0bcd2087efbe011e>@@V<lambda_3883c3dff614d5e0c5f61bb1ac94921c>@@@?$__crt_seh_guarded_call@H@@QEAAH$$QEAV<lambda_7777bce6b2f8c936911f934f8298dc43>@@AEAV<lambda_f03950bc5685219e0bcd2087efbe011e>@@$$QEAV<lambda_3883c3dff614d5e0c5f61bb1ac94921c>@@@Z 000000018003f238 f   libucrt:onexit.obj
 0001:0003e274       ??$?RV<lambda_8369fcb7c4df1e85de37618bd2b85f07>@@AEAV<lambda_a10e4b102d4a2c3aac6f4f48bbdf488f>@@V<lambda_5b7707bd6d7a0c4713179f36c7fd995d>@@@?$__crt_seh_guarded_call@H@@QEAAH$$QEAV<lambda_8369fcb7c4df1e85de37618bd2b85f07>@@AEAV<lambda_a10e4b102d4a2c3aac6f4f48bbdf488f>@@$$QEAV<lambda_5b7707bd6d7a0c4713179f36c7fd995d>@@@Z 000000018003f274 f   libucrt:onexit.obj
 0001:0003e2b0       ??R<lambda_a10e4b102d4a2c3aac6f4f48bbdf488f>@@QEBAHXZ 000000018003f2b0 f   libucrt:onexit.obj
 0001:0003e474       ??R<lambda_f03950bc5685219e0bcd2087efbe011e>@@QEBAHXZ 000000018003f474 f   libucrt:onexit.obj
 0001:0003e694       initialize_global_variables 000000018003f694 f   libucrt:initialization.obj
 0001:0003e6a8       initialize_c               000000018003f6a8 f   libucrt:initialization.obj
 0001:0003e6cc       uninitialize_environment   000000018003f6cc f   libucrt:initialization.obj
 0001:0003e6dc       initialize_pointers        000000018003f6dc f   libucrt:initialization.obj
 0001:0003e730       uninitialize_vcruntime     000000018003f730 f   libucrt:initialization.obj
 0001:0003e738       uninitialize_allocated_memory 000000018003f738 f   libucrt:initialization.obj
 0001:0003f360       ??$?RV<lambda_450d765d439847d4c735a33c368b5fc0>@@AEAV<lambda_44731a7d0e6d81c3e6aa82d741081786>@@V<lambda_601a2a7da3b7a96e9554ac7215c4b07c>@@@?$__crt_seh_guarded_call@P6AXH@Z@@QEAAP6AXH@Z$$QEAV<lambda_450d765d439847d4c735a33c368b5fc0>@@AEAV<lambda_44731a7d0e6d81c3e6aa82d741081786>@@$$QEAV<lambda_601a2a7da3b7a96e9554ac7215c4b07c>@@@Z 0000000180040360 f   libucrt:signal.obj
 0001:0003f66c       ??$?RV<lambda_0ae27a3a962d80f24befdcbee591983d>@@AEAV<lambda_8d0ee55de4b1038c4002e0adecdf1839>@@V<lambda_dc504788e8f1664fe9b84e20bfb512f2>@@@?$__crt_seh_guarded_call@X@@QEAAX$$QEAV<lambda_0ae27a3a962d80f24befdcbee591983d>@@AEAV<lambda_8d0ee55de4b1038c4002e0adecdf1839>@@$$QEAV<lambda_dc504788e8f1664fe9b84e20bfb512f2>@@@Z 000000018004066c f   libucrt:per_thread_data.obj
 0001:0003f6ac       ??$?RV<lambda_2d41944a1d46af3157314b8a01080d33>@@AEAV<lambda_8f455de75cd7d7f24b4096f044d8b9e6>@@V<lambda_aa500f224e6afead328df44964fe2772>@@@?$__crt_seh_guarded_call@X@@QEAAX$$QEAV<lambda_2d41944a1d46af3157314b8a01080d33>@@AEAV<lambda_8f455de75cd7d7f24b4096f044d8b9e6>@@$$QEAV<lambda_aa500f224e6afead328df44964fe2772>@@@Z 00000001800406ac f   libucrt:per_thread_data.obj
 0001:0003f6ec       ??$?RV<lambda_aa87e3671a710a21b5dc78c0bdf72e11>@@AEAV<lambda_92619d2358a28f41a33ba319515a20b9>@@V<lambda_6992ecaafeb10aed2b74cb1fae11a551>@@@?$__crt_seh_guarded_call@X@@QEAAX$$QEAV<lambda_aa87e3671a710a21b5dc78c0bdf72e11>@@AEAV<lambda_92619d2358a28f41a33ba319515a20b9>@@$$QEAV<lambda_6992ecaafeb10aed2b74cb1fae11a551>@@@Z 00000001800406ec f   libucrt:per_thread_data.obj
 0001:0003f734       ??$?RV<lambda_f2e299630e499de9f9a165e60fcd3db5>@@AEAV<lambda_2ae9d31cdba2644fcbeaf08da7c24588>@@V<lambda_40d01ff24d0e7b3814fdbdcee8eab3c7>@@@?$__crt_seh_guarded_call@X@@QEAAX$$QEAV<lambda_f2e299630e499de9f9a165e60fcd3db5>@@AEAV<lambda_2ae9d31cdba2644fcbeaf08da7c24588>@@$$QEAV<lambda_40d01ff24d0e7b3814fdbdcee8eab3c7>@@@Z 0000000180040734 f   libucrt:per_thread_data.obj
 0001:0003f794       ?construct_ptd_array@@YAXQEAU__acrt_ptd@@@Z 0000000180040794 f   libucrt:per_thread_data.obj
 0001:0003f864       ?destroy_fls@@YAXPEAX@Z    0000000180040864 f   libucrt:per_thread_data.obj
 0001:0003f884       ?destroy_ptd_array@@YAXQEAU__acrt_ptd@@@Z 0000000180040884 f   libucrt:per_thread_data.obj
 0001:0003f97c       ?replace_current_thread_locale_nolock@@YAXQEAU__acrt_ptd@@QEAU__crt_locale_data@@@Z 000000018004097c f   libucrt:per_thread_data.obj
 0001:000400e4       ?fp_format_a@@YAHQEBNPEAD_KQEAD2H_NIQEAU__crt_locale_pointers@@@Z 00000001800410e4 f   libucrt:cvt.obj
 0001:00040440       ?fp_format_e@@YAHQEBNQEAD_K12H_NIQEAU__crt_locale_pointers@@@Z 0000000180041440 f   libucrt:cvt.obj
 0001:00040510       ?fp_format_e_internal@@YAHQEAD_KH_NIQEAU_strflt@@2QEAU__crt_locale_pointers@@@Z 0000000180041510 f   libucrt:cvt.obj
 0001:000406e4       ?fp_format_f_internal@@YAHQEAD_KHQEAU_strflt@@_NQEAU__crt_locale_pointers@@@Z 00000001800416e4 f   libucrt:cvt.obj
 0001:0004082c       ?fp_format_g@@YAHQEBNQEAD_K12H_NIQEAU__crt_locale_pointers@@@Z 000000018004182c f   libucrt:cvt.obj
 0001:00040960       ?fp_format_nan_or_infinity@@YAHW4__acrt_fp_class@@_NPEAD_K1@Z 0000000180041960 f   libucrt:cvt.obj
 0001:00041168       ??$?RV<lambda_410d79af7f07d98d83a3f525b3859a53>@@AEAV<lambda_3e16ef9562a7dcce91392c22ab16ea36>@@V<lambda_38119f0e861e05405d8a144b9b982f0a>@@@?$__crt_seh_guarded_call@X@@QEAAX$$QEAV<lambda_410d79af7f07d98d83a3f525b3859a53>@@AEAV<lambda_3e16ef9562a7dcce91392c22ab16ea36>@@$$QEAV<lambda_38119f0e861e05405d8a144b9b982f0a>@@@Z 0000000180042168 f   libucrt:wsetlocale.obj
 0001:000411d8       ??$?RV<lambda_9529fede68560d7205a1271ab16b352e>@@AEAV<lambda_ebf8c556deb379764da826e7bb46e993>@@V<lambda_db92443d3c9ace7c8a20b950bb983b5a>@@@?$__crt_seh_guarded_call@X@@QEAAX$$QEAV<lambda_9529fede68560d7205a1271ab16b352e>@@AEAV<lambda_ebf8c556deb379764da826e7bb46e993>@@$$QEAV<lambda_db92443d3c9ace7c8a20b950bb983b5a>@@@Z 00000001800421d8 f   libucrt:wsetlocale.obj
 0001:00041314       ??$?RV<lambda_d8a01803c7231904df012bb083be9e3a>@@AEAV<lambda_b163b37eafe0a13f2c371fafeb0365c9>@@AEAV<lambda_8dff2cf36a5417162780cd64fa2883ef>@@@?$__crt_seh_guarded_call@X@@QEAAX$$QEAV<lambda_d8a01803c7231904df012bb083be9e3a>@@AEAV<lambda_b163b37eafe0a13f2c371fafeb0365c9>@@AEAV<lambda_8dff2cf36a5417162780cd64fa2883ef>@@@Z 0000000180042314 f   libucrt:wsetlocale.obj
 0001:00041340       ??R<lambda_b163b37eafe0a13f2c371fafeb0365c9>@@QEBA@XZ 0000000180042340 f   libucrt:wsetlocale.obj
 0001:000416ec       _copytlocinfo_nolock       00000001800426ec f   libucrt:wsetlocale.obj
 0001:00041cb4       _wsetlocale_get_all        0000000180042cb4 f   libucrt:wsetlocale.obj
 0001:00041e98       _wsetlocale_nolock         0000000180042e98 f   libucrt:wsetlocale.obj
 0001:00042124       _wsetlocale_set_cat        0000000180043124 f   libucrt:wsetlocale.obj
 0001:00042460       ?initialize_inherited_file_handles_nolock@@YAXXZ 0000000180043460 f   libucrt:ioinit.obj
 0001:0004254c       ?initialize_stdio_handles_nolock@@YAXXZ 000000018004354c f   libucrt:ioinit.obj
 0001:00043158       ??$common_xtox@K_W@@YAHKQEA_W_KI_N@Z 0000000180044158 f   libucrt:xtoa.obj
 0001:00043200       ??$common_xtox_s@K_W@@YAHKQEA_W_KI_N@Z 0000000180044200 f   libucrt:xtoa.obj
 0001:00043504       ??$?RV<lambda_842d9ff0dc9ef11c61343bbaebe7f885>@@AEAV<lambda_c5860995281e5c4ce005b3de8f5874ee>@@V<lambda_d90129c13df834fdcbf8d2b88dafcf2d>@@@?$__crt_seh_guarded_call@X@@QEAAX$$QEAV<lambda_842d9ff0dc9ef11c61343bbaebe7f885>@@AEAV<lambda_c5860995281e5c4ce005b3de8f5874ee>@@$$QEAV<lambda_d90129c13df834fdcbf8d2b88dafcf2d>@@@Z 0000000180044504 f   libucrt:fflush.obj
 0001:000435a0       ??$?RV<lambda_886d6c58226a84441f68b9f2b8217b83>@@AEAV<lambda_ab61a845afdef5b7c387490eaf3616ee>@@V<lambda_f7f22ab5edc0698d5f6905b0d3f44752>@@@?$__crt_seh_guarded_call@X@@QEAAX$$QEAV<lambda_886d6c58226a84441f68b9f2b8217b83>@@AEAV<lambda_ab61a845afdef5b7c387490eaf3616ee>@@$$QEAV<lambda_f7f22ab5edc0698d5f6905b0d3f44752>@@@Z 00000001800445a0 f   libucrt:fflush.obj
 0001:00043688       ??$?RV<lambda_c376a267cfb53b6959b3b692ec76b120>@@AEAV<lambda_9a32fed5bf61b6b509b2d3f6003082a1>@@V<lambda_572fbb9fa0ab338edf41edfd4b5fcc8d>@@@?$__crt_seh_guarded_call@H@@QEAAH$$QEAV<lambda_c376a267cfb53b6959b3b692ec76b120>@@AEAV<lambda_9a32fed5bf61b6b509b2d3f6003082a1>@@$$QEAV<lambda_572fbb9fa0ab338edf41edfd4b5fcc8d>@@@Z 0000000180044688 f   libucrt:fflush.obj
 0001:000436c8       ?common_flush_all@@YAH_N@Z 00000001800446c8 f   libucrt:fflush.obj
 0001:00043860       ??$?RV<lambda_84ec643ea9557e2f7dc01bb0e9624395>@@AEAV<lambda_ca71763b3c0644891230e4f79ea54fa6>@@V<lambda_439a761618c59b0600e24586724d733b>@@@?$__crt_seh_guarded_call@H@@QEAAH$$QEAV<lambda_84ec643ea9557e2f7dc01bb0e9624395>@@AEAV<lambda_ca71763b3c0644891230e4f79ea54fa6>@@$$QEAV<lambda_439a761618c59b0600e24586724d733b>@@@Z 0000000180044860 f   libucrt:setvbuf.obj
 0001:000438a0       ??R<lambda_ca71763b3c0644891230e4f79ea54fa6>@@QEBAHXZ 00000001800448a0 f   libucrt:setvbuf.obj
 0001:00043a2c       ?<lambda_invoker_cdecl>@<lambda_795c6bd18aed400428efeb9a5f0e1479>@@CAHPEA_W@Z 0000000180044a2c f   libucrt:winapi_thunks.obj
 0001:00043a54       ??$?RV<lambda_bd00b5aa228bd7e7e5b2b5db5fd2933b>@@AEAV<lambda_777d11615145f89ee95b9466d285deeb>@@V<lambda_6e5e48fbd24f9f8f81b203eb3d877683>@@@?$__crt_seh_guarded_call@H@@QEAAH$$QEAV<lambda_bd00b5aa228bd7e7e5b2b5db5fd2933b>@@AEAV<lambda_777d11615145f89ee95b9466d285deeb>@@$$QEAV<lambda_6e5e48fbd24f9f8f81b203eb3d877683>@@@Z 0000000180044a54 f   libucrt:winapi_thunks.obj
 0001:00043aec       ?try_get_function@@YAPEAXW4function_id@?A0x391cf84c@@QEBDQEBW4module_id@2@2@Z 0000000180044aec f   libucrt:winapi_thunks.obj
 0001:000446f8       ?_mbstowcs_l_helper@@YA_KPEA_WPEBD_KPEAU__crt_locale_pointers@@@Z 00000001800456f8 f   libucrt:mbstowcs.obj
 0001:00044a28       ?_wcstombs_l_helper@@YA_KPEADPEB_W_KPEAU__crt_locale_pointers@@@Z 0000000180045a28 f   libucrt:wcstombs.obj
 0001:00044f88       ?InternalGetLocaleInfoA@@YAHQEAU__crt_locale_pointers@@QEB_WKQEADH@Z 0000000180045f88 f   libucrt:getlocaleinfoa.obj
 0001:0004549c       ?__acrt_LCMapStringA_stat@@YAHPEAU__crt_locale_pointers@@PEB_WKPEBDHPEADHHH@Z 000000018004649c f   libucrt:lcmapstringa.obj
 0001:00045f14       ?<lambda_invoker_cdecl>@<lambda_c2303d2482d7c3675ea2e24c4cfb6115>@@CAHPEBX0@Z 0000000180046f14 f   libucrt:argv_wildcards.obj
 0001:00045f28       ??$common_expand_argv_wildcards@D@@YAHQEAPEADQEAPEAPEAD@Z 0000000180046f28 f   libucrt:argv_wildcards.obj
 0001:00046134       ??$copy_and_add_argument_to_buffer@D@@YAHQEBD0_KAEAV?$argument_list@D@?A0x5f5c8891@@@Z 0000000180047134 f   libucrt:argv_wildcards.obj
 0001:000462cc       ??$expand_argument_wildcards@D@@YAHQEAD0AEAV?$argument_list@D@?A0x5f5c8891@@@Z 00000001800472cc f   libucrt:argv_wildcards.obj
 0001:00046480       ??$?RV<lambda_efdfa57d1f175319df784efa44bb7b81>@@AEAV<lambda_5f0a4c1567f8adc6734073e5d1e1b35c>@@V<lambda_2e8a7d3640ea6ccb4c2413664c2db6fd>@@@?$__crt_seh_guarded_call@X@@QEAAX$$QEAV<lambda_efdfa57d1f175319df784efa44bb7b81>@@AEAV<lambda_5f0a4c1567f8adc6734073e5d1e1b35c>@@$$QEAV<lambda_2e8a7d3640ea6ccb4c2413664c2db6fd>@@@Z 0000000180047480 f   libucrt:mbctype.obj
 0001:00046654       ?getSystemCP@@YAHH@Z       0000000180047654 f   libucrt:mbctype.obj
 0001:000466d4       ?setSBCS@@YAXPEAU__crt_multibyte_data@@@Z 00000001800476d4 f   libucrt:mbctype.obj
 0001:00046764       ?setSBUpLow@@YAXPEAU__crt_multibyte_data@@@Z 0000000180047764 f   libucrt:mbctype.obj
 0001:00046948       ?setmbcp_internal@@YAHH_NQEAU__acrt_ptd@@QEAPEAU__crt_multibyte_data@@@Z 0000000180047948 f   libucrt:mbctype.obj
 0001:00046b0c       ?update_thread_multibyte_data_internal@@YAPEAU__crt_multibyte_data@@QEAU__acrt_ptd@@QEAU1@@Z 0000000180047b0c f   libucrt:mbctype.obj
 0001:00046f08       initialize_global_state_isolation 0000000180047f08 f   libucrt:initialization.obj
 0001:00046f08       report_memory_leaks        0000000180047f08 f   libucrt:initialization.obj
 0001:00046f08       initialize_environment     0000000180047f08 f   libucrt:initialization.obj
 0001:00046f08       uninitialize_c             0000000180047f08 f   libucrt:initialization.obj
 0001:00046f08       uninitialize_global_state_isolation 0000000180047f08 f   libucrt:initialization.obj
 0001:0004898c       ??$write_buffer_nolock@D@@YA_NDV__crt_stdio_stream@@@Z 000000018004998c f   libucrt:_flsbuf.obj
 0001:00048a6c       ??$write_buffer_nolock@_W@@YA_N_WV__crt_stdio_stream@@@Z 0000000180049a6c f   libucrt:_flsbuf.obj
 0001:00049808       ?free_crt_array_internal@@YAXQEAPEBX_K@Z 000000018004a808 f   libucrt:inittime.obj
 0001:00049860       ?initialize_lc_time@@YA_NQEAU__crt_lc_time_data@@QEAU__crt_locale_data@@@Z 000000018004a860 f   libucrt:inittime.obj
 0001:00049e98       GetLocaleNameFromDefault   000000018004ae98 f   libucrt:get_qualified_locale.obj
 0001:00049f40       GetLocaleNameFromLangCountry 000000018004af40 f   libucrt:get_qualified_locale.obj
 0001:0004a010       GetLocaleNameFromLanguage  000000018004b010 f   libucrt:get_qualified_locale.obj
 0001:0004a0ac       LangCountryEnumProcEx      000000018004b0ac f   libucrt:get_qualified_locale.obj
 0001:0004a460       LanguageEnumProcEx         000000018004b460 f   libucrt:get_qualified_locale.obj
 0001:0004a54c       ProcessCodePage            000000018004b54c f   libucrt:get_qualified_locale.obj
 0001:0004a600       TestDefaultCountry         000000018004b600 f   libucrt:get_qualified_locale.obj
 0001:0004a668       TranslateName              000000018004b668 f   libucrt:get_qualified_locale.obj
 0001:0004a924       CountryEnumProc            000000018004b924 f   libucrt:getqloc_downlevel.obj
 0001:0004aa0c       GetLcidFromLangCountry     000000018004ba0c f   libucrt:getqloc_downlevel.obj
 0001:0004aadc       GetLcidFromLanguage        000000018004badc f   libucrt:getqloc_downlevel.obj
 0001:0004ab74       LangCountryEnumProc        000000018004bb74 f   libucrt:getqloc_downlevel.obj
 0001:0004adb4       LanguageEnumProc           000000018004bdb4 f   libucrt:getqloc_downlevel.obj
 0001:0004aeb0       LcidFromHexString          000000018004beb0 f   libucrt:getqloc_downlevel.obj
 0001:0004af00       ProcessCodePage            000000018004bf00 f   libucrt:getqloc_downlevel.obj
 0001:0004afb0       TestDefaultLanguage        000000018004bfb0 f   libucrt:getqloc_downlevel.obj
 0001:0004b05c       TranslateName              000000018004c05c f   libucrt:getqloc_downlevel.obj
 0001:0004b690       $$000000                   000000018004c690     libucrt:fpsr.obj
 0001:0004b6f0       ??$?RV<lambda_a37b2b86f63e897a80ea819b0eb08c01>@@AEAV<lambda_38ce7e780aa69e748d6df282ebc68efe>@@V<lambda_99fb1378e971ab6e7edea83e3a7a83a2>@@@?$__crt_seh_guarded_call@H@@QEAAH$$QEAV<lambda_a37b2b86f63e897a80ea819b0eb08c01>@@AEAV<lambda_38ce7e780aa69e748d6df282ebc68efe>@@$$QEAV<lambda_99fb1378e971ab6e7edea83e3a7a83a2>@@@Z 000000018004c6f0 f   libucrt:commit.obj
 0001:0004b810       ?write_double_translated_ansi_nolock@@YA?AUwrite_result@?A0x17268360@@HQEBDI@Z 000000018004c810 f   libucrt:write.obj
 0001:0004ba74       ?write_requires_double_translation_nolock@@YA_NH@Z 000000018004ca74 f   libucrt:write.obj
 0001:0004bb18       ?write_text_ansi_nolock@@YA?AUwrite_result@?A0x17268360@@HQEBDI@Z 000000018004cb18 f   libucrt:write.obj
 0001:0004bc1c       ?write_text_utf16le_nolock@@YA?AUwrite_result@?A0x17268360@@HQEBDI@Z 000000018004cc1c f   libucrt:write.obj
 0001:0004bd38       ?write_text_utf8_nolock@@YA?AUwrite_result@?A0x17268360@@HQEBDI@Z 000000018004cd38 f   libucrt:write.obj
 0001:0004c240       ?GetTableIndexFromLocaleName@@YAHPEB_W@Z 000000018004d240 f   libucrt:lcidtoname_downlevel.obj
 0001:0004c828       _call_matherr              000000018004d828 f   libucrt:libm_error.obj
 0001:0004c890       _exception_enabled         000000018004d890 f   libucrt:libm_error.obj
 0001:0004cca0       ?shortsort@@YAXPEAD0_KP6AHPEBX2@Z@Z 000000018004dca0 f   libucrt:qsort.obj
 0001:0004d1f0       ?initialize_multibyte@@YAHXZ 000000018004e1f0 f   libucrt:multibyte_initializer.obj
 0001:0004d3d0       $$000000                   000000018004e3d0     libucrt:log10.obj
 0001:0004d97c       ??$common_lseek@_J@@YA_JH_JH@Z 000000018004e97c f   libucrt:lseek.obj
 0001:0004da80       ??$common_lseek_nolock@_J@@YA_JH_JH@Z 000000018004ea80 f   libucrt:lseek.obj
 0001:0004dfc0       _log_special_common        000000018004efc0 f   libucrt:log_special.obj
 0001:0004e058       ??$?RV<lambda_751a882b2c74d4b022dec766aa51a29a>@@AEAV<lambda_628dfdc04ba53c8bfc02c9951375f3f5>@@V<lambda_f6c7be5f7998530c34de24c7437d6b54>@@@?$__crt_seh_guarded_call@H@@QEAAH$$QEAV<lambda_751a882b2c74d4b022dec766aa51a29a>@@AEAV<lambda_628dfdc04ba53c8bfc02c9951375f3f5>@@$$QEAV<lambda_f6c7be5f7998530c34de24c7437d6b54>@@@Z 000000018004f058 f   libucrt:close.obj
 0001:0004ecf0       $$000000                   000000018004fcf0     LIBCMT:_guard_dispatch_.obj
 0001:0004ed10       $$000000                   000000018004fd10     LIBCMT:_rfgfailure_.obj
 0001:0004edd0       ?dtor$0@?0???0_Locinfo@std@@QEAA@PEBD@Z@4HA 000000018004fdd0 f   njsOracle.obj
 0001:0004eddc       ?dtor$1@?0???0_Locinfo@std@@QEAA@PEBD@Z@4HA 000000018004fddc f   njsOracle.obj
 0001:0004edec       ?dtor$2@?0???0_Locinfo@std@@QEAA@PEBD@Z@4HA 000000018004fdec f   njsOracle.obj
 0001:0004edfc       ?dtor$3@?0???0_Locinfo@std@@QEAA@PEBD@Z@4HA 000000018004fdfc f   njsOracle.obj
 0001:0004ee0c       ?dtor$4@?0???0_Locinfo@std@@QEAA@PEBD@Z@4HA 000000018004fe0c f   njsOracle.obj
 0001:0004ee1c       ?dtor$5@?0???0_Locinfo@std@@QEAA@PEBD@Z@4HA 000000018004fe1c f   njsOracle.obj
 0001:0004ee2c       ?dtor$6@?0???0_Locinfo@std@@QEAA@PEBD@Z@4HA 000000018004fe2c f   njsOracle.obj
 0001:0004ee3c       ?dtor$7@?0???0_Locinfo@std@@QEAA@PEBD@Z@4HA 000000018004fe3c f   njsOracle.obj
 0001:0004ee50       ?dtor$0@?0??_Makestr@_System_error@std@@CA?AV?$basic_string@DU?$char_traits@D@std@@V?$allocator@D@2@@2@Verror_code@2@V32@@Z@4HA 000000018004fe50 f   njsOracle.obj
 0001:0004ee5c       ?dtor$1@?0??_Makestr@_System_error@std@@CA?AV?$basic_string@DU?$char_traits@D@std@@V?$allocator@D@2@@2@Verror_code@2@V32@@Z@4HA 000000018004fe5c f   njsOracle.obj
 0001:0004ee70       ?dtor$1@?0???0failure@ios_base@std@@QEAA@PEBDAEBVerror_code@2@@Z@4HA 000000018004fe70 f   njsOracle.obj
 0001:0004ee80       ?dtor$0@?0??clear@ios_base@std@@QEAAXH_N@Z@4HA 000000018004fe80 f   njsOracle.obj
 0001:0004ee8c       ?dtor$1@?0??clear@ios_base@std@@QEAAXH_N@Z@4HA 000000018004fe8c f   njsOracle.obj
 0001:0004ee98       ?dtor$2@?0??clear@ios_base@std@@QEAAXH_N@Z@4HA 000000018004fe98 f   njsOracle.obj
 0001:0004eeb0       ?dtor$0@?0??New@?$Factory@VFunctionTemplate@v8@@@imp@Nan@@SA?AV?$Local@VFunctionTemplate@v8@@@v8@@P6AXAEBV?$FunctionCallbackInfo@VValue@v8@@@3@@ZV?$Local@VValue@v8@@@5@V?$Local@VSignature@v8@@@5@@Z@4HA 000000018004feb0 f   njsOracle.obj
 0001:0004eebe       ?dtor$1@?0??New@?$Factory@VFunctionTemplate@v8@@@imp@Nan@@SA?AV?$Local@VFunctionTemplate@v8@@@v8@@P6AXAEBV?$FunctionCallbackInfo@VValue@v8@@@3@@ZV?$Local@VValue@v8@@@5@V?$Local@VSignature@v8@@@5@@Z@4HA 000000018004febe f   njsOracle.obj
 0001:0004eed0       ?dtor$0@?0??SetPrototypeMethod@Nan@@YAXV?$Local@VFunctionTemplate@v8@@@v8@@PEBDP6AXAEBV?$FunctionCallbackInfo@VValue@v8@@@1@@Z@Z@4HA 000000018004fed0 f   njsOracle.obj
 0001:0004eed0       ?dtor$0@?0??ThrowError@Nan@@YAXPEBD@Z@4HA 000000018004fed0 f   njsOracle.obj
 0001:0004eed0       ?dtor$0@?0??hasILobInstance@ILob@@SA_NV?$Local@VObject@v8@@@v8@@@Z@4HA 000000018004fed0 f   njsIntLob.obj
 0001:0004eee0       ?dtor$0@?0??SetAccessor@Nan@@YAXV?$Local@VObjectTemplate@v8@@@v8@@V?$Local@VString@v8@@@3@P6AX1AEBV?$PropertyCallbackInfo@VValue@v8@@@1@@ZP6AX1V?$Local@VValue@v8@@@3@AEBV?$PropertyCallbackInfo@X@1@@Z4W4AccessControl@3@W4PropertyAttribute@3@V?$Local@VAccessorSignature@v8@@@3@@Z@4HA 000000018004fee0 f   njsOracle.obj
 0001:0004eeec       ?dtor$2@?0??SetAccessor@Nan@@YAXV?$Local@VObjectTemplate@v8@@@v8@@V?$Local@VString@v8@@@3@P6AX1AEBV?$PropertyCallbackInfo@VValue@v8@@@1@@ZP6AX1V?$Local@VValue@v8@@@3@AEBV?$PropertyCallbackInfo@X@1@@Z4W4AccessControl@3@W4PropertyAttribute@3@V?$Local@VAccessorSignature@v8@@@3@@Z@4HA 000000018004feec f   njsOracle.obj
 0001:0004ef00       ?dtor$0@?0???0connectionBaton@@QEAA@V?$Local@VFunction@v8@@@v8@@V?$Local@VObject@v8@@@2@@Z@4HA 000000018004ff00 f   njsOracle.obj
 0001:0004ef13       ?dtor$1@?0???0connectionBaton@@QEAA@V?$Local@VFunction@v8@@@v8@@V?$Local@VObject@v8@@@2@@Z@4HA 000000018004ff13 f   njsOracle.obj
 0001:0004ef26       ?dtor$2@?0???0connectionBaton@@QEAA@V?$Local@VFunction@v8@@@v8@@V?$Local@VObject@v8@@@2@@Z@4HA 000000018004ff26 f   njsOracle.obj
 0001:0004ef39       ?dtor$3@?0???0connectionBaton@@QEAA@V?$Local@VFunction@v8@@@v8@@V?$Local@VObject@v8@@@2@@Z@4HA 000000018004ff39 f   njsOracle.obj
 0001:0004ef4c       ?dtor$4@?0???0connectionBaton@@QEAA@V?$Local@VFunction@v8@@@v8@@V?$Local@VObject@v8@@@2@@Z@4HA 000000018004ff4c f   njsOracle.obj
 0001:0004ef5f       ?dtor$5@?0???0connectionBaton@@QEAA@V?$Local@VFunction@v8@@@v8@@V?$Local@VObject@v8@@@2@@Z@4HA 000000018004ff5f f   njsOracle.obj
 0001:0004ef72       ?dtor$6@?0???0connectionBaton@@QEAA@V?$Local@VFunction@v8@@@v8@@V?$Local@VObject@v8@@@2@@Z@4HA 000000018004ff72 f   njsOracle.obj
 0001:0004ef90       ?dtor$0@?0???0Oracledb@@AEAA@XZ@4HA 000000018004ff90 f   njsOracle.obj
 0001:0004ef9c       ?dtor$1@?0???0Oracledb@@AEAA@XZ@4HA 000000018004ff9c f   njsOracle.obj
 0001:0004efac       ?dtor$2@?0???0Oracledb@@AEAA@XZ@4HA 000000018004ffac f   njsOracle.obj
 0001:0004efbc       ?dtor$4@?0???0Oracledb@@AEAA@XZ@4HA 000000018004ffbc f   njsOracle.obj
 0001:0004efc8       ?dtor$3@?0???0Oracledb@@AEAA@XZ@4HA 000000018004ffc8 f   njsOracle.obj
 0001:0004efd4       ?dtor$11@?0???0Oracledb@@AEAA@XZ@4HA 000000018004ffd4 f   njsOracle.obj
 0001:0004f000       ?dtor$0@?0??Init@ResultSet@@SAXV?$Local@VObject@v8@@@v8@@@Z@4HA 0000000180050000 f   njsResultSet.obj
 0001:0004f000       ?dtor$0@?0??Init@Oracledb@@SAXV?$Local@VObject@v8@@@v8@@@Z@4HA 0000000180050000 f   njsOracle.obj
 0001:0004f000       ?dtor$0@?0??Init@Pool@@SAXV?$Local@VObject@v8@@@v8@@@Z@4HA 0000000180050000 f   njsPool.obj
 0001:0004f000       ?dtor$0@?0??Init@Connection@@SAXV?$Local@VObject@v8@@@v8@@@Z@4HA 0000000180050000 f   njsConnection.obj
 0001:0004f000       ?dtor$0@?0??Init@ILob@@SAXV?$Local@VObject@v8@@@v8@@@Z@4HA 0000000180050000 f   njsIntLob.obj
 0001:0004f00c       ?dtor$2@?0??Init@Pool@@SAXV?$Local@VObject@v8@@@v8@@@Z@4HA 000000018005000c f   njsPool.obj
 0001:0004f00c       ?dtor$2@?0??Init@Oracledb@@SAXV?$Local@VObject@v8@@@v8@@@Z@4HA 000000018005000c f   njsOracle.obj
 0001:0004f00c       ?dtor$2@?0??Init@Connection@@SAXV?$Local@VObject@v8@@@v8@@@Z@4HA 000000018005000c f   njsConnection.obj
 0001:0004f00c       ?dtor$2@?0??Init@ILob@@SAXV?$Local@VObject@v8@@@v8@@@Z@4HA 000000018005000c f   njsIntLob.obj
 0001:0004f00c       ?dtor$2@?0??Init@ResultSet@@SAXV?$Local@VObject@v8@@@v8@@@Z@4HA 000000018005000c f   njsResultSet.obj
 0001:0004f020       ?dtor$0@?0??New@Oracledb@@CAXAEBV?$FunctionCallbackInfo@VValue@v8@@@Nan@@@Z@4HA 0000000180050020 f   njsOracle.obj
 0001:0004f040       ?dtor$0@?0??GetOutFormat@Oracledb@@CAXV?$Local@VString@v8@@@v8@@AEBV?$PropertyCallbackInfo@VValue@v8@@@Nan@@@Z@4HA 0000000180050040 f   njsOracle.obj
 0001:0004f040       ?dtor$0@?0??GetPoolMax@Oracledb@@CAXV?$Local@VString@v8@@@v8@@AEBV?$PropertyCallbackInfo@VValue@v8@@@Nan@@@Z@4HA 0000000180050040 f   njsOracle.obj
 0001:0004f040       ?dtor$0@?0??SetIsAutoCloseLob@ILob@@CAXV?$Local@VString@v8@@@v8@@V?$Local@VValue@v8@@@3@AEBV?$PropertyCallbackInfo@X@Nan@@@Z@4HA 0000000180050040 f   njsIntLob.obj
 0001:0004f040       ?dtor$0@?0??GetPoolMin@Oracledb@@CAXV?$Local@VString@v8@@@v8@@AEBV?$PropertyCallbackInfo@VValue@v8@@@Nan@@@Z@4HA 0000000180050040 f   njsOracle.obj
 0001:0004f040       ?dtor$0@?0??SetType@ILob@@CAXV?$Local@VString@v8@@@v8@@V?$Local@VValue@v8@@@3@AEBV?$PropertyCallbackInfo@X@Nan@@@Z@4HA 0000000180050040 f   njsIntLob.obj
 0001:0004f040       ?dtor$0@?0??GetPoolIncrement@Pool@@CAXV?$Local@VString@v8@@@v8@@AEBV?$PropertyCallbackInfo@VValue@v8@@@Nan@@@Z@4HA 0000000180050040 f   njsPool.obj
 0001:0004f040       ?dtor$0@?0??SetIsValid@ILob@@CAXV?$Local@VString@v8@@@v8@@V?$Local@VValue@v8@@@3@AEBV?$PropertyCallbackInfo@X@Nan@@@Z@4HA 0000000180050040 f   njsIntLob.obj
 0001:0004f040       ?dtor$0@?0??GetPoolMin@Pool@@CAXV?$Local@VString@v8@@@v8@@AEBV?$PropertyCallbackInfo@VValue@v8@@@Nan@@@Z@4HA 0000000180050040 f   njsPool.obj
 0001:0004f040       ?dtor$0@?0??GetConnectionClass@Oracledb@@CAXV?$Local@VString@v8@@@v8@@AEBV?$PropertyCallbackInfo@VValue@v8@@@Nan@@@Z@4HA 0000000180050040 f   njsOracle.obj
 0001:0004f040       ?dtor$0@?0??GetPoolTimeout@Pool@@CAXV?$Local@VString@v8@@@v8@@AEBV?$PropertyCallbackInfo@VValue@v8@@@Nan@@@Z@4HA 0000000180050040 f   njsPool.obj
 0001:0004f040       ?dtor$0@?0??GetPoolTimeout@Oracledb@@CAXV?$Local@VString@v8@@@v8@@AEBV?$PropertyCallbackInfo@VValue@v8@@@Nan@@@Z@4HA 0000000180050040 f   njsOracle.obj
 0001:0004f040       ?dtor$0@?0??GetPrefetchRows@Oracledb@@CAXV?$Local@VString@v8@@@v8@@AEBV?$PropertyCallbackInfo@VValue@v8@@@Nan@@@Z@4HA 0000000180050040 f   njsOracle.obj
 0001:0004f040       ?dtor$0@?0??GetStmtCacheSize@Pool@@CAXV?$Local@VString@v8@@@v8@@AEBV?$PropertyCallbackInfo@VValue@v8@@@Nan@@@Z@4HA 0000000180050040 f   njsPool.obj
 0001:0004f040       ?dtor$0@?0??GetPoolMax@Pool@@CAXV?$Local@VString@v8@@@v8@@AEBV?$PropertyCallbackInfo@VValue@v8@@@Nan@@@Z@4HA 0000000180050040 f   njsPool.obj
 0001:0004f040       ?dtor$0@?0??SetChunkSize@ILob@@CAXV?$Local@VString@v8@@@v8@@V?$Local@VValue@v8@@@3@AEBV?$PropertyCallbackInfo@X@Nan@@@Z@4HA 0000000180050040 f   njsIntLob.obj
 0001:0004f040       ?dtor$0@?0??SetAutoCommit@Oracledb@@CAXV?$Local@VString@v8@@@v8@@V?$Local@VValue@v8@@@3@AEBV?$PropertyCallbackInfo@X@Nan@@@Z@4HA 0000000180050040 f   njsOracle.obj
 0001:0004f040       ?dtor$0@?0??SetOracleServerVersion@Connection@@CAXV?$Local@VString@v8@@@v8@@V?$Local@VValue@v8@@@3@AEBV?$PropertyCallbackInfo@X@Nan@@@Z@4HA 0000000180050040 f   njsConnection.obj
 0001:0004f040       ?dtor$0@?0??SetStmtCacheSize@Connection@@CAXV?$Local@VString@v8@@@v8@@V?$Local@VValue@v8@@@3@AEBV?$PropertyCallbackInfo@X@Nan@@@Z@4HA 0000000180050040 f   njsConnection.obj
 0001:0004f040       ?dtor$0@?0??SetLength@ILob@@CAXV?$Local@VString@v8@@@v8@@V?$Local@VValue@v8@@@3@AEBV?$PropertyCallbackInfo@X@Nan@@@Z@4HA 0000000180050040 f   njsIntLob.obj
 0001:0004f040       ?dtor$17@?0??cbDynBufferAllocate@Connection@@CAXPEAX_NII@Z@4HA 0000000180050040 f   njsConnection.obj
 0001:0004f040       ?dtor$0@?0??SetExtendedMetaData@Oracledb@@CAXV?$Local@VString@v8@@@v8@@V?$Local@VValue@v8@@@3@AEBV?$PropertyCallbackInfo@X@Nan@@@Z@4HA 0000000180050040 f   njsOracle.obj
 0001:0004f040       ?dtor$0@?0??GetPoolPingInterval@Pool@@CAXV?$Local@VString@v8@@@v8@@AEBV?$PropertyCallbackInfo@VValue@v8@@@Nan@@@Z@4HA 0000000180050040 f   njsPool.obj
 0001:0004f040       ?dtor$0@?0??SetExternalAuth@Oracledb@@CAXV?$Local@VString@v8@@@v8@@V?$Local@VValue@v8@@@3@AEBV?$PropertyCallbackInfo@X@Nan@@@Z@4HA 0000000180050040 f   njsOracle.obj
 0001:0004f050       ?dtor$0@?0??SetLobPrefetchSize@Oracledb@@CAXV?$Local@VString@v8@@@v8@@V?$Local@VValue@v8@@@3@AEBV?$PropertyCallbackInfo@X@Nan@@@Z@4HA 0000000180050050 f   njsOracle.obj
 0001:0004f050       ?dtor$0@?0??SetStmtCacheSize@Oracledb@@CAXV?$Local@VString@v8@@@v8@@V?$Local@VValue@v8@@@3@AEBV?$PropertyCallbackInfo@X@Nan@@@Z@4HA 0000000180050050 f   njsOracle.obj
 0001:0004f050       ?dtor$0@?0??SetPrefetchRows@Oracledb@@CAXV?$Local@VString@v8@@@v8@@V?$Local@VValue@v8@@@3@AEBV?$PropertyCallbackInfo@X@Nan@@@Z@4HA 0000000180050050 f   njsOracle.obj
 0001:0004f050       ?dtor$0@?0??SetPoolTimeout@Oracledb@@CAXV?$Local@VString@v8@@@v8@@V?$Local@VValue@v8@@@3@AEBV?$PropertyCallbackInfo@X@Nan@@@Z@4HA 0000000180050050 f   njsOracle.obj
 0001:0004f050       ?dtor$0@?0??SetPoolPingInterval@Oracledb@@CAXV?$Local@VString@v8@@@v8@@V?$Local@VValue@v8@@@3@AEBV?$PropertyCallbackInfo@X@Nan@@@Z@4HA 0000000180050050 f   njsOracle.obj
 0001:0004f050       ?dtor$0@?0??SetPoolMin@Oracledb@@CAXV?$Local@VString@v8@@@v8@@V?$Local@VValue@v8@@@3@AEBV?$PropertyCallbackInfo@X@Nan@@@Z@4HA 0000000180050050 f   njsOracle.obj
 0001:0004f050       ?dtor$0@?0??SetPoolIncrement@Oracledb@@CAXV?$Local@VString@v8@@@v8@@V?$Local@VValue@v8@@@3@AEBV?$PropertyCallbackInfo@X@Nan@@@Z@4HA 0000000180050050 f   njsOracle.obj
 0001:0004f050       ?dtor$0@?0??SetOutFormat@Oracledb@@CAXV?$Local@VString@v8@@@v8@@V?$Local@VValue@v8@@@3@AEBV?$PropertyCallbackInfo@X@Nan@@@Z@4HA 0000000180050050 f   njsOracle.obj
 0001:0004f050       ?dtor$0@?0??SetPoolMax@Oracledb@@CAXV?$Local@VString@v8@@@v8@@V?$Local@VValue@v8@@@3@AEBV?$PropertyCallbackInfo@X@Nan@@@Z@4HA 0000000180050050 f   njsOracle.obj
 0001:0004f05c       ?dtor$1@?0??SetStmtCacheSize@Oracledb@@CAXV?$Local@VString@v8@@@v8@@V?$Local@VValue@v8@@@3@AEBV?$PropertyCallbackInfo@X@Nan@@@Z@4HA 000000018005005c f   njsOracle.obj
 0001:0004f05c       ?dtor$1@?0??SetLobPrefetchSize@Oracledb@@CAXV?$Local@VString@v8@@@v8@@V?$Local@VValue@v8@@@3@AEBV?$PropertyCallbackInfo@X@Nan@@@Z@4HA 000000018005005c f   njsOracle.obj
 0001:0004f05c       ?dtor$1@?0??SetPoolMax@Oracledb@@CAXV?$Local@VString@v8@@@v8@@V?$Local@VValue@v8@@@3@AEBV?$PropertyCallbackInfo@X@Nan@@@Z@4HA 000000018005005c f   njsOracle.obj
 0001:0004f05c       ?dtor$1@?0??SetPoolMin@Oracledb@@CAXV?$Local@VString@v8@@@v8@@V?$Local@VValue@v8@@@3@AEBV?$PropertyCallbackInfo@X@Nan@@@Z@4HA 000000018005005c f   njsOracle.obj
 0001:0004f05c       ?dtor$1@?0??SetOutFormat@Oracledb@@CAXV?$Local@VString@v8@@@v8@@V?$Local@VValue@v8@@@3@AEBV?$PropertyCallbackInfo@X@Nan@@@Z@4HA 000000018005005c f   njsOracle.obj
 0001:0004f05c       ?dtor$1@?0??SetPoolIncrement@Oracledb@@CAXV?$Local@VString@v8@@@v8@@V?$Local@VValue@v8@@@3@AEBV?$PropertyCallbackInfo@X@Nan@@@Z@4HA 000000018005005c f   njsOracle.obj
 0001:0004f05c       ?dtor$1@?0??SetPoolPingInterval@Oracledb@@CAXV?$Local@VString@v8@@@v8@@V?$Local@VValue@v8@@@3@AEBV?$PropertyCallbackInfo@X@Nan@@@Z@4HA 000000018005005c f   njsOracle.obj
 0001:0004f05c       ?dtor$1@?0??SetPoolTimeout@Oracledb@@CAXV?$Local@VString@v8@@@v8@@V?$Local@VValue@v8@@@3@AEBV?$PropertyCallbackInfo@X@Nan@@@Z@4HA 000000018005005c f   njsOracle.obj
 0001:0004f05c       ?dtor$1@?0??SetPrefetchRows@Oracledb@@CAXV?$Local@VString@v8@@@v8@@V?$Local@VValue@v8@@@3@AEBV?$PropertyCallbackInfo@X@Nan@@@Z@4HA 000000018005005c f   njsOracle.obj
 0001:0004f068       ?dtor$3@?0??SetPoolMin@Oracledb@@CAXV?$Local@VString@v8@@@v8@@V?$Local@VValue@v8@@@3@AEBV?$PropertyCallbackInfo@X@Nan@@@Z@4HA 0000000180050068 f   njsOracle.obj
 0001:0004f068       ?dtor$3@?0??SetPrefetchRows@Oracledb@@CAXV?$Local@VString@v8@@@v8@@V?$Local@VValue@v8@@@3@AEBV?$PropertyCallbackInfo@X@Nan@@@Z@4HA 0000000180050068 f   njsOracle.obj
 0001:0004f068       ?dtor$3@?0??SetLobPrefetchSize@Oracledb@@CAXV?$Local@VString@v8@@@v8@@V?$Local@VValue@v8@@@3@AEBV?$PropertyCallbackInfo@X@Nan@@@Z@4HA 0000000180050068 f   njsOracle.obj
 0001:0004f068       ?dtor$3@?0??SetOutFormat@Oracledb@@CAXV?$Local@VString@v8@@@v8@@V?$Local@VValue@v8@@@3@AEBV?$PropertyCallbackInfo@X@Nan@@@Z@4HA 0000000180050068 f   njsOracle.obj
 0001:0004f068       ?dtor$3@?0??SetPoolTimeout@Oracledb@@CAXV?$Local@VString@v8@@@v8@@V?$Local@VValue@v8@@@3@AEBV?$PropertyCallbackInfo@X@Nan@@@Z@4HA 0000000180050068 f   njsOracle.obj
 0001:0004f068       ?dtor$3@?0??SetPoolPingInterval@Oracledb@@CAXV?$Local@VString@v8@@@v8@@V?$Local@VValue@v8@@@3@AEBV?$PropertyCallbackInfo@X@Nan@@@Z@4HA 0000000180050068 f   njsOracle.obj
 0001:0004f068       ?dtor$3@?0??SetPoolIncrement@Oracledb@@CAXV?$Local@VString@v8@@@v8@@V?$Local@VValue@v8@@@3@AEBV?$PropertyCallbackInfo@X@Nan@@@Z@4HA 0000000180050068 f   njsOracle.obj
 0001:0004f068       ?dtor$3@?0??SetPoolMax@Oracledb@@CAXV?$Local@VString@v8@@@v8@@V?$Local@VValue@v8@@@3@AEBV?$PropertyCallbackInfo@X@Nan@@@Z@4HA 0000000180050068 f   njsOracle.obj
 0001:0004f068       ?dtor$3@?0??SetStmtCacheSize@Oracledb@@CAXV?$Local@VString@v8@@@v8@@V?$Local@VValue@v8@@@3@AEBV?$PropertyCallbackInfo@X@Nan@@@Z@4HA 0000000180050068 f   njsOracle.obj
 0001:0004f080       ?dtor$0@?0??GetPoolPingInterval@Oracledb@@CAXV?$Local@VString@v8@@@v8@@AEBV?$PropertyCallbackInfo@VValue@v8@@@Nan@@@Z@4HA 0000000180050080 f   njsOracle.obj
 0001:0004f080       ?dtor$0@?0??GetPoolIncrement@Oracledb@@CAXV?$Local@VString@v8@@@v8@@AEBV?$PropertyCallbackInfo@VValue@v8@@@Nan@@@Z@4HA 0000000180050080 f   njsOracle.obj
 0001:0004f080       ?dtor$0@?0??GetOracleClientVersion@Oracledb@@CAXV?$Local@VString@v8@@@v8@@AEBV?$PropertyCallbackInfo@VValue@v8@@@Nan@@@Z@4HA 0000000180050080 f   njsOracle.obj
 0001:0004f080       ?dtor$0@?0??GetMaxRows@Oracledb@@CAXV?$Local@VString@v8@@@v8@@AEBV?$PropertyCallbackInfo@VValue@v8@@@Nan@@@Z@4HA 0000000180050080 f   njsOracle.obj
 0001:0004f080       ?dtor$0@?0??GetLobPrefetchSize@Oracledb@@CAXV?$Local@VString@v8@@@v8@@AEBV?$PropertyCallbackInfo@VValue@v8@@@Nan@@@Z@4HA 0000000180050080 f   njsOracle.obj
 0001:0004f080       ?dtor$0@?0??GetStmtCacheSize@Oracledb@@CAXV?$Local@VString@v8@@@v8@@AEBV?$PropertyCallbackInfo@VValue@v8@@@Nan@@@Z@4HA 0000000180050080 f   njsOracle.obj
 0001:0004f08c       ?dtor$1@?0??GetPoolPingInterval@Oracledb@@CAXV?$Local@VString@v8@@@v8@@AEBV?$PropertyCallbackInfo@VValue@v8@@@Nan@@@Z@4HA 000000018005008c f   njsOracle.obj
 0001:0004f08c       ?dtor$1@?0??GetPoolIncrement@Oracledb@@CAXV?$Local@VString@v8@@@v8@@AEBV?$PropertyCallbackInfo@VValue@v8@@@Nan@@@Z@4HA 000000018005008c f   njsOracle.obj
 0001:0004f08c       ?dtor$1@?0??GetOracleClientVersion@Oracledb@@CAXV?$Local@VString@v8@@@v8@@AEBV?$PropertyCallbackInfo@VValue@v8@@@Nan@@@Z@4HA 000000018005008c f   njsOracle.obj
 0001:0004f08c       ?dtor$1@?0??GetLobPrefetchSize@Oracledb@@CAXV?$Local@VString@v8@@@v8@@AEBV?$PropertyCallbackInfo@VValue@v8@@@Nan@@@Z@4HA 000000018005008c f   njsOracle.obj
 0001:0004f08c       ?dtor$1@?0??GetStmtCacheSize@Oracledb@@CAXV?$Local@VString@v8@@@v8@@AEBV?$PropertyCallbackInfo@VValue@v8@@@Nan@@@Z@4HA 000000018005008c f   njsOracle.obj
 0001:0004f08c       ?dtor$1@?0??GetMaxRows@Oracledb@@CAXV?$Local@VString@v8@@@v8@@AEBV?$PropertyCallbackInfo@VValue@v8@@@Nan@@@Z@4HA 000000018005008c f   njsOracle.obj
 0001:0004f0a0       ?dtor$0@?0??SetMaxRows@Oracledb@@CAXV?$Local@VString@v8@@@v8@@V?$Local@VValue@v8@@@3@AEBV?$PropertyCallbackInfo@X@Nan@@@Z@4HA 00000001800500a0 f   njsOracle.obj
 0001:0004f0ac       ?dtor$1@?0??SetMaxRows@Oracledb@@CAXV?$Local@VString@v8@@@v8@@V?$Local@VValue@v8@@@3@AEBV?$PropertyCallbackInfo@X@Nan@@@Z@4HA 00000001800500ac f   njsOracle.obj
 0001:0004f0b8       ?dtor$4@?0??SetMaxRows@Oracledb@@CAXV?$Local@VString@v8@@@v8@@V?$Local@VValue@v8@@@3@AEBV?$PropertyCallbackInfo@X@Nan@@@Z@4HA 00000001800500b8 f   njsOracle.obj
 0001:0004f0c6       ?dtor$3@?0??SetMaxRows@Oracledb@@CAXV?$Local@VString@v8@@@v8@@V?$Local@VValue@v8@@@3@AEBV?$PropertyCallbackInfo@X@Nan@@@Z@4HA 00000001800500c6 f   njsOracle.obj
 0001:0004f0e0       ?dtor$0@?0??GetAutoCommit@Oracledb@@CAXV?$Local@VString@v8@@@v8@@AEBV?$PropertyCallbackInfo@VValue@v8@@@Nan@@@Z@4HA 00000001800500e0 f   njsOracle.obj
 0001:0004f0e0       ?dtor$1@?0??GetRowsCommon@ResultSet@@CAXPEAUrsBaton@@@Z@4HA 00000001800500e0 f   njsResultSet.obj
 0001:0004f0e0       ?dtor$0@?0??SetOracleClientVersion@Oracledb@@CAXV?$Local@VString@v8@@@v8@@V?$Local@VValue@v8@@@3@AEBV?$PropertyCallbackInfo@X@Nan@@@Z@4HA 00000001800500e0 f   njsOracle.obj
 0001:0004f0e0       ?dtor$0@?0??GetIsAutoCloseLob@ILob@@CAXV?$Local@VString@v8@@@v8@@AEBV?$PropertyCallbackInfo@VValue@v8@@@Nan@@@Z@4HA 00000001800500e0 f   njsIntLob.obj
 0001:0004f0e0       ?dtor$0@?0??GetIsValid@ILob@@CAXV?$Local@VString@v8@@@v8@@AEBV?$PropertyCallbackInfo@VValue@v8@@@Nan@@@Z@4HA 00000001800500e0 f   njsIntLob.obj
 0001:0004f0e0       ?dtor$0@?0??GetExternalAuth@Oracledb@@CAXV?$Local@VString@v8@@@v8@@AEBV?$PropertyCallbackInfo@VValue@v8@@@Nan@@@Z@4HA 00000001800500e0 f   njsOracle.obj
 0001:0004f0e0       ?dtor$0@?0??GetExtendedMetaData@Oracledb@@CAXV?$Local@VString@v8@@@v8@@AEBV?$PropertyCallbackInfo@VValue@v8@@@Nan@@@Z@4HA 00000001800500e0 f   njsOracle.obj
 0001:0004f0e0       ?dtor$0@?0??SetVersion@Oracledb@@CAXV?$Local@VString@v8@@@v8@@V?$Local@VValue@v8@@@3@AEBV?$PropertyCallbackInfo@X@Nan@@@Z@4HA 00000001800500e0 f   njsOracle.obj
 0001:0004f0f0       ?dtor$0@?0??SetConnectionClass@Oracledb@@CAXV?$Local@VString@v8@@@v8@@V?$Local@VValue@v8@@@3@AEBV?$PropertyCallbackInfo@X@Nan@@@Z@4HA 00000001800500f0 f   njsOracle.obj
 0001:0004f0fc       ?dtor$1@?0??SetConnectionClass@Oracledb@@CAXV?$Local@VString@v8@@@v8@@V?$Local@VValue@v8@@@3@AEBV?$PropertyCallbackInfo@X@Nan@@@Z@4HA 00000001800500fc f   njsOracle.obj
 0001:0004f110       ?dtor$0@?0??GetFetchAsString@Oracledb@@CAXV?$Local@VString@v8@@@v8@@AEBV?$PropertyCallbackInfo@VValue@v8@@@Nan@@@Z@4HA 0000000180050110 f   njsOracle.obj
 0001:0004f110       ?dtor$0@?0??GetFetchAsBuffer@Oracledb@@CAXV?$Local@VString@v8@@@v8@@AEBV?$PropertyCallbackInfo@VValue@v8@@@Nan@@@Z@4HA 0000000180050110 f   njsOracle.obj
 0001:0004f11c       ?dtor$1@?0??GetFetchAsString@Oracledb@@CAXV?$Local@VString@v8@@@v8@@AEBV?$PropertyCallbackInfo@VValue@v8@@@Nan@@@Z@4HA 000000018005011c f   njsOracle.obj
 0001:0004f11c       ?dtor$1@?0??GetFetchAsBuffer@Oracledb@@CAXV?$Local@VString@v8@@@v8@@AEBV?$PropertyCallbackInfo@VValue@v8@@@Nan@@@Z@4HA 000000018005011c f   njsOracle.obj
 0001:0004f130       ?dtor$0@?0??SetFetchAsString@Oracledb@@CAXV?$Local@VString@v8@@@v8@@V?$Local@VValue@v8@@@3@AEBV?$PropertyCallbackInfo@X@Nan@@@Z@4HA 0000000180050130 f   njsOracle.obj
 0001:0004f130       ?dtor$0@?0??SetFetchAsBuffer@Oracledb@@CAXV?$Local@VString@v8@@@v8@@V?$Local@VValue@v8@@@3@AEBV?$PropertyCallbackInfo@X@Nan@@@Z@4HA 0000000180050130 f   njsOracle.obj
 0001:0004f13c       ?dtor$1@?0??SetFetchAsBuffer@Oracledb@@CAXV?$Local@VString@v8@@@v8@@V?$Local@VValue@v8@@@3@AEBV?$PropertyCallbackInfo@X@Nan@@@Z@4HA 000000018005013c f   njsOracle.obj
 0001:0004f13c       ?dtor$1@?0??SetFetchAsString@Oracledb@@CAXV?$Local@VString@v8@@@v8@@V?$Local@VValue@v8@@@3@AEBV?$PropertyCallbackInfo@X@Nan@@@Z@4HA 000000018005013c f   njsOracle.obj
 0001:0004f148       ?dtor$5@?0??SetFetchAsBuffer@Oracledb@@CAXV?$Local@VString@v8@@@v8@@V?$Local@VValue@v8@@@3@AEBV?$PropertyCallbackInfo@X@Nan@@@Z@4HA 0000000180050148 f   njsOracle.obj
 0001:0004f148       ?dtor$5@?0??SetFetchAsString@Oracledb@@CAXV?$Local@VString@v8@@@v8@@V?$Local@VValue@v8@@@3@AEBV?$PropertyCallbackInfo@X@Nan@@@Z@4HA 0000000180050148 f   njsOracle.obj
 0001:0004f160       ?dtor$0@?0??GetConnection@Oracledb@@CAXAEBV?$FunctionCallbackInfo@VValue@v8@@@Nan@@@Z@4HA 0000000180050160 f   njsOracle.obj
 0001:0004f16c       ?dtor$2@?0??GetConnection@Oracledb@@CAXAEBV?$FunctionCallbackInfo@VValue@v8@@@Nan@@@Z@4HA 000000018005016c f   njsOracle.obj
 0001:0004f189       ?dtor$6@?0??GetConnection@Oracledb@@CAXAEBV?$FunctionCallbackInfo@VValue@v8@@@Nan@@@Z@4HA 0000000180050189 f   njsOracle.obj
 0001:0004f197       ?dtor$9@?0??GetConnection@Oracledb@@CAXAEBV?$FunctionCallbackInfo@VValue@v8@@@Nan@@@Z@4HA 0000000180050197 f   njsOracle.obj
 0001:0004f1a5       ?dtor$12@?0??GetConnection@Oracledb@@CAXAEBV?$FunctionCallbackInfo@VValue@v8@@@Nan@@@Z@4HA 00000001800501a5 f   njsOracle.obj
 0001:0004f1b3       ?dtor$17@?0??GetConnection@Oracledb@@CAXAEBV?$FunctionCallbackInfo@VValue@v8@@@Nan@@@Z@4HA 00000001800501b3 f   njsOracle.obj
 0001:0004f1c0       ?dtor$1@?0??Async_GetConnection@Oracledb@@CAXPEAUuv_work_s@@@Z@4HA 00000001800501c0 f   njsOracle.obj
 0001:0004f1dd       ?catch$2@?0??Async_GetConnection@Oracledb@@CAXPEAUuv_work_s@@@Z@4HA 00000001800501dd f   njsOracle.obj
 0001:0004f1ea       __catch$?Async_GetConnection@Oracledb@@CAXPEAUuv_work_s@@@Z$1 00000001800501ea f   njsOracle.obj
 0001:0004f2c0       ?dtor$0@?0??Async_AfterGetConnection@Pool@@CAXPEAUuv_work_s@@@Z@4HA 00000001800502c0 f   njsPool.obj
 0001:0004f2c0       ?dtor$0@?0??Async_AfterGetConnection@Oracledb@@CAXPEAUuv_work_s@@@Z@4HA 00000001800502c0 f   njsOracle.obj
 0001:0004f2cc       ?dtor$1@?0??Async_AfterGetConnection@Oracledb@@CAXPEAUuv_work_s@@@Z@4HA 00000001800502cc f   njsOracle.obj
 0001:0004f2cc       ?dtor$1@?0??Async_AfterGetConnection@Pool@@CAXPEAUuv_work_s@@@Z@4HA 00000001800502cc f   njsPool.obj
 0001:0004f2d8       ?dtor$5@?0??Async_AfterGetConnection@Pool@@CAXPEAUuv_work_s@@@Z@4HA 00000001800502d8 f   njsPool.obj
 0001:0004f2d8       ?dtor$5@?0??Async_AfterGetConnection@Oracledb@@CAXPEAUuv_work_s@@@Z@4HA 00000001800502d8 f   njsOracle.obj
 0001:0004f2e6       ?dtor$7@?0??Async_AfterGetConnection@Oracledb@@CAXPEAUuv_work_s@@@Z@4HA 00000001800502e6 f   njsOracle.obj
 0001:0004f2e6       ?dtor$7@?0??Async_AfterGetConnection@Pool@@CAXPEAUuv_work_s@@@Z@4HA 00000001800502e6 f   njsPool.obj
 0001:0004f300       ?dtor$0@?0??CreatePool@Oracledb@@CAXAEBV?$FunctionCallbackInfo@VValue@v8@@@Nan@@@Z@4HA 0000000180050300 f   njsOracle.obj
 0001:0004f30c       ?dtor$1@?0??CreatePool@Oracledb@@CAXAEBV?$FunctionCallbackInfo@VValue@v8@@@Nan@@@Z@4HA 000000018005030c f   njsOracle.obj
 0001:0004f318       ?dtor$3@?0??CreatePool@Oracledb@@CAXAEBV?$FunctionCallbackInfo@VValue@v8@@@Nan@@@Z@4HA 0000000180050318 f   njsOracle.obj
 0001:0004f335       ?dtor$7@?0??CreatePool@Oracledb@@CAXAEBV?$FunctionCallbackInfo@VValue@v8@@@Nan@@@Z@4HA 0000000180050335 f   njsOracle.obj
 0001:0004f343       ?dtor$10@?0??CreatePool@Oracledb@@CAXAEBV?$FunctionCallbackInfo@VValue@v8@@@Nan@@@Z@4HA 0000000180050343 f   njsOracle.obj
 0001:0004f351       ?dtor$13@?0??CreatePool@Oracledb@@CAXAEBV?$FunctionCallbackInfo@VValue@v8@@@Nan@@@Z@4HA 0000000180050351 f   njsOracle.obj
 0001:0004f35f       ?dtor$28@?0??CreatePool@Oracledb@@CAXAEBV?$FunctionCallbackInfo@VValue@v8@@@Nan@@@Z@4HA 000000018005035f f   njsOracle.obj
 0001:0004f370       ?dtor$1@?0??Async_CreatePool@Oracledb@@CAXPEAUuv_work_s@@@Z@4HA 0000000180050370 f   njsOracle.obj
 0001:0004f390       ?catch$2@?0??Async_CreatePool@Oracledb@@CAXPEAUuv_work_s@@@Z@4HA 0000000180050390 f   njsOracle.obj
 0001:0004f39d       __catch$?Async_CreatePool@Oracledb@@CAXPEAUuv_work_s@@@Z$1 000000018005039d f   njsOracle.obj
 0001:0004f480       ?dtor$0@?0??Async_AfterCreatePool@Oracledb@@CAXPEAUuv_work_s@@@Z@4HA 0000000180050480 f   njsOracle.obj
 0001:0004f48c       ?dtor$1@?0??Async_AfterCreatePool@Oracledb@@CAXPEAUuv_work_s@@@Z@4HA 000000018005048c f   njsOracle.obj
 0001:0004f498       ?dtor$5@?0??Async_AfterCreatePool@Oracledb@@CAXPEAUuv_work_s@@@Z@4HA 0000000180050498 f   njsOracle.obj
 0001:0004f4a6       ?dtor$7@?0??Async_AfterCreatePool@Oracledb@@CAXPEAUuv_work_s@@@Z@4HA 00000001800504a6 f   njsOracle.obj
 0001:0004f4c0       ?dtor$0@?0???0?$basic_stringstream@DU?$char_traits@D@std@@V?$allocator@D@2@@std@@QEAA@H@Z@4HA 00000001800504c0 f   njsOracle.obj
 0001:0004f4ed       ?dtor$1@?0???0?$basic_stringstream@DU?$char_traits@D@std@@V?$allocator@D@2@@std@@QEAA@H@Z@4HA 00000001800504ed f   njsOracle.obj
 0001:0004f4fd       ?dtor$3@?0???0?$basic_stringstream@DU?$char_traits@D@std@@V?$allocator@D@2@@std@@QEAA@H@Z@4HA 00000001800504fd f   njsOracle.obj
 0001:0004f510       ?dtor$0@?0???6?$basic_ostream@DU?$char_traits@D@std@@@std@@QEAAAEAV01@H@Z@4HA 0000000180050510 f   njsOracle.obj
 0001:0004f51c       ?dtor$1@?0???6?$basic_ostream@DU?$char_traits@D@std@@@std@@QEAAAEAV01@H@Z@4HA 000000018005051c f   njsOracle.obj
 0001:0004f528       ?dtor$2@?0???6?$basic_ostream@DU?$char_traits@D@std@@@std@@QEAAAEAV01@H@Z@4HA 0000000180050528 f   njsOracle.obj
 0001:0004f534       ?dtor$4@?0???6?$basic_ostream@DU?$char_traits@D@std@@@std@@QEAAAEAV01@H@Z@4HA 0000000180050534 f   njsOracle.obj
 0001:0004f560       ?dtor$0@?0???0sentry@?$basic_ostream@DU?$char_traits@D@std@@@std@@QEAA@AEAV12@@Z@4HA 0000000180050560 f   njsOracle.obj
 0001:0004f56c       ?dtor$1@?0???0sentry@?$basic_ostream@DU?$char_traits@D@std@@@std@@QEAA@AEAV12@@Z@4HA 000000018005056c f   njsOracle.obj
 0001:0004f580       ?dtor$0@?0??do_put@?$num_put@DV?$ostreambuf_iterator@DU?$char_traits@D@std@@@std@@@std@@MEBA?AV?$ostreambuf_iterator@DU?$char_traits@D@std@@@2@V32@AEAVios_base@2@DO@Z@4HA 0000000180050580 f   njsOracle.obj
 0001:0004f580       ?dtor$0@?0??do_put@?$num_put@DV?$ostreambuf_iterator@DU?$char_traits@D@std@@@std@@@std@@MEBA?AV?$ostreambuf_iterator@DU?$char_traits@D@std@@@2@V32@AEAVios_base@2@DN@Z@4HA 0000000180050580 f   njsOracle.obj
 0001:0004f590       ?dtor$0@?0??do_put@?$num_put@DV?$ostreambuf_iterator@DU?$char_traits@D@std@@@std@@@std@@MEBA?AV?$ostreambuf_iterator@DU?$char_traits@D@std@@@2@V32@AEAVios_base@2@D_N@Z@4HA 0000000180050590 f   njsOracle.obj
 0001:0004f59c       ?dtor$1@?0??do_put@?$num_put@DV?$ostreambuf_iterator@DU?$char_traits@D@std@@@std@@@std@@MEBA?AV?$ostreambuf_iterator@DU?$char_traits@D@std@@@2@V32@AEAVios_base@2@D_N@Z@4HA 000000018005059c f   njsOracle.obj
 0001:0004f5b0       ?dtor$4@?0???0?$basic_iostream@DU?$char_traits@D@std@@@std@@QEAA@PEAV?$basic_streambuf@DU?$char_traits@D@std@@@1@@Z@4HA 00000001800505b0 f   njsOracle.obj
 0001:0004f5bc       ?dtor$1@?0???0?$basic_iostream@DU?$char_traits@D@std@@@std@@QEAA@PEAV?$basic_streambuf@DU?$char_traits@D@std@@@1@@Z@4HA 00000001800505bc f   njsOracle.obj
 0001:0004f5d0       ?dtor$0@?0??_Iput@?$num_put@DV?$ostreambuf_iterator@DU?$char_traits@D@std@@@std@@@std@@AEBA?AV?$ostreambuf_iterator@DU?$char_traits@D@std@@@2@V32@AEAVios_base@2@DPEAD_K@Z@4HA 00000001800505d0 f   njsOracle.obj
 0001:0004f5dc       ?dtor$1@?0??_Iput@?$num_put@DV?$ostreambuf_iterator@DU?$char_traits@D@std@@@std@@@std@@AEBA?AV?$ostreambuf_iterator@DU?$char_traits@D@std@@@2@V32@AEAVios_base@2@DPEAD_K@Z@4HA 00000001800505dc f   njsOracle.obj
 0001:0004f5e8       ?dtor$2@?0??_Iput@?$num_put@DV?$ostreambuf_iterator@DU?$char_traits@D@std@@@std@@@std@@AEBA?AV?$ostreambuf_iterator@DU?$char_traits@D@std@@@2@V32@AEAVios_base@2@DPEAD_K@Z@4HA 00000001800505e8 f   njsOracle.obj
 0001:0004f5f4       ?dtor$3@?0??_Iput@?$num_put@DV?$ostreambuf_iterator@DU?$char_traits@D@std@@@std@@@std@@AEBA?AV?$ostreambuf_iterator@DU?$char_traits@D@std@@@2@V32@AEAVios_base@2@DPEAD_K@Z@4HA 00000001800505f4 f   njsOracle.obj
 0001:0004f600       ?dtor$0@?0??_Fput@?$num_put@DV?$ostreambuf_iterator@DU?$char_traits@D@std@@@std@@@std@@AEBA?AV?$ostreambuf_iterator@DU?$char_traits@D@std@@@2@V32@AEAVios_base@2@DPEBD_K@Z@4HA 0000000180050600 f   njsOracle.obj
 0001:0004f60c       ?dtor$1@?0??_Fput@?$num_put@DV?$ostreambuf_iterator@DU?$char_traits@D@std@@@std@@@std@@AEBA?AV?$ostreambuf_iterator@DU?$char_traits@D@std@@@2@V32@AEAVios_base@2@DPEBD_K@Z@4HA 000000018005060c f   njsOracle.obj
 0001:0004f618       ?dtor$2@?0??_Fput@?$num_put@DV?$ostreambuf_iterator@DU?$char_traits@D@std@@@std@@@std@@AEBA?AV?$ostreambuf_iterator@DU?$char_traits@D@std@@@2@V32@AEAVios_base@2@DPEBD_K@Z@4HA 0000000180050618 f   njsOracle.obj
 0001:0004f624       ?dtor$3@?0??_Fput@?$num_put@DV?$ostreambuf_iterator@DU?$char_traits@D@std@@@std@@@std@@AEBA?AV?$ostreambuf_iterator@DU?$char_traits@D@std@@@2@V32@AEAVios_base@2@DPEBD_K@Z@4HA 0000000180050624 f   njsOracle.obj
 0001:0004f630       ?dtor$0@?0???$use_facet@V?$ctype@D@std@@@std@@YAAEBV?$ctype@D@0@AEBVlocale@0@@Z@4HA 0000000180050630 f   njsOracle.obj
 0001:0004f63c       ?dtor$2@?0???$use_facet@V?$ctype@D@std@@@std@@YAAEBV?$ctype@D@0@AEBVlocale@0@@Z@4HA 000000018005063c f   njsOracle.obj
 0001:0004f660       ?dtor$0@?0???$New@VString@v8@@V?$basic_string@DU?$char_traits@D@std@@V?$allocator@D@2@@std@@@Nan@@YA?AV?$MaybeLocal@VString@v8@@@v8@@V?$basic_string@DU?$char_traits@D@std@@V?$allocator@D@2@@std@@@Z@4HA 0000000180050660 f   njsOracle.obj
 0001:0004f670       ?dtor$0@?0???$_Insert_string@DU?$char_traits@D@std@@_K@std@@YAAEAV?$basic_ostream@DU?$char_traits@D@std@@@0@AEAV10@QEBD_K@Z@4HA 0000000180050670 f   dpiExceptionImpl.obj
 0001:0004f670       ?dtor$0@?0???$?6U?$char_traits@D@std@@@std@@YAAEAV?$basic_ostream@DU?$char_traits@D@std@@@0@AEAV10@PEBD@Z@4HA 0000000180050670 f   njsOracle.obj
 0001:0004f680       ?dtor$0@?0???$To@H@Nan@@YA?AV?$Maybe@H@v8@@V?$Local@VValue@v8@@@2@@Z@4HA 0000000180050680 f   njsOracle.obj
 0001:0004f680       ?dtor$0@?0???$To@I@Nan@@YA?AV?$Maybe@I@v8@@V?$Local@VValue@v8@@@2@@Z@4HA 0000000180050680 f   njsOracle.obj
 0001:0004f690       ?dtor$0@?0???$use_facet@V?$numpunct@D@std@@@std@@YAAEBV?$numpunct@D@0@AEBVlocale@0@@Z@4HA 0000000180050690 f   njsOracle.obj
 0001:0004f6a0       ?dtor$0@?0??_Getcat@?$numpunct@D@std@@SA_KPEAPEBVfacet@locale@2@PEBV42@@Z@4HA 00000001800506a0 f   njsOracle.obj
 0001:0004f6c0       ?dtor$1@?0??_Getcat@?$numpunct@D@std@@SA_KPEAPEBVfacet@locale@2@PEBV42@@Z@4HA 00000001800506c0 f   njsOracle.obj
 0001:0004f6ef       ?dtor$2@?0??_Getcat@?$numpunct@D@std@@SA_KPEAPEBVfacet@locale@2@PEBV42@@Z@4HA 00000001800506ef f   njsOracle.obj
 0001:0004f700       ?dtor$0@?0???0poolBaton@@QEAA@V?$Local@VFunction@v8@@@v8@@V?$Local@VObject@v8@@@2@@Z@4HA 0000000180050700 f   njsPool.obj
 0001:0004f713       ?dtor$1@?0???0poolBaton@@QEAA@V?$Local@VFunction@v8@@@v8@@V?$Local@VObject@v8@@@2@@Z@4HA 0000000180050713 f   njsPool.obj
 0001:0004f726       ?dtor$2@?0???0poolBaton@@QEAA@V?$Local@VFunction@v8@@@v8@@V?$Local@VObject@v8@@@2@@Z@4HA 0000000180050726 f   njsPool.obj
 0001:0004f739       ?dtor$3@?0???0poolBaton@@QEAA@V?$Local@VFunction@v8@@@v8@@V?$Local@VObject@v8@@@2@@Z@4HA 0000000180050739 f   njsPool.obj
 0001:0004f750       ?dtor$0@?0??getPoolProperty@Pool@@CA?AV?$Local@VPrimitive@v8@@@v8@@PEAV1@I@Z@4HA 0000000180050750 f   njsPool.obj
 0001:0004f750       ?dtor$0@?0??getPoolProperty@Pool@@CA?AV?$Local@VPrimitive@v8@@@v8@@PEAV1@H@Z@4HA 0000000180050750 f   njsPool.obj
 0001:0004f75c       ?dtor$1@?0??getPoolProperty@Pool@@CA?AV?$Local@VPrimitive@v8@@@v8@@PEAV1@H@Z@4HA 000000018005075c f   njsPool.obj
 0001:0004f75c       ?dtor$1@?0??getPoolProperty@Pool@@CA?AV?$Local@VPrimitive@v8@@@v8@@PEAV1@I@Z@4HA 000000018005075c f   njsPool.obj
 0001:0004f768       ?dtor$5@?0??getPoolProperty@Pool@@CA?AV?$Local@VPrimitive@v8@@@v8@@PEAV1@I@Z@4HA 0000000180050768 f   njsPool.obj
 0001:0004f768       ?dtor$5@?0??getPoolProperty@Pool@@CA?AV?$Local@VPrimitive@v8@@@v8@@PEAV1@H@Z@4HA 0000000180050768 f   njsPool.obj
 0001:0004f780       ?dtor$0@?0??GetConnectionsOpen@Pool@@CAXV?$Local@VString@v8@@@v8@@AEBV?$PropertyCallbackInfo@VValue@v8@@@Nan@@@Z@4HA 0000000180050780 f   njsPool.obj
 0001:0004f78c       ?dtor$1@?0??GetConnectionsOpen@Pool@@CAXV?$Local@VString@v8@@@v8@@AEBV?$PropertyCallbackInfo@VValue@v8@@@Nan@@@Z@4HA 000000018005078c f   njsPool.obj
 0001:0004f798       ?catch$2@?0??GetConnectionsOpen@Pool@@CAXV?$Local@VString@v8@@@v8@@AEBV?$PropertyCallbackInfo@VValue@v8@@@Nan@@@Z@4HA 0000000180050798 f   njsPool.obj
 0001:0004f7a5       __catch$?GetConnectionsOpen@Pool@@CAXV?$Local@VString@v8@@@v8@@AEBV?$PropertyCallbackInfo@VValue@v8@@@Nan@@@Z$0 00000001800507a5 f   njsPool.obj
 0001:0004f7f0       ?dtor$0@?0??GetConnectionsInUse@Pool@@CAXV?$Local@VString@v8@@@v8@@AEBV?$PropertyCallbackInfo@VValue@v8@@@Nan@@@Z@4HA 00000001800507f0 f   njsPool.obj
 0001:0004f7fc       ?dtor$1@?0??GetConnectionsInUse@Pool@@CAXV?$Local@VString@v8@@@v8@@AEBV?$PropertyCallbackInfo@VValue@v8@@@Nan@@@Z@4HA 00000001800507fc f   njsPool.obj
 0001:0004f808       ?catch$2@?0??GetConnectionsInUse@Pool@@CAXV?$Local@VString@v8@@@v8@@AEBV?$PropertyCallbackInfo@VValue@v8@@@Nan@@@Z@4HA 0000000180050808 f   njsPool.obj
 0001:0004f815       __catch$?GetConnectionsInUse@Pool@@CAXV?$Local@VString@v8@@@v8@@AEBV?$PropertyCallbackInfo@VValue@v8@@@Nan@@@Z$0 0000000180050815 f   njsPool.obj
 0001:0004f860       ?dtor$0@?0??setPoolProperty@Pool@@CAXPEAV1@V?$basic_string@DU?$char_traits@D@std@@V?$allocator@D@2@@std@@@Z@4HA 0000000180050860 f   njsPool.obj
 0001:0004f86c       ?dtor$1@?0??setPoolProperty@Pool@@CAXPEAV1@V?$basic_string@DU?$char_traits@D@std@@V?$allocator@D@2@@std@@@Z@4HA 000000018005086c f   njsPool.obj
 0001:0004f878       ?dtor$2@?0??setPoolProperty@Pool@@CAXPEAV1@V?$basic_string@DU?$char_traits@D@std@@V?$allocator@D@2@@std@@@Z@4HA 0000000180050878 f   njsPool.obj
 0001:0004f884       ?dtor$3@?0??setPoolProperty@Pool@@CAXPEAV1@V?$basic_string@DU?$char_traits@D@std@@V?$allocator@D@2@@std@@@Z@4HA 0000000180050884 f   njsPool.obj
 0001:0004f890       ?dtor$0@?0??SetStmtCacheSize@Pool@@CAXV?$Local@VString@v8@@@v8@@V?$Local@VValue@v8@@@3@AEBV?$PropertyCallbackInfo@X@Nan@@@Z@4HA 0000000180050890 f   njsPool.obj
 0001:0004f890       ?dtor$0@?0??SetConnectionsOpen@Pool@@CAXV?$Local@VString@v8@@@v8@@V?$Local@VValue@v8@@@3@AEBV?$PropertyCallbackInfo@X@Nan@@@Z@4HA 0000000180050890 f   njsPool.obj
 0001:0004f890       ?dtor$0@?0??SetPoolMin@Pool@@CAXV?$Local@VString@v8@@@v8@@V?$Local@VValue@v8@@@3@AEBV?$PropertyCallbackInfo@X@Nan@@@Z@4HA 0000000180050890 f   njsPool.obj
 0001:0004f890       ?dtor$0@?0??SetPoolIncrement@Pool@@CAXV?$Local@VString@v8@@@v8@@V?$Local@VValue@v8@@@3@AEBV?$PropertyCallbackInfo@X@Nan@@@Z@4HA 0000000180050890 f   njsPool.obj
 0001:0004f890       ?dtor$0@?0??SetPoolMax@Pool@@CAXV?$Local@VString@v8@@@v8@@V?$Local@VValue@v8@@@3@AEBV?$PropertyCallbackInfo@X@Nan@@@Z@4HA 0000000180050890 f   njsPool.obj
 0001:0004f890       ?dtor$0@?0??SetPoolTimeout@Pool@@CAXV?$Local@VString@v8@@@v8@@V?$Local@VValue@v8@@@3@AEBV?$PropertyCallbackInfo@X@Nan@@@Z@4HA 0000000180050890 f   njsPool.obj
 0001:0004f890       ?dtor$0@?0??SetConnectionsInUse@Pool@@CAXV?$Local@VString@v8@@@v8@@V?$Local@VValue@v8@@@3@AEBV?$PropertyCallbackInfo@X@Nan@@@Z@4HA 0000000180050890 f   njsPool.obj
 0001:0004f890       ?dtor$0@?0??SetPoolPingInterval@Pool@@CAXV?$Local@VString@v8@@@v8@@V?$Local@VValue@v8@@@3@AEBV?$PropertyCallbackInfo@X@Nan@@@Z@4HA 0000000180050890 f   njsPool.obj
 0001:0004f8a0       ?dtor$0@?0??GetConnection@Pool@@CAXAEBV?$FunctionCallbackInfo@VValue@v8@@@Nan@@@Z@4HA 00000001800508a0 f   njsPool.obj
 0001:0004f8a0       ?dtor$0@?0??Terminate@Pool@@CAXAEBV?$FunctionCallbackInfo@VValue@v8@@@Nan@@@Z@4HA 00000001800508a0 f   njsPool.obj
 0001:0004f8ac       ?dtor$2@?0??GetConnection@Pool@@CAXAEBV?$FunctionCallbackInfo@VValue@v8@@@Nan@@@Z@4HA 00000001800508ac f   njsPool.obj
 0001:0004f8ac       ?dtor$2@?0??Terminate@Pool@@CAXAEBV?$FunctionCallbackInfo@VValue@v8@@@Nan@@@Z@4HA 00000001800508ac f   njsPool.obj
 0001:0004f8c9       ?dtor$6@?0??GetConnection@Pool@@CAXAEBV?$FunctionCallbackInfo@VValue@v8@@@Nan@@@Z@4HA 00000001800508c9 f   njsPool.obj
 0001:0004f8c9       ?dtor$6@?0??Terminate@Pool@@CAXAEBV?$FunctionCallbackInfo@VValue@v8@@@Nan@@@Z@4HA 00000001800508c9 f   njsPool.obj
 0001:0004f8e0       ?dtor$0@?0??Async_GetConnection@Pool@@CAXPEAUuv_work_s@@@Z@4HA 00000001800508e0 f   njsPool.obj
 0001:0004f8ec       ?dtor$1@?0??Async_GetConnection@Pool@@CAXPEAUuv_work_s@@@Z@4HA 00000001800508ec f   njsPool.obj
 0001:0004f8f8       ?dtor$2@?0??Async_GetConnection@Pool@@CAXPEAUuv_work_s@@@Z@4HA 00000001800508f8 f   njsPool.obj
 0001:0004f904       ?dtor$4@?0??Async_GetConnection@Pool@@CAXPEAUuv_work_s@@@Z@4HA 0000000180050904 f   njsPool.obj
 0001:0004f924       ?catch$5@?0??Async_GetConnection@Pool@@CAXPEAUuv_work_s@@@Z@4HA 0000000180050924 f   njsPool.obj
 0001:0004f931       __catch$?Async_GetConnection@Pool@@CAXPEAUuv_work_s@@@Z$1 0000000180050931 f   njsPool.obj
 0001:0004fa10       ?catch$1@?0??Async_Terminate@Pool@@CAXPEAUuv_work_s@@@Z@4HA 0000000180050a10 f   njsPool.obj
 0001:0004fa1d       __catch$?Async_Terminate@Pool@@CAXPEAUuv_work_s@@@Z$1 0000000180050a1d f   njsPool.obj
 0001:0004faf0       ?dtor$0@?0??Async_AfterTerminate@Pool@@CAXPEAUuv_work_s@@@Z@4HA 0000000180050af0 f   njsPool.obj
 0001:0004faf0       ?dtor$0@?0??Async_AfterBreak@Connection@@CAXPEAUuv_work_s@@@Z@4HA 0000000180050af0 f   njsConnection.obj
 0001:0004faf0       ?dtor$0@?0??Async_AfterClose@ILob@@CAXPEAUuv_work_s@@@Z@4HA 0000000180050af0 f   njsIntLob.obj
 0001:0004faf0       ?dtor$0@?0??Async_AfterRollback@Connection@@CAXPEAUuv_work_s@@@Z@4HA 0000000180050af0 f   njsConnection.obj
 0001:0004faf0       ?dtor$0@?0??Async_AfterWrite@ILob@@CAXPEAUuv_work_s@@@Z@4HA 0000000180050af0 f   njsIntLob.obj
 0001:0004faf0       ?dtor$0@?0??Async_AfterCommit@Connection@@CAXPEAUuv_work_s@@@Z@4HA 0000000180050af0 f   njsConnection.obj
 0001:0004faf0       ?dtor$0@?0??Async_AfterClose@ResultSet@@CAXPEAUuv_work_s@@@Z@4HA 0000000180050af0 f   njsResultSet.obj
 0001:0004fafc       ?dtor$1@?0??Async_AfterWrite@ILob@@CAXPEAUuv_work_s@@@Z@4HA 0000000180050afc f   njsIntLob.obj
 0001:0004fafc       ?dtor$1@?0??Async_AfterRollback@Connection@@CAXPEAUuv_work_s@@@Z@4HA 0000000180050afc f   njsConnection.obj
 0001:0004fafc       ?dtor$1@?0??Async_AfterCommit@Connection@@CAXPEAUuv_work_s@@@Z@4HA 0000000180050afc f   njsConnection.obj
 0001:0004fafc       ?dtor$1@?0??Async_AfterClose@ResultSet@@CAXPEAUuv_work_s@@@Z@4HA 0000000180050afc f   njsResultSet.obj
 0001:0004fafc       ?dtor$1@?0??Async_AfterTerminate@Pool@@CAXPEAUuv_work_s@@@Z@4HA 0000000180050afc f   njsPool.obj
 0001:0004fafc       ?dtor$1@?0??Async_AfterBreak@Connection@@CAXPEAUuv_work_s@@@Z@4HA 0000000180050afc f   njsConnection.obj
 0001:0004fafc       ?dtor$1@?0??Async_AfterClose@ILob@@CAXPEAUuv_work_s@@@Z@4HA 0000000180050afc f   njsIntLob.obj
 0001:0004fb10       ?dtor$0@?0??ForceSet@Nan@@YA?AV?$Maybe@_N@v8@@V?$Local@VObject@v8@@@3@V?$Local@VValue@v8@@@3@1W4PropertyAttribute@3@@Z@4HA 0000000180050b10 f   njsConnection.obj
 0001:0004fb20       ?dtor$0@?0???0eBaton@@QEAA@AEAIV?$Local@VFunction@v8@@@v8@@V?$Local@VObject@v8@@@2@@Z@4HA 0000000180050b20 f   njsConnection.obj
 0001:0004fb33       ?dtor$1@?0???0eBaton@@QEAA@AEAIV?$Local@VFunction@v8@@@v8@@V?$Local@VObject@v8@@@2@@Z@4HA 0000000180050b33 f   njsConnection.obj
 0001:0004fb46       ?dtor$2@?0???0eBaton@@QEAA@AEAIV?$Local@VFunction@v8@@@v8@@V?$Local@VObject@v8@@@2@@Z@4HA 0000000180050b46 f   njsConnection.obj
 0001:0004fb59       ?dtor$3@?0???0eBaton@@QEAA@AEAIV?$Local@VFunction@v8@@@v8@@V?$Local@VObject@v8@@@2@@Z@4HA 0000000180050b59 f   njsConnection.obj
 0001:0004fb6c       ?dtor$4@?0???0eBaton@@QEAA@AEAIV?$Local@VFunction@v8@@@v8@@V?$Local@VObject@v8@@@2@@Z@4HA 0000000180050b6c f   njsConnection.obj
 0001:0004fb7f       ?dtor$5@?0???0eBaton@@QEAA@AEAIV?$Local@VFunction@v8@@@v8@@V?$Local@VObject@v8@@@2@@Z@4HA 0000000180050b7f f   njsConnection.obj
 0001:0004fb92       ?dtor$6@?0???0eBaton@@QEAA@AEAIV?$Local@VFunction@v8@@@v8@@V?$Local@VObject@v8@@@2@@Z@4HA 0000000180050b92 f   njsConnection.obj
 0001:0004fba5       ?dtor$7@?0???0eBaton@@QEAA@AEAIV?$Local@VFunction@v8@@@v8@@V?$Local@VObject@v8@@@2@@Z@4HA 0000000180050ba5 f   njsConnection.obj
 0001:0004fbb8       ?dtor$8@?0???0eBaton@@QEAA@AEAIV?$Local@VFunction@v8@@@v8@@V?$Local@VObject@v8@@@2@@Z@4HA 0000000180050bb8 f   njsConnection.obj
 0001:0004fbd0       ?dtor$0@?0??lobPropertyException@ILob@@CAXPEAV1@W4NJSErrorType@@V?$basic_string@DU?$char_traits@D@std@@V?$allocator@D@2@@std@@@Z@4HA 0000000180050bd0 f   njsIntLob.obj
 0001:0004fbd0       ?dtor$0@?0??connectionPropertyException@Connection@@CAXPEAV1@W4NJSErrorType@@V?$basic_string@DU?$char_traits@D@std@@V?$allocator@D@2@@std@@@Z@4HA 0000000180050bd0 f   njsConnection.obj
 0001:0004fbdc       ?dtor$1@?0??connectionPropertyException@Connection@@CAXPEAV1@W4NJSErrorType@@V?$basic_string@DU?$char_traits@D@std@@V?$allocator@D@2@@std@@@Z@4HA 0000000180050bdc f   njsConnection.obj
 0001:0004fbdc       ?dtor$1@?0??lobPropertyException@ILob@@CAXPEAV1@W4NJSErrorType@@V?$basic_string@DU?$char_traits@D@std@@V?$allocator@D@2@@std@@@Z@4HA 0000000180050bdc f   njsIntLob.obj
 0001:0004fbe8       ?dtor$2@?0??connectionPropertyException@Connection@@CAXPEAV1@W4NJSErrorType@@V?$basic_string@DU?$char_traits@D@std@@V?$allocator@D@2@@std@@@Z@4HA 0000000180050be8 f   njsConnection.obj
 0001:0004fbe8       ?dtor$2@?0??lobPropertyException@ILob@@CAXPEAV1@W4NJSErrorType@@V?$basic_string@DU?$char_traits@D@std@@V?$allocator@D@2@@std@@@Z@4HA 0000000180050be8 f   njsIntLob.obj
 0001:0004fc00       ?dtor$0@?0??GetStmtCacheSize@Connection@@CAXV?$Local@VString@v8@@@v8@@AEBV?$PropertyCallbackInfo@VValue@v8@@@Nan@@@Z@4HA 0000000180050c00 f   njsConnection.obj
 0001:0004fc0c       ?dtor$1@?0??GetStmtCacheSize@Connection@@CAXV?$Local@VString@v8@@@v8@@AEBV?$PropertyCallbackInfo@VValue@v8@@@Nan@@@Z@4HA 0000000180050c0c f   njsConnection.obj
 0001:0004fc18       ?catch$2@?0??GetStmtCacheSize@Connection@@CAXV?$Local@VString@v8@@@v8@@AEBV?$PropertyCallbackInfo@VValue@v8@@@Nan@@@Z@4HA 0000000180050c18 f   njsConnection.obj
 0001:0004fc27       __catch$?GetStmtCacheSize@Connection@@CAXV?$Local@VString@v8@@@v8@@AEBV?$PropertyCallbackInfo@VValue@v8@@@Nan@@@Z$0 0000000180050c27 f   njsConnection.obj
 0001:0004fcb0       ?dtor$0@?0??SetClientId@Connection@@CAXV?$Local@VString@v8@@@v8@@V?$Local@VValue@v8@@@3@AEBV?$PropertyCallbackInfo@X@Nan@@@Z@4HA 0000000180050cb0 f   njsConnection.obj
 0001:0004fcbc       ?dtor$1@?0??SetClientId@Connection@@CAXV?$Local@VString@v8@@@v8@@V?$Local@VValue@v8@@@3@AEBV?$PropertyCallbackInfo@X@Nan@@@Z@4HA 0000000180050cbc f   njsConnection.obj
 0001:0004fcc8       ?dtor$2@?0??SetClientId@Connection@@CAXV?$Local@VString@v8@@@v8@@V?$Local@VValue@v8@@@3@AEBV?$PropertyCallbackInfo@X@Nan@@@Z@4HA 0000000180050cc8 f   njsConnection.obj
 0001:0004fcd4       ?dtor$3@?0??SetClientId@Connection@@CAXV?$Local@VString@v8@@@v8@@V?$Local@VValue@v8@@@3@AEBV?$PropertyCallbackInfo@X@Nan@@@Z@4HA 0000000180050cd4 f   njsConnection.obj
 0001:0004fce0       ?dtor$4@?0??SetClientId@Connection@@CAXV?$Local@VString@v8@@@v8@@V?$Local@VValue@v8@@@3@AEBV?$PropertyCallbackInfo@X@Nan@@@Z@4HA 0000000180050ce0 f   njsConnection.obj
 0001:0004fcee       ?catch$7@?0??SetClientId@Connection@@CAXV?$Local@VString@v8@@@v8@@V?$Local@VValue@v8@@@3@AEBV?$PropertyCallbackInfo@X@Nan@@@Z@4HA 0000000180050cee f   njsConnection.obj
 0001:0004fcfd       __catch$?SetClientId@Connection@@CAXV?$Local@VString@v8@@@v8@@V?$Local@VValue@v8@@@3@AEBV?$PropertyCallbackInfo@X@Nan@@@Z$0 0000000180050cfd f   njsConnection.obj
 0001:0004fd80       ?dtor$0@?0??SetModule@Connection@@CAXV?$Local@VString@v8@@@v8@@V?$Local@VValue@v8@@@3@AEBV?$PropertyCallbackInfo@X@Nan@@@Z@4HA 0000000180050d80 f   njsConnection.obj
 0001:0004fd8c       ?dtor$1@?0??SetModule@Connection@@CAXV?$Local@VString@v8@@@v8@@V?$Local@VValue@v8@@@3@AEBV?$PropertyCallbackInfo@X@Nan@@@Z@4HA 0000000180050d8c f   njsConnection.obj
 0001:0004fd98       ?dtor$2@?0??SetModule@Connection@@CAXV?$Local@VString@v8@@@v8@@V?$Local@VValue@v8@@@3@AEBV?$PropertyCallbackInfo@X@Nan@@@Z@4HA 0000000180050d98 f   njsConnection.obj
 0001:0004fda4       ?dtor$3@?0??SetModule@Connection@@CAXV?$Local@VString@v8@@@v8@@V?$Local@VValue@v8@@@3@AEBV?$PropertyCallbackInfo@X@Nan@@@Z@4HA 0000000180050da4 f   njsConnection.obj
 0001:0004fdb0       ?dtor$4@?0??SetModule@Connection@@CAXV?$Local@VString@v8@@@v8@@V?$Local@VValue@v8@@@3@AEBV?$PropertyCallbackInfo@X@Nan@@@Z@4HA 0000000180050db0 f   njsConnection.obj
 0001:0004fdbe       ?catch$7@?0??SetModule@Connection@@CAXV?$Local@VString@v8@@@v8@@V?$Local@VValue@v8@@@3@AEBV?$PropertyCallbackInfo@X@Nan@@@Z@4HA 0000000180050dbe f   njsConnection.obj
 0001:0004fdcd       __catch$?SetModule@Connection@@CAXV?$Local@VString@v8@@@v8@@V?$Local@VValue@v8@@@3@AEBV?$PropertyCallbackInfo@X@Nan@@@Z$0 0000000180050dcd f   njsConnection.obj
 0001:0004fe50       ?dtor$0@?0??SetAction@Connection@@CAXV?$Local@VString@v8@@@v8@@V?$Local@VValue@v8@@@3@AEBV?$PropertyCallbackInfo@X@Nan@@@Z@4HA 0000000180050e50 f   njsConnection.obj
 0001:0004fe5c       ?dtor$1@?0??SetAction@Connection@@CAXV?$Local@VString@v8@@@v8@@V?$Local@VValue@v8@@@3@AEBV?$PropertyCallbackInfo@X@Nan@@@Z@4HA 0000000180050e5c f   njsConnection.obj
 0001:0004fe68       ?dtor$2@?0??SetAction@Connection@@CAXV?$Local@VString@v8@@@v8@@V?$Local@VValue@v8@@@3@AEBV?$PropertyCallbackInfo@X@Nan@@@Z@4HA 0000000180050e68 f   njsConnection.obj
 0001:0004fe74       ?dtor$3@?0??SetAction@Connection@@CAXV?$Local@VString@v8@@@v8@@V?$Local@VValue@v8@@@3@AEBV?$PropertyCallbackInfo@X@Nan@@@Z@4HA 0000000180050e74 f   njsConnection.obj
 0001:0004fe80       ?dtor$4@?0??SetAction@Connection@@CAXV?$Local@VString@v8@@@v8@@V?$Local@VValue@v8@@@3@AEBV?$PropertyCallbackInfo@X@Nan@@@Z@4HA 0000000180050e80 f   njsConnection.obj
 0001:0004fe8e       ?catch$7@?0??SetAction@Connection@@CAXV?$Local@VString@v8@@@v8@@V?$Local@VValue@v8@@@3@AEBV?$PropertyCallbackInfo@X@Nan@@@Z@4HA 0000000180050e8e f   njsConnection.obj
 0001:0004fe9d       __catch$?SetAction@Connection@@CAXV?$Local@VString@v8@@@v8@@V?$Local@VValue@v8@@@3@AEBV?$PropertyCallbackInfo@X@Nan@@@Z$0 0000000180050e9d f   njsConnection.obj
 0001:0004ff20       ?dtor$0@?0??GetOracleServerVersion@Connection@@CAXV?$Local@VString@v8@@@v8@@AEBV?$PropertyCallbackInfo@VValue@v8@@@Nan@@@Z@4HA 0000000180050f20 f   njsConnection.obj
 0001:0004ff2c       ?dtor$1@?0??GetOracleServerVersion@Connection@@CAXV?$Local@VString@v8@@@v8@@AEBV?$PropertyCallbackInfo@VValue@v8@@@Nan@@@Z@4HA 0000000180050f2c f   njsConnection.obj
 0001:0004ff38       ?dtor$2@?0??GetOracleServerVersion@Connection@@CAXV?$Local@VString@v8@@@v8@@AEBV?$PropertyCallbackInfo@VValue@v8@@@Nan@@@Z@4HA 0000000180050f38 f   njsConnection.obj
 0001:0004ff46       ?catch$4@?0??GetOracleServerVersion@Connection@@CAXV?$Local@VString@v8@@@v8@@AEBV?$PropertyCallbackInfo@VValue@v8@@@Nan@@@Z@4HA 0000000180050f46 f   njsConnection.obj
 0001:0004ff55       __catch$?GetOracleServerVersion@Connection@@CAXV?$Local@VString@v8@@@v8@@AEBV?$PropertyCallbackInfo@VValue@v8@@@Nan@@@Z$0 0000000180050f55 f   njsConnection.obj
 0001:0004fff0       ?dtor$0@?0??Execute@Connection@@CAXAEBV?$FunctionCallbackInfo@VValue@v8@@@Nan@@@Z@4HA 0000000180050ff0 f   njsConnection.obj
 0001:0004fffc       ?dtor$2@?0??Execute@Connection@@CAXAEBV?$FunctionCallbackInfo@VValue@v8@@@Nan@@@Z@4HA 0000000180050ffc f   njsConnection.obj
 0001:00050008       ?dtor$3@?0??Execute@Connection@@CAXAEBV?$FunctionCallbackInfo@VValue@v8@@@Nan@@@Z@4HA 0000000180051008 f   njsConnection.obj
 0001:00050025       ?dtor$7@?0??Execute@Connection@@CAXAEBV?$FunctionCallbackInfo@VValue@v8@@@Nan@@@Z@4HA 0000000180051025 f   njsConnection.obj
 0001:00050033       ?dtor$10@?0??Execute@Connection@@CAXAEBV?$FunctionCallbackInfo@VValue@v8@@@Nan@@@Z@4HA 0000000180051033 f   njsConnection.obj
 0001:00050040       ?dtor$0@?0??ProcessBinds@Connection@@CAXAEBV?$FunctionCallbackInfo@VValue@v8@@@Nan@@IPEAUeBaton@@@Z@4HA 0000000180051040 f   njsConnection.obj
 0001:0005004c       ?dtor$3@?0??ProcessBinds@Connection@@CAXAEBV?$FunctionCallbackInfo@VValue@v8@@@Nan@@IPEAUeBaton@@@Z@4HA 000000018005104c f   njsConnection.obj
 0001:00050058       ?dtor$4@?0??ProcessBinds@Connection@@CAXAEBV?$FunctionCallbackInfo@VValue@v8@@@Nan@@IPEAUeBaton@@@Z@4HA 0000000180051058 f   njsConnection.obj
 0001:00050080       ?dtor$0@?0??ProcessOptions@Connection@@CAXAEBV?$FunctionCallbackInfo@VValue@v8@@@Nan@@IPEAUeBaton@@@Z@4HA 0000000180051080 f   njsConnection.obj
 0001:0005008c       ?dtor$19@?0??ProcessOptions@Connection@@CAXAEBV?$FunctionCallbackInfo@VValue@v8@@@Nan@@IPEAUeBaton@@@Z@4HA 000000018005108c f   njsConnection.obj
 0001:0005009a       ?dtor$8@?0??ProcessOptions@Connection@@CAXAEBV?$FunctionCallbackInfo@VValue@v8@@@Nan@@IPEAUeBaton@@@Z@4HA 000000018005109a f   njsConnection.obj
 0001:000500d8       ?dtor$9@?0??ProcessOptions@Connection@@CAXAEBV?$FunctionCallbackInfo@VValue@v8@@@Nan@@IPEAUeBaton@@@Z@4HA 00000001800510d8 f   njsConnection.obj
 0001:000500f0       ?dtor$0@?0??GetBinds@Connection@@CAXV?$Local@VObject@v8@@@v8@@PEAUeBaton@@@Z@4HA 00000001800510f0 f   njsConnection.obj
 0001:000500fc       ?dtor$1@?0??GetBinds@Connection@@CAXV?$Local@VObject@v8@@@v8@@PEAUeBaton@@@Z@4HA 00000001800510fc f   njsConnection.obj
 0001:00050108       ?dtor$2@?0??GetBinds@Connection@@CAXV?$Local@VObject@v8@@@v8@@PEAUeBaton@@@Z@4HA 0000000180051108 f   njsConnection.obj
 0001:00050125       ?dtor$3@?0??GetBinds@Connection@@CAXV?$Local@VObject@v8@@@v8@@PEAUeBaton@@@Z@4HA 0000000180051125 f   njsConnection.obj
 0001:00050133       ?dtor$5@?0??GetBinds@Connection@@CAXV?$Local@VObject@v8@@@v8@@PEAUeBaton@@@Z@4HA 0000000180051133 f   njsConnection.obj
 0001:00050140       ?dtor$0@?0??GetBindUnit@Connection@@CAXV?$Local@VValue@v8@@@v8@@PEAUBind@@_NPEAUeBaton@@@Z@4HA 0000000180051140 f   njsConnection.obj
 0001:0005014c       ?dtor$1@?0??GetBindUnit@Connection@@CAXV?$Local@VValue@v8@@@v8@@PEAUBind@@_NPEAUeBaton@@@Z@4HA 000000018005114c f   njsConnection.obj
 0001:00050158       ?dtor$2@?0??GetBindUnit@Connection@@CAXV?$Local@VValue@v8@@@v8@@PEAUBind@@_NPEAUeBaton@@@Z@4HA 0000000180051158 f   njsConnection.obj
 0001:00050170       ?dtor$0@?0??GetOutBindParams@Connection@@CAXGPEAUBind@@PEAUeBaton@@@Z@4HA 0000000180051170 f   njsConnection.obj
 0001:00050180       ?dtor$0@?0??GetOutBinds@Connection@@CA?AV?$Local@VValue@v8@@@v8@@PEAUeBaton@@@Z@4HA 0000000180051180 f   njsConnection.obj
 0001:00050180       ?dtor$0@?0??GetInBindParams@Connection@@CAXV?$Local@VValue@v8@@@v8@@PEAUBind@@PEAUeBaton@@@Z@4HA 0000000180051180 f   njsConnection.obj
 0001:00050190       ?dtor$0@?0??GetInBindParamsScalar@Connection@@CAXV?$Local@VValue@v8@@@v8@@PEAUBind@@PEAUeBaton@@@Z@4HA 0000000180051190 f   njsConnection.obj
 0001:0005019c       ?dtor$2@?0??GetInBindParamsScalar@Connection@@CAXV?$Local@VValue@v8@@@v8@@PEAUBind@@PEAUeBaton@@@Z@4HA 000000018005119c f   njsConnection.obj
 0001:000501aa       ?dtor$23@?0??GetInBindParamsScalar@Connection@@CAXV?$Local@VValue@v8@@@v8@@PEAUBind@@PEAUeBaton@@@Z@4HA 00000001800511aa f   njsConnection.obj
 0001:000501b6       ?dtor$18@?0??GetInBindParamsScalar@Connection@@CAXV?$Local@VValue@v8@@@v8@@PEAUBind@@PEAUeBaton@@@Z@4HA 00000001800511b6 f   njsConnection.obj
 0001:000501e0       ?dtor$0@?0??GetInBindParamsArray@Connection@@CAXV?$Local@VArray@v8@@@v8@@PEAUBind@@PEAUeBaton@@@Z@4HA 00000001800511e0 f   njsConnection.obj
 0001:000501f0       ?dtor$1@?0??Async_Execute@Connection@@CAXPEAUuv_work_s@@@Z@4HA 00000001800511f0 f   njsConnection.obj
 0001:0005022e       ?dtor$8@?0??Async_Execute@Connection@@CAXPEAUuv_work_s@@@Z@4HA 000000018005122e f   njsConnection.obj
 0001:0005026c       ?catch$12@?0??Async_Execute@Connection@@CAXPEAUuv_work_s@@@Z@4HA 000000018005126c f   njsConnection.obj
 0001:0005027b       __catch$?Async_Execute@Connection@@CAXPEAUuv_work_s@@@Z$13 000000018005127b f   njsConnection.obj
 0001:00050430       ?dtor$3@?0??PrepareAndBind@Connection@@CAXPEAUeBaton@@@Z@4HA 0000000180051430 f   njsConnection.obj
 0001:00050450       ?dtor$0@?0??Descr2protoILob@Connection@@CAXPEAUeBaton@@II@Z@4HA 0000000180051450 f   njsConnection.obj
 0001:0005046d       ?dtor$1@?0??Descr2protoILob@Connection@@CAXPEAUeBaton@@II@Z@4HA 000000018005146d f   njsConnection.obj
 0001:0005048a       ?dtor$2@?0??Descr2protoILob@Connection@@CAXPEAUeBaton@@II@Z@4HA 000000018005148a f   njsConnection.obj
 0001:000504b0       ?dtor$0@?0??Async_AfterExecute@Connection@@CAXPEAUuv_work_s@@@Z@4HA 00000001800514b0 f   njsConnection.obj
 0001:000504bc       ?dtor$1@?0??Async_AfterExecute@Connection@@CAXPEAUuv_work_s@@@Z@4HA 00000001800514bc f   njsConnection.obj
 0001:000504c8       ?dtor$8@?0??Async_AfterExecute@Connection@@CAXPEAUuv_work_s@@@Z@4HA 00000001800514c8 f   njsConnection.obj
 0001:000504d6       ?dtor$10@?0??Async_AfterExecute@Connection@@CAXPEAUuv_work_s@@@Z@4HA 00000001800514d6 f   njsConnection.obj
 0001:000504e4       ?dtor$12@?0??Async_AfterExecute@Connection@@CAXPEAUuv_work_s@@@Z@4HA 00000001800514e4 f   njsConnection.obj
 0001:000504f2       ?dtor$13@?0??Async_AfterExecute@Connection@@CAXPEAUuv_work_s@@@Z@4HA 00000001800514f2 f   njsConnection.obj
 0001:00050500       ?dtor$14@?0??Async_AfterExecute@Connection@@CAXPEAUuv_work_s@@@Z@4HA 0000000180051500 f   njsConnection.obj
 0001:0005050e       ?dtor$15@?0??Async_AfterExecute@Connection@@CAXPEAUuv_work_s@@@Z@4HA 000000018005150e f   njsConnection.obj
 0001:0005051c       ?dtor$16@?0??Async_AfterExecute@Connection@@CAXPEAUuv_work_s@@@Z@4HA 000000018005151c f   njsConnection.obj
 0001:0005052a       ?dtor$17@?0??Async_AfterExecute@Connection@@CAXPEAUuv_work_s@@@Z@4HA 000000018005152a f   njsConnection.obj
 0001:00050538       ?dtor$18@?0??Async_AfterExecute@Connection@@CAXPEAUuv_work_s@@@Z@4HA 0000000180051538 f   njsConnection.obj
 0001:00050546       ?dtor$19@?0??Async_AfterExecute@Connection@@CAXPEAUuv_work_s@@@Z@4HA 0000000180051546 f   njsConnection.obj
 0001:00050554       ?dtor$20@?0??Async_AfterExecute@Connection@@CAXPEAUuv_work_s@@@Z@4HA 0000000180051554 f   njsConnection.obj
 0001:00050562       ?dtor$21@?0??Async_AfterExecute@Connection@@CAXPEAUuv_work_s@@@Z@4HA 0000000180051562 f   njsConnection.obj
 0001:00050570       ?dtor$22@?0??Async_AfterExecute@Connection@@CAXPEAUuv_work_s@@@Z@4HA 0000000180051570 f   njsConnection.obj
 0001:0005057e       ?dtor$24@?0??Async_AfterExecute@Connection@@CAXPEAUuv_work_s@@@Z@4HA 000000018005157e f   njsConnection.obj
 0001:0005058c       ?dtor$25@?0??Async_AfterExecute@Connection@@CAXPEAUuv_work_s@@@Z@4HA 000000018005158c f   njsConnection.obj
 0001:00050598       ?dtor$33@?0??Async_AfterExecute@Connection@@CAXPEAUuv_work_s@@@Z@4HA 0000000180051598 f   njsConnection.obj
 0001:000505a6       ?dtor$34@?0??Async_AfterExecute@Connection@@CAXPEAUuv_work_s@@@Z@4HA 00000001800515a6 f   njsConnection.obj
 0001:000505b4       ?dtor$35@?0??Async_AfterExecute@Connection@@CAXPEAUuv_work_s@@@Z@4HA 00000001800515b4 f   njsConnection.obj
 0001:000505c2       ?dtor$36@?0??Async_AfterExecute@Connection@@CAXPEAUuv_work_s@@@Z@4HA 00000001800515c2 f   njsConnection.obj
 0001:000505d0       ?dtor$0@?0??GetMetaData@Connection@@SA?AV?$Local@VValue@v8@@@v8@@PEBUMetaInfo@@I_N@Z@4HA 00000001800515d0 f   njsConnection.obj
 0001:000505dc       ?dtor$3@?0??GetMetaData@Connection@@SA?AV?$Local@VValue@v8@@@v8@@PEBUMetaInfo@@I_N@Z@4HA 00000001800515dc f   njsConnection.obj
 0001:000505ea       ?dtor$4@?0??GetMetaData@Connection@@SA?AV?$Local@VValue@v8@@@v8@@PEBUMetaInfo@@I_N@Z@4HA 00000001800515ea f   njsConnection.obj
 0001:000505f8       ?dtor$5@?0??GetMetaData@Connection@@SA?AV?$Local@VValue@v8@@@v8@@PEBUMetaInfo@@I_N@Z@4HA 00000001800515f8 f   njsConnection.obj
 0001:00050606       ?dtor$6@?0??GetMetaData@Connection@@SA?AV?$Local@VValue@v8@@@v8@@PEBUMetaInfo@@I_N@Z@4HA 0000000180051606 f   njsConnection.obj
 0001:00050614       ?dtor$7@?0??GetMetaData@Connection@@SA?AV?$Local@VValue@v8@@@v8@@PEBUMetaInfo@@I_N@Z@4HA 0000000180051614 f   njsConnection.obj
 0001:00050622       ?dtor$8@?0??GetMetaData@Connection@@SA?AV?$Local@VValue@v8@@@v8@@PEBUMetaInfo@@I_N@Z@4HA 0000000180051622 f   njsConnection.obj
 0001:00050630       ?dtor$9@?0??GetMetaData@Connection@@SA?AV?$Local@VValue@v8@@@v8@@PEBUMetaInfo@@I_N@Z@4HA 0000000180051630 f   njsConnection.obj
 0001:0005063e       ?dtor$10@?0??GetMetaData@Connection@@SA?AV?$Local@VValue@v8@@@v8@@PEBUMetaInfo@@I_N@Z@4HA 000000018005163e f   njsConnection.obj
 0001:0005064c       ?dtor$11@?0??GetMetaData@Connection@@SA?AV?$Local@VValue@v8@@@v8@@PEBUMetaInfo@@I_N@Z@4HA 000000018005164c f   njsConnection.obj
 0001:00050660       ?dtor$0@?0??GetRows@Connection@@SA?AV?$Local@VValue@v8@@@v8@@PEAUeBaton@@@Z@4HA 0000000180051660 f   njsConnection.obj
 0001:0005066c       ?dtor$4@?0??GetRows@Connection@@SA?AV?$Local@VValue@v8@@@v8@@PEAUeBaton@@@Z@4HA 000000018005166c f   njsConnection.obj
 0001:00050678       ?dtor$16@?0??GetRows@Connection@@SA?AV?$Local@VValue@v8@@@v8@@PEAUeBaton@@@Z@4HA 0000000180051678 f   njsConnection.obj
 0001:00050686       ?dtor$17@?0??GetRows@Connection@@SA?AV?$Local@VValue@v8@@@v8@@PEAUeBaton@@@Z@4HA 0000000180051686 f   njsConnection.obj
 0001:00050694       ?dtor$18@?0??GetRows@Connection@@SA?AV?$Local@VValue@v8@@@v8@@PEAUeBaton@@@Z@4HA 0000000180051694 f   njsConnection.obj
 0001:000506a0       ?dtor$30@?0??GetRows@Connection@@SA?AV?$Local@VValue@v8@@@v8@@PEAUeBaton@@@Z@4HA 00000001800516a0 f   njsConnection.obj
 0001:000506ae       ?dtor$31@?0??GetRows@Connection@@SA?AV?$Local@VValue@v8@@@v8@@PEAUeBaton@@@Z@4HA 00000001800516ae f   njsConnection.obj
 0001:000506c0       ?dtor$0@?0??ToV8Value@Connection@@CA?AV?$Local@VValue@v8@@@v8@@PEAUeBaton@@_NII@Z@4HA 00000001800516c0 f   njsConnection.obj
 0001:000506cc       ?dtor$2@?0??ToV8Value@Connection@@CA?AV?$Local@VValue@v8@@@v8@@PEAUeBaton@@_NII@Z@4HA 00000001800516cc f   njsConnection.obj
 0001:000506e0       ?dtor$0@?0??Bind2V8Value@Connection@@CA?AV?$Local@VValue@v8@@@v8@@PEAUeBaton@@PEAUBind@@I@Z@4HA 00000001800516e0 f   njsConnection.obj
 0001:000506ec       ?dtor$2@?0??Bind2V8Value@Connection@@CA?AV?$Local@VValue@v8@@@v8@@PEAUeBaton@@PEAUBind@@I@Z@4HA 00000001800516ec f   njsConnection.obj
 0001:00050700       ?dtor$0@?0??Define2V8Value@Connection@@CA?AV?$Local@VValue@v8@@@v8@@PEAUeBaton@@IIPEAUDefine@@PEAUExtDefine@@@Z@4HA 0000000180051700 f   njsConnection.obj
 0001:0005070c       ?dtor$2@?0??Define2V8Value@Connection@@CA?AV?$Local@VValue@v8@@@v8@@PEAUeBaton@@IIPEAUDefine@@PEAUExtDefine@@@Z@4HA 000000018005170c f   njsConnection.obj
 0001:00050720       ?dtor$0@?0??RefCursor2V8Value@Connection@@CA?AV?$Local@VValue@v8@@@v8@@PEAUeBaton@@PEAUBind@@PEAUExtBind@@@Z@4HA 0000000180051720 f   njsConnection.obj
 0001:0005072c       ?dtor$2@?0??RefCursor2V8Value@Connection@@CA?AV?$Local@VValue@v8@@@v8@@PEAUeBaton@@PEAUBind@@PEAUExtBind@@@Z@4HA 000000018005172c f   njsConnection.obj
 0001:0005073a       ?dtor$4@?0??RefCursor2V8Value@Connection@@CA?AV?$Local@VValue@v8@@@v8@@PEAUeBaton@@PEAUBind@@PEAUExtBind@@@Z@4HA 000000018005173a f   njsConnection.obj
 0001:00050750       ?dtor$0@?0??ToV8ArrayValue@Connection@@CA?AV?$Local@VValue@v8@@@v8@@PEAUeBaton@@PEAUBind@@K@Z@4HA 0000000180051750 f   njsConnection.obj
 0001:0005075c       ?dtor$2@?0??ToV8ArrayValue@Connection@@CA?AV?$Local@VValue@v8@@@v8@@PEAUeBaton@@PEAUBind@@K@Z@4HA 000000018005175c f   njsConnection.obj
 0001:0005076a       ?dtor$3@?0??ToV8ArrayValue@Connection@@CA?AV?$Local@VValue@v8@@@v8@@PEAUeBaton@@PEAUBind@@K@Z@4HA 000000018005176a f   njsConnection.obj
 0001:00050778       ?dtor$4@?0??ToV8ArrayValue@Connection@@CA?AV?$Local@VValue@v8@@@v8@@PEAUeBaton@@PEAUBind@@K@Z@4HA 0000000180051778 f   njsConnection.obj
 0001:00050786       ?dtor$6@?0??ToV8ArrayValue@Connection@@CA?AV?$Local@VValue@v8@@@v8@@PEAUeBaton@@PEAUBind@@K@Z@4HA 0000000180051786 f   njsConnection.obj
 0001:00050794       ?dtor$7@?0??ToV8ArrayValue@Connection@@CA?AV?$Local@VValue@v8@@@v8@@PEAUeBaton@@PEAUBind@@K@Z@4HA 0000000180051794 f   njsConnection.obj
 0001:000507a2       ?dtor$8@?0??ToV8ArrayValue@Connection@@CA?AV?$Local@VValue@v8@@@v8@@PEAUeBaton@@PEAUBind@@K@Z@4HA 00000001800517a2 f   njsConnection.obj
 0001:000507b0       ?dtor$10@?0??ToV8ArrayValue@Connection@@CA?AV?$Local@VValue@v8@@@v8@@PEAUeBaton@@PEAUBind@@K@Z@4HA 00000001800517b0 f   njsConnection.obj
 0001:000507be       ?dtor$11@?0??ToV8ArrayValue@Connection@@CA?AV?$Local@VValue@v8@@@v8@@PEAUeBaton@@PEAUBind@@K@Z@4HA 00000001800517be f   njsConnection.obj
 0001:000507d0       ?dtor$0@?0??GetOutBindArray@Connection@@CA?AV?$Local@VValue@v8@@@v8@@PEAUeBaton@@@Z@4HA 00000001800517d0 f   njsConnection.obj
 0001:000507dc       ?dtor$1@?0??GetOutBindArray@Connection@@CA?AV?$Local@VValue@v8@@@v8@@PEAUeBaton@@@Z@4HA 00000001800517dc f   njsConnection.obj
 0001:000507e8       ?dtor$3@?0??GetOutBindArray@Connection@@CA?AV?$Local@VValue@v8@@@v8@@PEAUeBaton@@@Z@4HA 00000001800517e8 f   njsConnection.obj
 0001:00050800       ?dtor$0@?0??GetOutBindObject@Connection@@CA?AV?$Local@VValue@v8@@@v8@@PEAUeBaton@@@Z@4HA 0000000180051800 f   njsConnection.obj
 0001:0005080c       ?dtor$1@?0??GetOutBindObject@Connection@@CA?AV?$Local@VValue@v8@@@v8@@PEAUeBaton@@@Z@4HA 000000018005180c f   njsConnection.obj
 0001:00050818       ?dtor$4@?0??GetOutBindObject@Connection@@CA?AV?$Local@VValue@v8@@@v8@@PEAUeBaton@@@Z@4HA 0000000180051818 f   njsConnection.obj
 0001:00050830       ?dtor$0@?0??Release@Connection@@CAXAEBV?$FunctionCallbackInfo@VValue@v8@@@Nan@@@Z@4HA 0000000180051830 f   njsConnection.obj
 0001:0005083c       ?dtor$1@?0??Release@Connection@@CAXAEBV?$FunctionCallbackInfo@VValue@v8@@@Nan@@@Z@4HA 000000018005183c f   njsConnection.obj
 0001:00050848       ?dtor$3@?0??Release@Connection@@CAXAEBV?$FunctionCallbackInfo@VValue@v8@@@Nan@@@Z@4HA 0000000180051848 f   njsConnection.obj
 0001:00050854       ?dtor$4@?0??Release@Connection@@CAXAEBV?$FunctionCallbackInfo@VValue@v8@@@Nan@@@Z@4HA 0000000180051854 f   njsConnection.obj
 0001:00050871       ?dtor$10@?0??Release@Connection@@CAXAEBV?$FunctionCallbackInfo@VValue@v8@@@Nan@@@Z@4HA 0000000180051871 f   njsConnection.obj
 0001:00050880       ?dtor$0@?0??Async_Release@Connection@@CAXPEAUuv_work_s@@@Z@4HA 0000000180051880 f   njsConnection.obj
 0001:0005088c       ?catch$2@?0??Async_Release@Connection@@CAXPEAUuv_work_s@@@Z@4HA 000000018005188c f   njsConnection.obj
 0001:0005089b       __catch$?Async_Release@Connection@@CAXPEAUuv_work_s@@@Z$1 000000018005189b f   njsConnection.obj
 0001:000509a0       ?dtor$0@?0??Async_AfterRelease@Connection@@CAXPEAUuv_work_s@@@Z@4HA 00000001800519a0 f   njsConnection.obj
 0001:000509ac       ?dtor$1@?0??Async_AfterRelease@Connection@@CAXPEAUuv_work_s@@@Z@4HA 00000001800519ac f   njsConnection.obj
 0001:000509c0       ?dtor$0@?0??Commit@Connection@@CAXAEBV?$FunctionCallbackInfo@VValue@v8@@@Nan@@@Z@4HA 00000001800519c0 f   njsConnection.obj
 0001:000509c0       ?dtor$0@?0??Rollback@Connection@@CAXAEBV?$FunctionCallbackInfo@VValue@v8@@@Nan@@@Z@4HA 00000001800519c0 f   njsConnection.obj
 0001:000509c0       ?dtor$0@?0??Break@Connection@@CAXAEBV?$FunctionCallbackInfo@VValue@v8@@@Nan@@@Z@4HA 00000001800519c0 f   njsConnection.obj
 0001:000509cc       ?dtor$2@?0??Commit@Connection@@CAXAEBV?$FunctionCallbackInfo@VValue@v8@@@Nan@@@Z@4HA 00000001800519cc f   njsConnection.obj
 0001:000509cc       ?dtor$2@?0??Break@Connection@@CAXAEBV?$FunctionCallbackInfo@VValue@v8@@@Nan@@@Z@4HA 00000001800519cc f   njsConnection.obj
 0001:000509cc       ?dtor$2@?0??Rollback@Connection@@CAXAEBV?$FunctionCallbackInfo@VValue@v8@@@Nan@@@Z@4HA 00000001800519cc f   njsConnection.obj
 0001:000509d8       ?dtor$3@?0??Rollback@Connection@@CAXAEBV?$FunctionCallbackInfo@VValue@v8@@@Nan@@@Z@4HA 00000001800519d8 f   njsConnection.obj
 0001:000509d8       ?dtor$3@?0??Commit@Connection@@CAXAEBV?$FunctionCallbackInfo@VValue@v8@@@Nan@@@Z@4HA 00000001800519d8 f   njsConnection.obj
 0001:000509d8       ?dtor$3@?0??Break@Connection@@CAXAEBV?$FunctionCallbackInfo@VValue@v8@@@Nan@@@Z@4HA 00000001800519d8 f   njsConnection.obj
 0001:000509f5       ?dtor$6@?0??Rollback@Connection@@CAXAEBV?$FunctionCallbackInfo@VValue@v8@@@Nan@@@Z@4HA 00000001800519f5 f   njsConnection.obj
 0001:000509f5       ?dtor$6@?0??Commit@Connection@@CAXAEBV?$FunctionCallbackInfo@VValue@v8@@@Nan@@@Z@4HA 00000001800519f5 f   njsConnection.obj
 0001:000509f5       ?dtor$6@?0??Break@Connection@@CAXAEBV?$FunctionCallbackInfo@VValue@v8@@@Nan@@@Z@4HA 00000001800519f5 f   njsConnection.obj
 0001:00050a10       ?catch$1@?0??Async_Commit@Connection@@CAXPEAUuv_work_s@@@Z@4HA 0000000180051a10 f   njsConnection.obj
 0001:00050a1f       __catch$?Async_Commit@Connection@@CAXPEAUuv_work_s@@@Z$1 0000000180051a1f f   njsConnection.obj
 0001:00050b30       ?catch$1@?0??Async_Rollback@Connection@@CAXPEAUuv_work_s@@@Z@4HA 0000000180051b30 f   njsConnection.obj
 0001:00050b3f       __catch$?Async_Rollback@Connection@@CAXPEAUuv_work_s@@@Z$1 0000000180051b3f f   njsConnection.obj
 0001:00050c50       ?catch$1@?0??Async_Break@Connection@@CAXPEAUuv_work_s@@@Z@4HA 0000000180051c50 f   njsConnection.obj
 0001:00050c5f       __catch$?Async_Break@Connection@@CAXPEAUuv_work_s@@@Z$1 0000000180051c5f f   njsConnection.obj
 0001:00050d70       ?dtor$0@?0??CreateLob@Connection@@CAXAEBV?$FunctionCallbackInfo@VValue@v8@@@Nan@@@Z@4HA 0000000180051d70 f   njsConnection.obj
 0001:00050d7c       ?dtor$2@?0??CreateLob@Connection@@CAXAEBV?$FunctionCallbackInfo@VValue@v8@@@Nan@@@Z@4HA 0000000180051d7c f   njsConnection.obj
 0001:00050d88       ?dtor$3@?0??CreateLob@Connection@@CAXAEBV?$FunctionCallbackInfo@VValue@v8@@@Nan@@@Z@4HA 0000000180051d88 f   njsConnection.obj
 0001:00050da5       ?dtor$10@?0??CreateLob@Connection@@CAXAEBV?$FunctionCallbackInfo@VValue@v8@@@Nan@@@Z@4HA 0000000180051da5 f   njsConnection.obj
 0001:00050dc0       ?catch$1@?0??Async_CreateLob@Connection@@CAXPEAUuv_work_s@@@Z@4HA 0000000180051dc0 f   njsConnection.obj
 0001:00050dcf       __catch$?Async_CreateLob@Connection@@CAXPEAUuv_work_s@@@Z$1 0000000180051dcf f   njsConnection.obj
 0001:00050ee0       ?dtor$0@?0??Async_AfterCreateLob@Connection@@CAXPEAUuv_work_s@@@Z@4HA 0000000180051ee0 f   njsConnection.obj
 0001:00050eec       ?dtor$1@?0??Async_AfterCreateLob@Connection@@CAXPEAUuv_work_s@@@Z@4HA 0000000180051eec f   njsConnection.obj
 0001:00050ef8       ?dtor$3@?0??Async_AfterCreateLob@Connection@@CAXPEAUuv_work_s@@@Z@4HA 0000000180051ef8 f   njsConnection.obj
 0001:00050f20       ?dtor$0@?0??NewLob@Connection@@CA?AV?$Local@VValue@v8@@@v8@@PEAUeBaton@@PEAVProtoILob@@_N@Z@4HA 0000000180051f20 f   njsConnection.obj
 0001:00050f2c       ?dtor$2@?0??NewLob@Connection@@CA?AV?$Local@VValue@v8@@@v8@@PEAUeBaton@@PEAVProtoILob@@_N@Z@4HA 0000000180051f2c f   njsConnection.obj
 0001:00050f3a       ?dtor$4@?0??NewLob@Connection@@CA?AV?$Local@VValue@v8@@@v8@@PEAUeBaton@@PEAVProtoILob@@_N@Z@4HA 0000000180051f3a f   njsConnection.obj
 0001:00050f50       ?dtor$0@?0???$New@VDate@v8@@O@Nan@@YA?AV?$MaybeLocal@VDate@v8@@@v8@@O@Z@4HA 0000000180051f50 f   njsConnection.obj
 0001:00050f60       ?dtor$0@?0???0rsBaton@@QEAA@AEAIV?$Local@VFunction@v8@@@v8@@V?$Local@VObject@v8@@@2@2@Z@4HA 0000000180051f60 f   njsResultSet.obj
 0001:00050f73       ?dtor$1@?0???0rsBaton@@QEAA@AEAIV?$Local@VFunction@v8@@@v8@@V?$Local@VObject@v8@@@2@2@Z@4HA 0000000180051f73 f   njsResultSet.obj
 0001:00050f86       ?dtor$2@?0???0rsBaton@@QEAA@AEAIV?$Local@VFunction@v8@@@v8@@V?$Local@VObject@v8@@@2@2@Z@4HA 0000000180051f86 f   njsResultSet.obj
 0001:00050fb0       ?dtor$0@?0??setResultSet@ResultSet@@QEAAXPEAVStmt@dpi@@PEAUeBaton@@IPEBUMetaInfo@@@Z@4HA 0000000180051fb0 f   njsResultSet.obj
 0001:00050ff0       ?dtor$0@?0??GetMetaData@ResultSet@@CAXV?$Local@VString@v8@@@v8@@AEBV?$PropertyCallbackInfo@VValue@v8@@@Nan@@@Z@4HA 0000000180051ff0 f   njsResultSet.obj
 0001:00050ffc       ?dtor$1@?0??GetMetaData@ResultSet@@CAXV?$Local@VString@v8@@@v8@@AEBV?$PropertyCallbackInfo@VValue@v8@@@Nan@@@Z@4HA 0000000180051ffc f   njsResultSet.obj
 0001:00051010       ?dtor$0@?0??SetMetaData@ResultSet@@CAXV?$Local@VString@v8@@@v8@@V?$Local@VValue@v8@@@3@AEBV?$PropertyCallbackInfo@X@Nan@@@Z@4HA 0000000180052010 f   njsResultSet.obj
 0001:00051010       ?dtor$0@?0??Release@ILob@@CAXAEBV?$FunctionCallbackInfo@VValue@v8@@@Nan@@@Z@4HA 0000000180052010 f   njsIntLob.obj
 0001:0005101c       ?dtor$1@?0??Release@ILob@@CAXAEBV?$FunctionCallbackInfo@VValue@v8@@@Nan@@@Z@4HA 000000018005201c f   njsIntLob.obj
 0001:0005101c       ?dtor$1@?0??SetMetaData@ResultSet@@CAXV?$Local@VString@v8@@@v8@@V?$Local@VValue@v8@@@3@AEBV?$PropertyCallbackInfo@X@Nan@@@Z@4HA 000000018005201c f   njsResultSet.obj
 0001:00051030       ?dtor$0@?0??GetRow@ResultSet@@CAXAEBV?$FunctionCallbackInfo@VValue@v8@@@Nan@@@Z@4HA 0000000180052030 f   njsResultSet.obj
 0001:0005103c       ?dtor$2@?0??GetRow@ResultSet@@CAXAEBV?$FunctionCallbackInfo@VValue@v8@@@Nan@@@Z@4HA 000000018005203c f   njsResultSet.obj
 0001:00051048       ?dtor$3@?0??GetRow@ResultSet@@CAXAEBV?$FunctionCallbackInfo@VValue@v8@@@Nan@@@Z@4HA 0000000180052048 f   njsResultSet.obj
 0001:00051070       ?dtor$0@?0??GetRows@ResultSet@@CAXAEBV?$FunctionCallbackInfo@VValue@v8@@@Nan@@@Z@4HA 0000000180052070 f   njsResultSet.obj
 0001:0005107c       ?dtor$2@?0??GetRows@ResultSet@@CAXAEBV?$FunctionCallbackInfo@VValue@v8@@@Nan@@@Z@4HA 000000018005207c f   njsResultSet.obj
 0001:00051088       ?dtor$3@?0??GetRows@ResultSet@@CAXAEBV?$FunctionCallbackInfo@VValue@v8@@@Nan@@@Z@4HA 0000000180052088 f   njsResultSet.obj
 0001:000510b0       ?catch$1@?0??Async_GetRows@ResultSet@@CAXPEAUuv_work_s@@@Z@4HA 00000001800520b0 f   njsResultSet.obj
 0001:000510bf       __catch$?Async_GetRows@ResultSet@@CAXPEAUuv_work_s@@@Z$4 00000001800520bf f   njsResultSet.obj
 0001:000511d0       ?dtor$0@?0??Async_AfterGetRows@ResultSet@@CAXPEAUuv_work_s@@@Z@4HA 00000001800521d0 f   njsResultSet.obj
 0001:000511dc       ?dtor$1@?0??Async_AfterGetRows@ResultSet@@CAXPEAUuv_work_s@@@Z@4HA 00000001800521dc f   njsResultSet.obj
 0001:000511f0       ?dtor$0@?0??Close@ResultSet@@CAXAEBV?$FunctionCallbackInfo@VValue@v8@@@Nan@@@Z@4HA 00000001800521f0 f   njsResultSet.obj
 0001:000511fc       ?dtor$2@?0??Close@ResultSet@@CAXAEBV?$FunctionCallbackInfo@VValue@v8@@@Nan@@@Z@4HA 00000001800521fc f   njsResultSet.obj
 0001:00051208       ?dtor$3@?0??Close@ResultSet@@CAXAEBV?$FunctionCallbackInfo@VValue@v8@@@Nan@@@Z@4HA 0000000180052208 f   njsResultSet.obj
 0001:00051225       ?dtor$8@?0??Close@ResultSet@@CAXAEBV?$FunctionCallbackInfo@VValue@v8@@@Nan@@@Z@4HA 0000000180052225 f   njsResultSet.obj
 0001:00051240       ?catch$1@?0??Async_Close@ResultSet@@CAXPEAUuv_work_s@@@Z@4HA 0000000180052240 f   njsResultSet.obj
 0001:00051250       __catch$?Async_Close@ResultSet@@CAXPEAUuv_work_s@@@Z$1 0000000180052250 f   njsResultSet.obj
 0001:00051370       ?dtor$0@?0??getErrorMsg@NJSMessages@@SA?AV?$basic_string@DU?$char_traits@D@std@@V?$allocator@D@2@@std@@W4NJSErrorType@@ZZ@4HA 0000000180052370 f   njsMessages.obj
 0001:000513a0       ?dtor$0@?0???0LobBaton@@QEAA@AEAIV?$Local@VFunction@v8@@@v8@@V?$Local@VObject@v8@@@2@@Z@4HA 00000001800523a0 f   njsIntLob.obj
 0001:000513b3       ?dtor$1@?0???0LobBaton@@QEAA@AEAIV?$Local@VFunction@v8@@@v8@@V?$Local@VObject@v8@@@2@@Z@4HA 00000001800523b3 f   njsIntLob.obj
 0001:000513c6       ?dtor$2@?0???0LobBaton@@QEAA@AEAIV?$Local@VFunction@v8@@@v8@@V?$Local@VObject@v8@@@2@@Z@4HA 00000001800523c6 f   njsIntLob.obj
 0001:000513d9       ?dtor$3@?0???0LobBaton@@QEAA@AEAIV?$Local@VFunction@v8@@@v8@@V?$Local@VObject@v8@@@2@@Z@4HA 00000001800523d9 f   njsIntLob.obj
 0001:000513ec       ?dtor$4@?0???0LobBaton@@QEAA@AEAIV?$Local@VFunction@v8@@@v8@@V?$Local@VObject@v8@@@2@@Z@4HA 00000001800523ec f   njsIntLob.obj
 0001:00051400       ?catch$0@?0??cleanupDPI@ILob@@QEAAXXZ@4HA 0000000180052400 f   njsIntLob.obj
 0001:0005140d       __catch$?cleanupDPI@ILob@@QEAAXXZ$0 000000018005240d f   njsIntLob.obj
 0001:00051420       ?catch$1@?0??setILob@ILob@@QEAAXPEAUeBaton@@PEAVProtoILob@@_N@Z@4HA 0000000180052420 f   njsIntLob.obj
 0001:0005142f       __catch$?setILob@ILob@@QEAAXPEAUeBaton@@PEAVProtoILob@@_N@Z$0 000000018005242f f   njsIntLob.obj
 0001:00051550       ?dtor$0@?0??Close@ILob@@CAXAEBV?$FunctionCallbackInfo@VValue@v8@@@Nan@@@Z@4HA 0000000180052550 f   njsIntLob.obj
 0001:0005155c       ?dtor$1@?0??Close@ILob@@CAXAEBV?$FunctionCallbackInfo@VValue@v8@@@Nan@@@Z@4HA 000000018005255c f   njsIntLob.obj
 0001:00051568       ?dtor$3@?0??Close@ILob@@CAXAEBV?$FunctionCallbackInfo@VValue@v8@@@Nan@@@Z@4HA 0000000180052568 f   njsIntLob.obj
 0001:00051574       ?dtor$4@?0??Close@ILob@@CAXAEBV?$FunctionCallbackInfo@VValue@v8@@@Nan@@@Z@4HA 0000000180052574 f   njsIntLob.obj
 0001:00051591       ?dtor$8@?0??Close@ILob@@CAXAEBV?$FunctionCallbackInfo@VValue@v8@@@Nan@@@Z@4HA 0000000180052591 f   njsIntLob.obj
 0001:000515a0       ?dtor$0@?0??GetChunkSize@ILob@@CAXV?$Local@VString@v8@@@v8@@AEBV?$PropertyCallbackInfo@VValue@v8@@@Nan@@@Z@4HA 00000001800525a0 f   njsIntLob.obj
 0001:000515ac       ?dtor$1@?0??GetChunkSize@ILob@@CAXV?$Local@VString@v8@@@v8@@AEBV?$PropertyCallbackInfo@VValue@v8@@@Nan@@@Z@4HA 00000001800525ac f   njsIntLob.obj
 0001:000515b8       ?catch$3@?0??GetChunkSize@ILob@@CAXV?$Local@VString@v8@@@v8@@AEBV?$PropertyCallbackInfo@VValue@v8@@@Nan@@@Z@4HA 00000001800525b8 f   njsIntLob.obj
 0001:000515c7       __catch$?GetChunkSize@ILob@@CAXV?$Local@VString@v8@@@v8@@AEBV?$PropertyCallbackInfo@VValue@v8@@@Nan@@@Z$0 00000001800525c7 f   njsIntLob.obj
 0001:00051650       ?dtor$0@?0??GetLength@ILob@@CAXV?$Local@VString@v8@@@v8@@AEBV?$PropertyCallbackInfo@VValue@v8@@@Nan@@@Z@4HA 0000000180052650 f   njsIntLob.obj
 0001:0005165c       ?dtor$1@?0??GetLength@ILob@@CAXV?$Local@VString@v8@@@v8@@AEBV?$PropertyCallbackInfo@VValue@v8@@@Nan@@@Z@4HA 000000018005265c f   njsIntLob.obj
 0001:00051668       ?catch$3@?0??GetLength@ILob@@CAXV?$Local@VString@v8@@@v8@@AEBV?$PropertyCallbackInfo@VValue@v8@@@Nan@@@Z@4HA 0000000180052668 f   njsIntLob.obj
 0001:00051677       __catch$?GetLength@ILob@@CAXV?$Local@VString@v8@@@v8@@AEBV?$PropertyCallbackInfo@VValue@v8@@@Nan@@@Z$0 0000000180052677 f   njsIntLob.obj
 0001:00051700       ?dtor$0@?0??GetPieceSize@ILob@@CAXV?$Local@VString@v8@@@v8@@AEBV?$PropertyCallbackInfo@VValue@v8@@@Nan@@@Z@4HA 0000000180052700 f   njsIntLob.obj
 0001:0005170c       ?dtor$1@?0??GetPieceSize@ILob@@CAXV?$Local@VString@v8@@@v8@@AEBV?$PropertyCallbackInfo@VValue@v8@@@Nan@@@Z@4HA 000000018005270c f   njsIntLob.obj
 0001:00051718       ?catch$3@?0??GetPieceSize@ILob@@CAXV?$Local@VString@v8@@@v8@@AEBV?$PropertyCallbackInfo@VValue@v8@@@Nan@@@Z@4HA 0000000180052718 f   njsIntLob.obj
 0001:00051727       __catch$?GetPieceSize@ILob@@CAXV?$Local@VString@v8@@@v8@@AEBV?$PropertyCallbackInfo@VValue@v8@@@Nan@@@Z$0 0000000180052727 f   njsIntLob.obj
 0001:000517b0       ?dtor$0@?0??SetPieceSize@ILob@@CAXV?$Local@VString@v8@@@v8@@V?$Local@VValue@v8@@@3@AEBV?$PropertyCallbackInfo@X@Nan@@@Z@4HA 00000001800527b0 f   njsIntLob.obj
 0001:000517bc       ?dtor$1@?0??SetPieceSize@ILob@@CAXV?$Local@VString@v8@@@v8@@V?$Local@VValue@v8@@@3@AEBV?$PropertyCallbackInfo@X@Nan@@@Z@4HA 00000001800527bc f   njsIntLob.obj
 0001:000517c8       ?dtor$2@?0??SetPieceSize@ILob@@CAXV?$Local@VString@v8@@@v8@@V?$Local@VValue@v8@@@3@AEBV?$PropertyCallbackInfo@X@Nan@@@Z@4HA 00000001800527c8 f   njsIntLob.obj
 0001:000517d4       ?dtor$6@?0??SetPieceSize@ILob@@CAXV?$Local@VString@v8@@@v8@@V?$Local@VValue@v8@@@3@AEBV?$PropertyCallbackInfo@X@Nan@@@Z@4HA 00000001800527d4 f   njsIntLob.obj
 0001:000517e2       ?catch$7@?0??SetPieceSize@ILob@@CAXV?$Local@VString@v8@@@v8@@V?$Local@VValue@v8@@@3@AEBV?$PropertyCallbackInfo@X@Nan@@@Z@4HA 00000001800527e2 f   njsIntLob.obj
 0001:000517f1       __catch$?SetPieceSize@ILob@@CAXV?$Local@VString@v8@@@v8@@V?$Local@VValue@v8@@@3@AEBV?$PropertyCallbackInfo@X@Nan@@@Z$0 00000001800527f1 f   njsIntLob.obj
 0001:00051880       ?dtor$0@?0??GetOffset@ILob@@CAXV?$Local@VString@v8@@@v8@@AEBV?$PropertyCallbackInfo@VValue@v8@@@Nan@@@Z@4HA 0000000180052880 f   njsIntLob.obj
 0001:0005188c       ?dtor$1@?0??GetOffset@ILob@@CAXV?$Local@VString@v8@@@v8@@AEBV?$PropertyCallbackInfo@VValue@v8@@@Nan@@@Z@4HA 000000018005288c f   njsIntLob.obj
 0001:00051898       ?catch$3@?0??GetOffset@ILob@@CAXV?$Local@VString@v8@@@v8@@AEBV?$PropertyCallbackInfo@VValue@v8@@@Nan@@@Z@4HA 0000000180052898 f   njsIntLob.obj
 0001:000518a7       __catch$?GetOffset@ILob@@CAXV?$Local@VString@v8@@@v8@@AEBV?$PropertyCallbackInfo@VValue@v8@@@Nan@@@Z$0 00000001800528a7 f   njsIntLob.obj
 0001:00051930       ?dtor$0@?0??SetOffset@ILob@@CAXV?$Local@VString@v8@@@v8@@V?$Local@VValue@v8@@@3@AEBV?$PropertyCallbackInfo@X@Nan@@@Z@4HA 0000000180052930 f   njsIntLob.obj
 0001:0005193c       ?dtor$1@?0??SetOffset@ILob@@CAXV?$Local@VString@v8@@@v8@@V?$Local@VValue@v8@@@3@AEBV?$PropertyCallbackInfo@X@Nan@@@Z@4HA 000000018005293c f   njsIntLob.obj
 0001:00051948       ?dtor$2@?0??SetOffset@ILob@@CAXV?$Local@VString@v8@@@v8@@V?$Local@VValue@v8@@@3@AEBV?$PropertyCallbackInfo@X@Nan@@@Z@4HA 0000000180052948 f   njsIntLob.obj
 0001:00051954       ?dtor$7@?0??SetOffset@ILob@@CAXV?$Local@VString@v8@@@v8@@V?$Local@VValue@v8@@@3@AEBV?$PropertyCallbackInfo@X@Nan@@@Z@4HA 0000000180052954 f   njsIntLob.obj
 0001:00051962       ?dtor$4@?0??SetOffset@ILob@@CAXV?$Local@VString@v8@@@v8@@V?$Local@VValue@v8@@@3@AEBV?$PropertyCallbackInfo@X@Nan@@@Z@4HA 0000000180052962 f   njsIntLob.obj
 0001:00051970       ?dtor$0@?0??GetType@ILob@@CAXV?$Local@VString@v8@@@v8@@AEBV?$PropertyCallbackInfo@VValue@v8@@@Nan@@@Z@4HA 0000000180052970 f   njsIntLob.obj
 0001:0005197c       ?catch$1@?0??GetType@ILob@@CAXV?$Local@VString@v8@@@v8@@AEBV?$PropertyCallbackInfo@VValue@v8@@@Nan@@@Z@4HA 000000018005297c f   njsIntLob.obj
 0001:00051989       __catch$?GetType@ILob@@CAXV?$Local@VString@v8@@@v8@@AEBV?$PropertyCallbackInfo@VValue@v8@@@Nan@@@Z$0 0000000180052989 f   njsIntLob.obj
 0001:000519d0       ?dtor$0@?0??Read@ILob@@CAXAEBV?$FunctionCallbackInfo@VValue@v8@@@Nan@@@Z@4HA 00000001800529d0 f   njsIntLob.obj
 0001:000519dc       ?dtor$2@?0??Read@ILob@@CAXAEBV?$FunctionCallbackInfo@VValue@v8@@@Nan@@@Z@4HA 00000001800529dc f   njsIntLob.obj
 0001:000519e8       ?dtor$3@?0??Read@ILob@@CAXAEBV?$FunctionCallbackInfo@VValue@v8@@@Nan@@@Z@4HA 00000001800529e8 f   njsIntLob.obj
 0001:00051a05       ?dtor$7@?0??Read@ILob@@CAXAEBV?$FunctionCallbackInfo@VValue@v8@@@Nan@@@Z@4HA 0000000180052a05 f   njsIntLob.obj
 0001:00051a20       ?catch$1@?0??Async_Read@ILob@@CAXPEAUuv_work_s@@@Z@4HA 0000000180052a20 f   njsIntLob.obj
 0001:00051a2f       __catch$?Async_Read@ILob@@CAXPEAUuv_work_s@@@Z$1 0000000180052a2f f   njsIntLob.obj
 0001:00051b60       ?dtor$0@?0??Async_AfterRead@ILob@@CAXPEAUuv_work_s@@@Z@4HA 0000000180052b60 f   njsIntLob.obj
 0001:00051b6c       ?dtor$1@?0??Async_AfterRead@ILob@@CAXPEAUuv_work_s@@@Z@4HA 0000000180052b6c f   njsIntLob.obj
 0001:00051b80       ?dtor$0@?0??Write@ILob@@CAXAEBV?$FunctionCallbackInfo@VValue@v8@@@Nan@@@Z@4HA 0000000180052b80 f   njsIntLob.obj
 0001:00051b8c       ?dtor$2@?0??Write@ILob@@CAXAEBV?$FunctionCallbackInfo@VValue@v8@@@Nan@@@Z@4HA 0000000180052b8c f   njsIntLob.obj
 0001:00051b98       ?dtor$3@?0??Write@ILob@@CAXAEBV?$FunctionCallbackInfo@VValue@v8@@@Nan@@@Z@4HA 0000000180052b98 f   njsIntLob.obj
 0001:00051bb5       ?dtor$8@?0??Write@ILob@@CAXAEBV?$FunctionCallbackInfo@VValue@v8@@@Nan@@@Z@4HA 0000000180052bb5 f   njsIntLob.obj
 0001:00051bc8       ?dtor$9@?0??Write@ILob@@CAXAEBV?$FunctionCallbackInfo@VValue@v8@@@Nan@@@Z@4HA 0000000180052bc8 f   njsIntLob.obj
 0001:00051bdb       ?dtor$10@?0??Write@ILob@@CAXAEBV?$FunctionCallbackInfo@VValue@v8@@@Nan@@@Z@4HA 0000000180052bdb f   njsIntLob.obj
 0001:00051bee       ?dtor$11@?0??Write@ILob@@CAXAEBV?$FunctionCallbackInfo@VValue@v8@@@Nan@@@Z@4HA 0000000180052bee f   njsIntLob.obj
 0001:00051c01       ?dtor$12@?0??Write@ILob@@CAXAEBV?$FunctionCallbackInfo@VValue@v8@@@Nan@@@Z@4HA 0000000180052c01 f   njsIntLob.obj
 0001:00051c14       ?dtor$7@?0??Write@ILob@@CAXAEBV?$FunctionCallbackInfo@VValue@v8@@@Nan@@@Z@4HA 0000000180052c14 f   njsIntLob.obj
 0001:00051c20       ?catch$1@?0??Async_Write@ILob@@CAXPEAUuv_work_s@@@Z@4HA 0000000180052c20 f   njsIntLob.obj
 0001:00051c2f       __catch$?Async_Write@ILob@@CAXPEAUuv_work_s@@@Z$1 0000000180052c2f f   njsIntLob.obj
 0001:00051d60       ?catch$1@?0???0ProtoILob@@QEAA@PEAUeBaton@@PEAUDescriptor@dpi@@G@Z@4HA 0000000180052d60 f   njsIntLob.obj
 0001:00051d6f       __catch$??0ProtoILob@@QEAA@PEAUeBaton@@PEAUDescriptor@dpi@@G@Z$0 0000000180052d6f f   njsIntLob.obj
 0001:00051df0       ?dtor$0@?0???0EnvImpl@@QEAA@AEBV?$basic_string@DU?$char_traits@D@std@@V?$allocator@D@2@@std@@II@Z@4HA 0000000180052df0 f   dpiEnvImpl.obj
 0001:00051dfc       ?dtor$1@?0???0EnvImpl@@QEAA@AEBV?$basic_string@DU?$char_traits@D@std@@V?$allocator@D@2@@std@@II@Z@4HA 0000000180052dfc f   dpiEnvImpl.obj
 0001:00051e0c       ?catch$2@?0???0EnvImpl@@QEAA@AEBV?$basic_string@DU?$char_traits@D@std@@V?$allocator@D@2@@std@@II@Z@4HA 0000000180052e0c f   dpiEnvImpl.obj
 0001:00051e19       __catch$??0EnvImpl@@QEAA@AEBV?$basic_string@DU?$char_traits@D@std@@V?$allocator@D@2@@std@@II@Z$0 0000000180052e19 f   dpiEnvImpl.obj
 0001:00051e30       ?dtor$0@?0???0ExceptionImpl@@QEAA@PEBDH0@Z@4HA 0000000180052e30 f   dpiExceptionImpl.obj
 0001:00051e30       ?dtor$0@?0???0ExceptionImpl@@QEAA@AEBV0@@Z@4HA 0000000180052e30 f   dpiEnvImpl.obj
 0001:00051e3c       ?dtor$1@?0???0ExceptionImpl@@QEAA@PEBDH0@Z@4HA 0000000180052e3c f   dpiExceptionImpl.obj
 0001:00051e3c       ?dtor$1@?0???0ExceptionImpl@@QEAA@AEBV0@@Z@4HA 0000000180052e3c f   dpiEnvImpl.obj
 0001:00051e50       ?dtor$0@?0??createPool@EnvImpl@@UEAAPEAVSPool@dpi@@AEBV?$basic_string@DU?$char_traits@D@std@@V?$allocator@D@2@@std@@00HHHHH_N1H@Z@4HA 0000000180052e50 f   dpiEnvImpl.obj
 0001:00051e70       ?dtor$0@?0??getConnection@EnvImpl@@UEAAPEAVConn@dpi@@AEBV?$basic_string@DU?$char_traits@D@std@@V?$allocator@D@2@@std@@00H0_NW4DBPrivileges@3@@Z@4HA 0000000180052e70 f   dpiEnvImpl.obj
 0001:00051e90       ?dtor$0@?0???0ExceptionImpl@@QEAA@W4DpiError@dpi@@@Z@4HA 0000000180052e90 f   dpiExceptionImpl.obj
 0001:00051e9c       ?dtor$1@?0???0ExceptionImpl@@QEAA@W4DpiError@dpi@@@Z@4HA 0000000180052e9c f   dpiExceptionImpl.obj
 0001:00051eac       ?dtor$2@?0???0ExceptionImpl@@QEAA@W4DpiError@dpi@@@Z@4HA 0000000180052eac f   dpiExceptionImpl.obj
 0001:00051ebc       ?dtor$3@?0???0ExceptionImpl@@QEAA@W4DpiError@dpi@@@Z@4HA 0000000180052ebc f   dpiExceptionImpl.obj
 0001:00051ed0       ?dtor$0@?0???0ConnImpl@@QEAA@PEAVEnvImpl@@PEAUOCIEnv@@_NIAEBV?$basic_string@DU?$char_traits@D@std@@V?$allocator@D@2@@std@@333W4DBPrivileges@dpi@@@Z@4HA 0000000180052ed0 f   dpiConnImpl.obj
 0001:00051edc       ?dtor$1@?0???0ConnImpl@@QEAA@PEAVEnvImpl@@PEAUOCIEnv@@_NIAEBV?$basic_string@DU?$char_traits@D@std@@V?$allocator@D@2@@std@@333W4DBPrivileges@dpi@@@Z@4HA 0000000180052edc f   dpiConnImpl.obj
 0001:00051eec       ?dtor$2@?0???0ConnImpl@@QEAA@PEAVEnvImpl@@PEAUOCIEnv@@_NIAEBV?$basic_string@DU?$char_traits@D@std@@V?$allocator@D@2@@std@@333W4DBPrivileges@dpi@@@Z@4HA 0000000180052eec f   dpiConnImpl.obj
 0001:00051eff       ?dtor$3@?0???0ConnImpl@@QEAA@PEAVEnvImpl@@PEAUOCIEnv@@_NIAEBV?$basic_string@DU?$char_traits@D@std@@V?$allocator@D@2@@std@@333W4DBPrivileges@dpi@@@Z@4HA 0000000180052eff f   dpiConnImpl.obj
 0001:00051f12       ?dtor$4@?0???0ConnImpl@@QEAA@PEAVEnvImpl@@PEAUOCIEnv@@_NIAEBV?$basic_string@DU?$char_traits@D@std@@V?$allocator@D@2@@std@@333W4DBPrivileges@dpi@@@Z@4HA 0000000180052f12 f   dpiConnImpl.obj
 0001:00051f1e       ?catch$5@?0???0ConnImpl@@QEAA@PEAVEnvImpl@@PEAUOCIEnv@@_NIAEBV?$basic_string@DU?$char_traits@D@std@@V?$allocator@D@2@@std@@333W4DBPrivileges@dpi@@@Z@4HA 0000000180052f1e f   dpiConnImpl.obj
 0001:00051f2b       __catch$??0ConnImpl@@QEAA@PEAVEnvImpl@@PEAUOCIEnv@@_NIAEBV?$basic_string@DU?$char_traits@D@std@@V?$allocator@D@2@@std@@333W4DBPrivileges@dpi@@@Z$0 0000000180052f2b f   dpiConnImpl.obj
 0001:00051f40       ?dtor$0@?0???0ConnImpl@@QEAA@PEAVPoolImpl@@PEAUOCIEnv@@_NPEAEIAEBV?$basic_string@DU?$char_traits@D@std@@V?$allocator@D@2@@std@@444HW4DBPrivileges@dpi@@H@Z@4HA 0000000180052f40 f   dpiConnImpl.obj
 0001:00051f4c       ?dtor$1@?0???0ConnImpl@@QEAA@PEAVPoolImpl@@PEAUOCIEnv@@_NPEAEIAEBV?$basic_string@DU?$char_traits@D@std@@V?$allocator@D@2@@std@@444HW4DBPrivileges@dpi@@H@Z@4HA 0000000180052f4c f   dpiConnImpl.obj
 0001:00051f5c       ?dtor$2@?0???0ConnImpl@@QEAA@PEAVPoolImpl@@PEAUOCIEnv@@_NPEAEIAEBV?$basic_string@DU?$char_traits@D@std@@V?$allocator@D@2@@std@@444HW4DBPrivileges@dpi@@H@Z@4HA 0000000180052f5c f   dpiConnImpl.obj
 0001:00051f6f       ?dtor$3@?0???0ConnImpl@@QEAA@PEAVPoolImpl@@PEAUOCIEnv@@_NPEAEIAEBV?$basic_string@DU?$char_traits@D@std@@V?$allocator@D@2@@std@@444HW4DBPrivileges@dpi@@H@Z@4HA 0000000180052f6f f   dpiConnImpl.obj
 0001:00051f82       ?catch$4@?0???0ConnImpl@@QEAA@PEAVPoolImpl@@PEAUOCIEnv@@_NPEAEIAEBV?$basic_string@DU?$char_traits@D@std@@V?$allocator@D@2@@std@@444HW4DBPrivileges@dpi@@H@Z@4HA 0000000180052f82 f   dpiConnImpl.obj
 0001:00051f8f       __catch$??0ConnImpl@@QEAA@PEAVPoolImpl@@PEAUOCIEnv@@_NPEAEIAEBV?$basic_string@DU?$char_traits@D@std@@V?$allocator@D@2@@std@@444HW4DBPrivileges@dpi@@H@Z$0 0000000180052f8f f   dpiConnImpl.obj
 0001:00051fb0       ?dtor$0@?0??getStmt@ConnImpl@@UEAAPEAVStmt@dpi@@AEBV?$basic_string@DU?$char_traits@D@std@@V?$allocator@D@2@@std@@@Z@4HA 0000000180052fb0 f   dpiConnImpl.obj
 0001:00051fd0       ?dtor$0@?0???0PoolImpl@@QEAA@PEAVEnvImpl@@PEAUOCIEnv@@AEBV?$basic_string@DU?$char_traits@D@std@@V?$allocator@D@2@@std@@22HHHH_NH3H@Z@4HA 0000000180052fd0 f   dpiPoolImpl.obj
 0001:00051fdc       ?catch$1@?0???0PoolImpl@@QEAA@PEAVEnvImpl@@PEAUOCIEnv@@AEBV?$basic_string@DU?$char_traits@D@std@@V?$allocator@D@2@@std@@22HHHH_NH3H@Z@4HA 0000000180052fdc f   dpiPoolImpl.obj
 0001:00051fec       __catch$??0PoolImpl@@QEAA@PEAVEnvImpl@@PEAUOCIEnv@@AEBV?$basic_string@DU?$char_traits@D@std@@V?$allocator@D@2@@std@@22HHHH_NH3H@Z$0 0000000180052fec f   dpiPoolImpl.obj
 0001:00052010       ?dtor$0@?0??getConnection@PoolImpl@@UEAAPEAVConn@dpi@@AEBV?$basic_string@DU?$char_traits@D@std@@V?$allocator@D@2@@std@@000HW4DBPrivileges@3@@Z@4HA 0000000180053010 f   dpiPoolImpl.obj
 0001:00052030       ?dtor$0@?0???0StmtImpl@@QEAA@PEAUOCIEnv@@PEAVConnImpl@@PEAUOCISvcCtx@@AEBV?$basic_string@DU?$char_traits@D@std@@V?$allocator@D@2@@std@@@Z@4HA 0000000180053030 f   dpiStmtImpl.obj
 0001:0005203c       ?catch$1@?0???0StmtImpl@@QEAA@PEAUOCIEnv@@PEAVConnImpl@@PEAUOCISvcCtx@@AEBV?$basic_string@DU?$char_traits@D@std@@V?$allocator@D@2@@std@@@Z@4HA 000000018005303c f   dpiStmtImpl.obj
 0001:00052049       __catch$??0StmtImpl@@QEAA@PEAUOCIEnv@@PEAVConnImpl@@PEAUOCISvcCtx@@AEBV?$basic_string@DU?$char_traits@D@std@@V?$allocator@D@2@@std@@@Z$0 0000000180053049 f   dpiStmtImpl.obj
 0001:0005205f       ?dtor$0@?0??_Locimp_dtor@_Locimp@locale@std@@CAXPEAV123@@Z@4HA 000000018005305f f   libcpmt:locale0.obj
 0001:0005205f       ?dtor$0@?0??_Init@locale@std@@CAPEAV_Locimp@12@_N@Z@4HA 000000018005305f f   libcpmt:locale0.obj
 0001:0005206b       __scrt_is_nonwritable_in_current_image$filt$0 000000018005306b f   LIBCMT:utility.obj
 0001:00052083       ?fin$0@?0???_M@YAXPEAX_K1P6AX0@Z@Z@4HA 0000000180053083 f   LIBCMT:ehvecdtr.obj
 0001:000520af       ?filt$0@?0??__ArrayUnwind@@YAXPEAX_K1P6AX0@Z@Z@4HA 00000001800530af f   LIBCMT:ehvecdtr.obj
 0001:000520f0       ?fin$0@?0???_L@YAXPEAX_K1P6AX0@Z2@Z@4HA 00000001800530f0 f   LIBCMT:ehvecctr.obj
 0001:0005211c       ?fin$0@?0??dllmain_crt_process_attach@@YAHQEAUHINSTANCE__@@QEAX@Z@4HA 000000018005311c f   LIBCMT:dll_dllmain.obj
 0001:00052133       ?fin$0@?0??dllmain_crt_process_detach@@YAH_N@Z@4HA 0000000180053133 f   LIBCMT:dll_dllmain.obj
 0001:0005214f       ?filt$0@?0??dllmain_dispatch@@YAHQEAUHINSTANCE__@@KQEAX@Z@4HA 000000018005314f f   LIBCMT:dll_dllmain.obj
 0001:00052185       _CallSETranslator$filt$0   0000000180053185 f   libvcruntime:risctrnsctrl.obj
 0001:00052216       __DestructExceptionObject$filt$0 0000000180053216 f   libvcruntime:ehhelpers.obj
 0001:0005222e       __CxxCallCatchBlock$filt$0 000000018005322e f   libvcruntime:frame.obj
 0001:00052253       __CxxCallCatchBlock$fin$1  0000000180053253 f   libvcruntime:frame.obj
 0001:000522cb       __FrameUnwindToState$filt$0 00000001800532cb f   libvcruntime:frame.obj
 0001:000522e1       __FrameUnwindToState$fin$1 00000001800532e1 f   libvcruntime:frame.obj
 0001:00052304       _query_new_handler$fin$0   0000000180053304 f   libucrt:new_handler.obj
 0001:0005231a       ?filt$0@?0???R<lambda_6e4b09c48022b2350581041d5f6b0c4c>@@QEBA@XZ@4HA 000000018005331a f   libucrt:exit.obj
 0001:00052335       raise$fin$0                0000000180053335 f   libucrt:signal.obj
 0001:00052356       ?fin$0@?0???$?RV<lambda_bd00b5aa228bd7e7e5b2b5db5fd2933b>@@AEAV<lambda_777d11615145f89ee95b9466d285deeb>@@V<lambda_6e5e48fbd24f9f8f81b203eb3d877683>@@@?$__crt_seh_guarded_call@H@@QEAAH$$QEAV<lambda_bd00b5aa228bd7e7e5b2b5db5fd2933b>@@AEAV<lambda_777d11615145f89ee95b9466d285deeb>@@$$QEAV<lambda_6e5e48fbd24f9f8f81b203eb3d877683>@@@Z@4HA 0000000180053356 f   libucrt:winapi_thunks.obj
 0001:00052356       ?fin$0@?0???$?RV<lambda_9bd929c17696992ce54f1d748594fc62>@@AEAV<lambda_082c17da81b0962e08c0587ee0fac50c>@@V<lambda_9c08ac857f4975304d44e9f601d9b878>@@@?$__crt_seh_guarded_call@PEAD@@QEAAPEAD$$QEAV<lambda_9bd929c17696992ce54f1d748594fc62>@@AEAV<lambda_082c17da81b0962e08c0587ee0fac50c>@@$$QEAV<lambda_9c08ac857f4975304d44e9f601d9b878>@@@Z@4HA 0000000180053356 f   libucrt:setlocale.obj
 0001:00052356       ?fin$0@?0???$?RV<lambda_aa87e3671a710a21b5dc78c0bdf72e11>@@AEAV<lambda_92619d2358a28f41a33ba319515a20b9>@@V<lambda_6992ecaafeb10aed2b74cb1fae11a551>@@@?$__crt_seh_guarded_call@X@@QEAAX$$QEAV<lambda_aa87e3671a710a21b5dc78c0bdf72e11>@@AEAV<lambda_92619d2358a28f41a33ba319515a20b9>@@$$QEAV<lambda_6992ecaafeb10aed2b74cb1fae11a551>@@@Z@4HA 0000000180053356 f   libucrt:per_thread_data.obj
 0001:00052356       ?fin$0@?0???$?RV<lambda_9529fede68560d7205a1271ab16b352e>@@AEAV<lambda_ebf8c556deb379764da826e7bb46e993>@@V<lambda_db92443d3c9ace7c8a20b950bb983b5a>@@@?$__crt_seh_guarded_call@X@@QEAAX$$QEAV<lambda_9529fede68560d7205a1271ab16b352e>@@AEAV<lambda_ebf8c556deb379764da826e7bb46e993>@@$$QEAV<lambda_db92443d3c9ace7c8a20b950bb983b5a>@@@Z@4HA 0000000180053356 f   libucrt:wsetlocale.obj
 0001:00052356       ?fin$0@?0???$?RV<lambda_f2e299630e499de9f9a165e60fcd3db5>@@AEAV<lambda_2ae9d31cdba2644fcbeaf08da7c24588>@@V<lambda_40d01ff24d0e7b3814fdbdcee8eab3c7>@@@?$__crt_seh_guarded_call@X@@QEAAX$$QEAV<lambda_f2e299630e499de9f9a165e60fcd3db5>@@AEAV<lambda_2ae9d31cdba2644fcbeaf08da7c24588>@@$$QEAV<lambda_40d01ff24d0e7b3814fdbdcee8eab3c7>@@@Z@4HA 0000000180053356 f   libucrt:per_thread_data.obj
 0001:00052356       ?fin$0@?0???$?RV<lambda_2d41944a1d46af3157314b8a01080d33>@@AEAV<lambda_8f455de75cd7d7f24b4096f044d8b9e6>@@V<lambda_aa500f224e6afead328df44964fe2772>@@@?$__crt_seh_guarded_call@X@@QEAAX$$QEAV<lambda_2d41944a1d46af3157314b8a01080d33>@@AEAV<lambda_8f455de75cd7d7f24b4096f044d8b9e6>@@$$QEAV<lambda_aa500f224e6afead328df44964fe2772>@@@Z@4HA 0000000180053356 f   libucrt:per_thread_data.obj
 0001:00052356       ?fin$0@?0???$?RV<lambda_efdfa57d1f175319df784efa44bb7b81>@@AEAV<lambda_5f0a4c1567f8adc6734073e5d1e1b35c>@@V<lambda_2e8a7d3640ea6ccb4c2413664c2db6fd>@@@?$__crt_seh_guarded_call@X@@QEAAX$$QEAV<lambda_efdfa57d1f175319df784efa44bb7b81>@@AEAV<lambda_5f0a4c1567f8adc6734073e5d1e1b35c>@@$$QEAV<lambda_2e8a7d3640ea6ccb4c2413664c2db6fd>@@@Z@4HA 0000000180053356 f   libucrt:mbctype.obj
 0001:00052356       ?fin$0@?0???$?RV<lambda_8369fcb7c4df1e85de37618bd2b85f07>@@AEAV<lambda_a10e4b102d4a2c3aac6f4f48bbdf488f>@@V<lambda_5b7707bd6d7a0c4713179f36c7fd995d>@@@?$__crt_seh_guarded_call@H@@QEAAH$$QEAV<lambda_8369fcb7c4df1e85de37618bd2b85f07>@@AEAV<lambda_a10e4b102d4a2c3aac6f4f48bbdf488f>@@$$QEAV<lambda_5b7707bd6d7a0c4713179f36c7fd995d>@@@Z@4HA 0000000180053356 f   libucrt:onexit.obj
 0001:00052356       ?fin$0@?0???$?RV<lambda_450d765d439847d4c735a33c368b5fc0>@@AEAV<lambda_44731a7d0e6d81c3e6aa82d741081786>@@V<lambda_601a2a7da3b7a96e9554ac7215c4b07c>@@@?$__crt_seh_guarded_call@P6AXH@Z@@QEAAP6AXH@Z$$QEAV<lambda_450d765d439847d4c735a33c368b5fc0>@@AEAV<lambda_44731a7d0e6d81c3e6aa82d741081786>@@$$QEAV<lambda_601a2a7da3b7a96e9554ac7215c4b07c>@@@Z@4HA 0000000180053356 f   libucrt:signal.obj
 0001:00052356       ?fin$0@?0???$?RV<lambda_d80eeec6fff315bfe5c115232f3240e3>@@AEAV<lambda_6e4b09c48022b2350581041d5f6b0c4c>@@V<lambda_2358e3775559c9db80273638284d5e45>@@@?$__crt_seh_guarded_call@X@@QEAAX$$QEAV<lambda_d80eeec6fff315bfe5c115232f3240e3>@@AEAV<lambda_6e4b09c48022b2350581041d5f6b0c4c>@@$$QEAV<lambda_2358e3775559c9db80273638284d5e45>@@@Z@4HA 0000000180053356 f   libucrt:exit.obj
 0001:00052356       ?fin$0@?0???$?RV<lambda_7777bce6b2f8c936911f934f8298dc43>@@AEAV<lambda_f03950bc5685219e0bcd2087efbe011e>@@V<lambda_3883c3dff614d5e0c5f61bb1ac94921c>@@@?$__crt_seh_guarded_call@H@@QEAAH$$QEAV<lambda_7777bce6b2f8c936911f934f8298dc43>@@AEAV<lambda_f03950bc5685219e0bcd2087efbe011e>@@$$QEAV<lambda_3883c3dff614d5e0c5f61bb1ac94921c>@@@Z@4HA 0000000180053356 f   libucrt:onexit.obj
 0001:00052356       ?fin$0@?0???$?RV<lambda_0ae27a3a962d80f24befdcbee591983d>@@AEAV<lambda_8d0ee55de4b1038c4002e0adecdf1839>@@V<lambda_dc504788e8f1664fe9b84e20bfb512f2>@@@?$__crt_seh_guarded_call@X@@QEAAX$$QEAV<lambda_0ae27a3a962d80f24befdcbee591983d>@@AEAV<lambda_8d0ee55de4b1038c4002e0adecdf1839>@@$$QEAV<lambda_dc504788e8f1664fe9b84e20bfb512f2>@@@Z@4HA 0000000180053356 f   libucrt:per_thread_data.obj
 0001:00052370       ?fin$0@?0???$?RV<lambda_410d79af7f07d98d83a3f525b3859a53>@@AEAV<lambda_3e16ef9562a7dcce91392c22ab16ea36>@@V<lambda_38119f0e861e05405d8a144b9b982f0a>@@@?$__crt_seh_guarded_call@X@@QEAAX$$QEAV<lambda_410d79af7f07d98d83a3f525b3859a53>@@AEAV<lambda_3e16ef9562a7dcce91392c22ab16ea36>@@$$QEAV<lambda_38119f0e861e05405d8a144b9b982f0a>@@@Z@4HA 0000000180053370 f   libucrt:wsetlocale.obj
 0001:0005238a       ?fin$0@?0???$?RV<lambda_d8a01803c7231904df012bb083be9e3a>@@AEAV<lambda_b163b37eafe0a13f2c371fafeb0365c9>@@AEAV<lambda_8dff2cf36a5417162780cd64fa2883ef>@@@?$__crt_seh_guarded_call@X@@QEAAX$$QEAV<lambda_d8a01803c7231904df012bb083be9e3a>@@AEAV<lambda_b163b37eafe0a13f2c371fafeb0365c9>@@AEAV<lambda_8dff2cf36a5417162780cd64fa2883ef>@@@Z@4HA 000000018005338a f   libucrt:wsetlocale.obj
 0001:000523ab       __acrt_initialize_lowio$fin$0 00000001800533ab f   libucrt:ioinit.obj
 0001:000523ab       __acrt_lowio_ensure_fh_exists$fin$0 00000001800533ab f   libucrt:osfinfo.obj
 0001:000523c4       _ctrlfp$filt$0             00000001800533c4 f   libucrt:fpctrl.obj
 0001:000523f0       ?fin$0@?0???$?RV<lambda_886d6c58226a84441f68b9f2b8217b83>@@AEAV<lambda_ab61a845afdef5b7c387490eaf3616ee>@@V<lambda_f7f22ab5edc0698d5f6905b0d3f44752>@@@?$__crt_seh_guarded_call@X@@QEAAX$$QEAV<lambda_886d6c58226a84441f68b9f2b8217b83>@@AEAV<lambda_ab61a845afdef5b7c387490eaf3616ee>@@$$QEAV<lambda_f7f22ab5edc0698d5f6905b0d3f44752>@@@Z@4HA 00000001800533f0 f   libucrt:fflush.obj
 0001:0005240d       ?fin$0@?0???$?RV<lambda_c376a267cfb53b6959b3b692ec76b120>@@AEAV<lambda_9a32fed5bf61b6b509b2d3f6003082a1>@@V<lambda_572fbb9fa0ab338edf41edfd4b5fcc8d>@@@?$__crt_seh_guarded_call@H@@QEAAH$$QEAV<lambda_c376a267cfb53b6959b3b692ec76b120>@@AEAV<lambda_9a32fed5bf61b6b509b2d3f6003082a1>@@$$QEAV<lambda_572fbb9fa0ab338edf41edfd4b5fcc8d>@@@Z@4HA 000000018005340d f   libucrt:fflush.obj
 0001:0005240d       ?fin$0@?0???$?RV<lambda_0d412022a4b28cc8a401ea49574e8ae6>@@AEAV<lambda_a775ed57af18ba8e4d5dc780aa9068fe>@@V<lambda_975a71a6baa488a08f4e15f6b0339b9e>@@@?$__crt_seh_guarded_call@H@@QEAAH$$QEAV<lambda_0d412022a4b28cc8a401ea49574e8ae6>@@AEAV<lambda_a775ed57af18ba8e4d5dc780aa9068fe>@@$$QEAV<lambda_975a71a6baa488a08f4e15f6b0339b9e>@@@Z@4HA 000000018005340d f   libucrt:output.obj
 0001:0005240d       ?fin$0@?0???$?RV<lambda_84ec643ea9557e2f7dc01bb0e9624395>@@AEAV<lambda_ca71763b3c0644891230e4f79ea54fa6>@@V<lambda_439a761618c59b0600e24586724d733b>@@@?$__crt_seh_guarded_call@H@@QEAAH$$QEAV<lambda_84ec643ea9557e2f7dc01bb0e9624395>@@AEAV<lambda_ca71763b3c0644891230e4f79ea54fa6>@@$$QEAV<lambda_439a761618c59b0600e24586724d733b>@@@Z@4HA 000000018005340d f   libucrt:setvbuf.obj
 0001:0005240d       ?fin$0@?0???$?RV<lambda_842d9ff0dc9ef11c61343bbaebe7f885>@@AEAV<lambda_c5860995281e5c4ce005b3de8f5874ee>@@V<lambda_d90129c13df834fdcbf8d2b88dafcf2d>@@@?$__crt_seh_guarded_call@X@@QEAAX$$QEAV<lambda_842d9ff0dc9ef11c61343bbaebe7f885>@@AEAV<lambda_c5860995281e5c4ce005b3de8f5874ee>@@$$QEAV<lambda_d90129c13df834fdcbf8d2b88dafcf2d>@@@Z@4HA 000000018005340d f   libucrt:fflush.obj
 0001:00052428       ?fin$0@?0??update_thread_multibyte_data_internal@@YAPEAU__crt_multibyte_data@@QEAU__acrt_ptd@@QEAU1@@Z@4HA 0000000180053428 f   libucrt:mbctype.obj
 0001:00052441       __acrt_update_thread_locale_data$fin$0 0000000180053441 f   libucrt:locale_refcounting.obj
 0001:0005245a       _fcloseall$fin$0           000000018005345a f   libucrt:closeall.obj
 0001:00052473       ?fin$0@?0???$common_lseek@_J@@YA_JH_JH@Z@4HA 0000000180053473 f   libucrt:lseek.obj
 0001:00052473       _write$fin$0               0000000180053473 f   libucrt:write.obj
 0001:0005248a       fclose$fin$0               000000018005348a f   libucrt:fclose.obj
 0001:000524a2       ?fin$0@?0???$?RV<lambda_751a882b2c74d4b022dec766aa51a29a>@@AEAV<lambda_628dfdc04ba53c8bfc02c9951375f3f5>@@V<lambda_f6c7be5f7998530c34de24c7437d6b54>@@@?$__crt_seh_guarded_call@H@@QEAAH$$QEAV<lambda_751a882b2c74d4b022dec766aa51a29a>@@AEAV<lambda_628dfdc04ba53c8bfc02c9951375f3f5>@@$$QEAV<lambda_f6c7be5f7998530c34de24c7437d6b54>@@@Z@4HA 00000001800534a2 f   libucrt:close.obj
 0001:000524a2       ?fin$0@?0???$?RV<lambda_a37b2b86f63e897a80ea819b0eb08c01>@@AEAV<lambda_38ce7e780aa69e748d6df282ebc68efe>@@V<lambda_99fb1378e971ab6e7edea83e3a7a83a2>@@@?$__crt_seh_guarded_call@H@@QEAAH$$QEAV<lambda_a37b2b86f63e897a80ea819b0eb08c01>@@AEAV<lambda_38ce7e780aa69e748d6df282ebc68efe>@@$$QEAV<lambda_99fb1378e971ab6e7edea83e3a7a83a2>@@@Z@4HA 00000001800534a2 f   libucrt:commit.obj
 0001:000524c0       _IsNonwritableInCurrentImage$filt$0 00000001800534c0 f   LIBCMT:pesect.obj
 0001:000524e0       ??__F?oracledbTemplate_s@Oracledb@@0V?$Persistent@VFunctionTemplate@v8@@V?$NonCopyablePersistentTraits@VFunctionTemplate@v8@@@2@@Nan@@A@@YAXXZ 00000001800534e0 f   njsOracle.obj
 0001:00052500       ??__F?poolTemplate_s@Pool@@2V?$Persistent@VFunctionTemplate@v8@@V?$NonCopyablePersistentTraits@VFunctionTemplate@v8@@@2@@Nan@@A@@YAXXZ 0000000180053500 f   njsPool.obj
 0001:00052520       ??__F?connectionTemplate_s@Connection@@2V?$Persistent@VFunctionTemplate@v8@@V?$NonCopyablePersistentTraits@VFunctionTemplate@v8@@@2@@Nan@@A@@YAXXZ 0000000180053520 f   njsConnection.obj
 0001:00052540       ??__F?resultSetTemplate_s@ResultSet@@2V?$Persistent@VFunctionTemplate@v8@@V?$NonCopyablePersistentTraits@VFunctionTemplate@v8@@@2@@Nan@@A@@YAXXZ 0000000180053540 f   njsResultSet.obj
 0001:00052560       ??__F?iLobTemplate_s@ILob@@2V?$Persistent@VFunctionTemplate@v8@@V?$NonCopyablePersistentTraits@VFunctionTemplate@v8@@@2@@Nan@@A@@YAXXZ 0000000180053560 f   njsIntLob.obj
 0001:00052580       ??__F?s_propPingName_@ConnImpl@@0V?$basic_string@DU?$char_traits@D@std@@V?$allocator@D@2@@std@@A@@YAXXZ 0000000180053580 f   dpiConnImpl.obj
 0001:00052600       ??__Finitlocks@std@@YAXXZ  0000000180053600 f   libcpmt:xlock.obj
 0001:0005260c       ??__F_Fac_tidy_reg@std@@YAXXZ 000000018005360c f   libcpmt:locale0.obj
 0001:00052638       ??__Fclassic_locale@std@@YAXXZ 0000000180053638 f   libcpmt:locale0.obj
 0001:00052698       ??__Finit_atexit@@YAXXZ    0000000180053698 f   libcpmt:iosptrs.obj
 0001:000526ec       ??__Finitlocks@std@@YAXXZ  00000001800536ec f   libcpmt:iosptrs.obj
 0002:00000430       ?initlocks$initializer$@std@@3P6AXXZEA 0000000180054430     libcpmt:xlock.obj
 0002:00000438       ?initlocks$initializer$@std@@3P6AXXZEA 0000000180054438     libcpmt:iosptrs.obj
 0002:00000440       ?init_atexit$initializer$@@3P6AXXZEA 0000000180054440     libcpmt:iosptrs.obj
 0002:00000448       ?_Fac_tidy_reg$initializer$@std@@3P6AXXZEA 0000000180054448     libcpmt:locale0.obj
 0002:00000450       ?classic_locale$initializer$@std@@3P6AXXZEA 0000000180054450     libcpmt:locale0.obj
 0002:00000460       ??oracledbTemplate_s$initializer$@Oracledb@@0P6AXXZEA@@3P6AXXZEA 0000000180054460     njsOracle.obj
 0002:00000468       ??poolTemplate_s$initializer$@Pool@@2P6AXXZEA@@3P6AXXZEA 0000000180054468     njsPool.obj
 0002:00000470       ??connectionTemplate_s$initializer$@Connection@@2P6AXXZEA@@3P6AXXZEA 0000000180054470     njsConnection.obj
 0002:00000478       ??resultSetTemplate_s$initializer$@ResultSet@@2P6AXXZEA@@3P6AXXZEA 0000000180054478     njsResultSet.obj
 0002:00000480       ??iLobTemplate_s$initializer$@ILob@@2P6AXXZEA@@3P6AXXZEA 0000000180054480     njsIntLob.obj
 0002:00000488       ??s_propPingName_$initializer$@ConnImpl@@0P6AXXZEA@@3P6AXXZEA 0000000180054488     dpiConnImpl.obj
 0002:000004a0       ?pinit@@3P6AHXZEA          00000001800544a0     libcpmt:winapisupp.obj
 0002:000004a8       ?__scrt_initialize_tss_var@@3P6AHXZEA 00000001800544a8     LIBCMT:thread_safe_statics.obj
 0002:000005a0       $cppxdata$??_G_Fac_node@std@@QEAAPEAXI@Z 00000001800545a0     libcpmt:locale0.obj
 0002:000005c8       $cppxdata$?_Locimp_dtor@_Locimp@locale@std@@CAXPEAV123@@Z 00000001800545c8     libcpmt:locale0.obj
 0002:000005f0       $cppxdata$??_G_Locimp@locale@std@@MEAAPEAXI@Z 00000001800545f0     libcpmt:locale0.obj
 0002:00000618       $cppxdata$?_Init@locale@std@@CAPEAV_Locimp@12@_N@Z 0000000180054618     libcpmt:locale0.obj
 0002:00000640       $cppxdata$??__Fclassic_locale@std@@YAXXZ 0000000180054640     libcpmt:locale0.obj
 0002:00000730       ?_Sys_errtab@std@@3QBU_Sys_errtab_t@1@B 0000000180054730     libcpmt:syserror.obj
 0002:00000c10       ?_Win_errtab@std@@3QBU_Win_errtab_t@1@B 0000000180054c10     libcpmt:syserror.obj
 0002:00001908       $cppxdata$??__Finit_atexit@@YAXXZ 0000000180055908     libcpmt:iosptrs.obj
 0002:00001a50       digits                     0000000180055a50     libcpmt:xstoul.obj
 0002:00001a78       ndigs                      0000000180055a78     libcpmt:xstoul.obj
 0002:00001aa0       digits                     0000000180055aa0     libcpmt:xstoull.obj
 0002:00001ac8       ndigs                      0000000180055ac8     libcpmt:xstoull.obj
 0002:00001af0       ?LcidToLocaleNameTable@@3QBULcidToLocaleName@@B 0000000180055af0     libcpmt:winapinls.obj
 0002:00002930       ?LocaleNameToIndexTable@@3QBULocaleNameIndex@@B 0000000180056930     libcpmt:winapinls.obj
 0002:00004e88       GS_ExceptionPointers       0000000180058e88     LIBCMT:gs_report.obj
 0002:00004ed0       ?ExceptionTemplate@?1??_UnwindNestedFrames@@9@4U_EXCEPTION_RECORD@@B 0000000180058ed0     libvcruntime:risctrnsctrl.obj
 0002:00004f70       ?ExceptionTemplate@?1??_CxxThrowException@@9@4UEHExceptionRecord@@B 0000000180058f70     libvcruntime:throw.obj
 0002:00004fb0       ?module_names@?A0x2db55455@@3QBQEB_WB 0000000180058fb0     libvcruntime:winapi_downlevel.obj
 0002:00005080       ?candidate_modules@?1??try_get_FlsAlloc@@YAP6AKP6AXPEAX@Z@ZXZ@4QBW4module_id@?A0x2db55455@@B 0000000180059080     libvcruntime:winapi_downlevel.obj
 0002:00005088       ?candidate_modules@?1??try_get_FlsFree@@YAP6AHK@ZXZ@4QBW4module_id@?A0x2db55455@@B 0000000180059088     libvcruntime:winapi_downlevel.obj
 0002:00005090       ?candidate_modules@?1??try_get_FlsGetValue@@YAP6APEAXK@ZXZ@4QBW4module_id@?A0x2db55455@@B 0000000180059090     libvcruntime:winapi_downlevel.obj
 0002:00005098       ?candidate_modules@?1??try_get_FlsSetValue@@YAP6AHKPEAX@ZXZ@4QBW4module_id@?A0x2db55455@@B 0000000180059098     libvcruntime:winapi_downlevel.obj
 0002:000050a0       ?candidate_modules@?1??try_get_InitializeCriticalSectionEx@@YAP6AHPEAU_RTL_CRITICAL_SECTION@@KK@ZXZ@4QBW4module_id@?A0x2db55455@@B 00000001800590a0     libvcruntime:winapi_downlevel.obj
 0002:000050d0       ?tokenTable@@3QBQEBDB      00000001800590d0     libvcruntime:undname.obj
 0002:00005140       ?nameTable@@3QBQEBDB       0000000180059140     libvcruntime:undname.obj
 0002:000053d0       ?rttiTable@@3QBQEBDB       00000001800593d0     libvcruntime:undname.obj
 0002:00006640       ?errtable@@3QBUerrentry@?A0x31fdb9ec@@B 000000018005a640     libucrt:errno.obj
 0002:00007170       __flag_x_one_y_snan        000000018005b170     libucrt:pow.obj
 0002:00007174       __flag_x_zero_z_inf        000000018005b174     libucrt:pow.obj
 0002:00007178       __flag_x_nan               000000018005b178     libucrt:pow.obj
 0002:0000717c       __flag_y_nan               000000018005b17c     libucrt:pow.obj
 0002:00007180       __flag_x_nan_y_nan         000000018005b180     libucrt:pow.obj
 0002:00007184       __flag_x_neg_y_notint      000000018005b184     libucrt:pow.obj
 0002:00007188       __flag_z_zero              000000018005b188     libucrt:pow.obj
 0002:0000718c       __flag_z_denormal          000000018005b18c     libucrt:pow.obj
 0002:00007190       __flag_z_inf               000000018005b190     libucrt:pow.obj
 0002:000071a0       __ay_max_bound             000000018005b1a0     libucrt:pow.obj
 0002:000071a8       __ay_min_bound             000000018005b1a8     libucrt:pow.obj
 0002:000071b0       __sign_mask                000000018005b1b0     libucrt:pow.obj
 0002:000071b8       __sign_and_exp_mask        000000018005b1b8     libucrt:pow.obj
 0002:000071c0       __exp_mask                 000000018005b1c0     libucrt:pow.obj
 0002:000071c8       __neg_inf                  000000018005b1c8     libucrt:pow.obj
 0002:000071d0       __pos_inf                  000000018005b1d0     libucrt:pow.obj
 0002:000071d8       __pos_one                  000000018005b1d8     libucrt:pow.obj
 0002:000071e0       __pos_zero                 000000018005b1e0     libucrt:pow.obj
 0002:000071e8       __exp_mant_mask            000000018005b1e8     libucrt:pow.obj
 0002:000071f0       __mant_mask                000000018005b1f0     libucrt:pow.obj
 0002:000071f8       __ind_pattern              000000018005b1f8     libucrt:pow.obj
 0002:00007200       __neg_qnan                 000000018005b200     libucrt:pow.obj
 0002:00007208       __qnan                     000000018005b208     libucrt:pow.obj
 0002:00007210       __qnan_set                 000000018005b210     libucrt:pow.obj
 0002:00007218       __neg_one                  000000018005b218     libucrt:pow.obj
 0002:00007220       __neg_zero                 000000018005b220     libucrt:pow.obj
 0002:00007228       __exp_shift                000000018005b228     libucrt:pow.obj
 0002:00007230       __exp_bias                 000000018005b230     libucrt:pow.obj
 0002:00007238       __exp_bias_m1              000000018005b238     libucrt:pow.obj
 0002:00007240       __yexp_53                  000000018005b240     libucrt:pow.obj
 0002:00007248       __mant_full                000000018005b248     libucrt:pow.obj
 0002:00007250       __1_before_mant            000000018005b250     libucrt:pow.obj
 0002:00007258       __mask_mant_all8           000000018005b258     libucrt:pow.obj
 0002:00007260       __mask_mant9               000000018005b260     libucrt:pow.obj
 0002:00007270       __real_fffffffff8000000    000000018005b270     libucrt:pow.obj
 0002:00007280       __mask_8000000000000000    000000018005b280     libucrt:pow.obj
 0002:00007290       __real_4090040000000000    000000018005b290     libucrt:pow.obj
 0002:000072a0       __real_C090C80000000000    000000018005b2a0     libucrt:pow.obj
 0002:000072b0       __real_ninf                000000018005b2b0     libucrt:pow.obj
 0002:000072c0       __real_inf                 000000018005b2c0     libucrt:pow.obj
 0002:000072d0       __real_nan                 000000018005b2d0     libucrt:pow.obj
 0002:000072e0       __real_mant                000000018005b2e0     libucrt:pow.obj
 0002:000072f0       __mask_1023                000000018005b2f0     libucrt:pow.obj
 0002:00007300       __mask_001                 000000018005b300     libucrt:pow.obj
 0002:00007310       __real_log2_lead           000000018005b310     libucrt:pow.obj
 0002:00007320       __real_log2_tail           000000018005b320     libucrt:pow.obj
 0002:00007330       __real_two                 000000018005b330     libucrt:pow.obj
 0002:00007340       __real_one                 000000018005b340     libucrt:pow.obj
 0002:00007350       __real_half                000000018005b350     libucrt:pow.obj
 0002:00007360       __mask_100                 000000018005b360     libucrt:pow.obj
 0002:00007370       __real_1_over_2            000000018005b370     libucrt:pow.obj
 0002:00007380       __real_1_over_3            000000018005b380     libucrt:pow.obj
 0002:00007390       __real_1_over_4            000000018005b390     libucrt:pow.obj
 0002:000073a0       __real_1_over_5            000000018005b3a0     libucrt:pow.obj
 0002:000073b0       __real_1_over_6            000000018005b3b0     libucrt:pow.obj
 0002:000073c0       __real_1_over_7            000000018005b3c0     libucrt:pow.obj
 0002:000073d0       __mask_1023_f              000000018005b3d0     libucrt:pow.obj
 0002:000073e0       __mask_2045                000000018005b3e0     libucrt:pow.obj
 0002:000073f0       __real_threshold           000000018005b3f0     libucrt:pow.obj
 0002:00007400       __real_notsign             000000018005b400     libucrt:pow.obj
 0002:00007410       __log_F_inv_head           000000018005b410     libucrt:pow.obj
 0002:00007c20       __log_F_inv_tail           000000018005bc20     libucrt:pow.obj
 0002:00008430       __denormal_threshold       000000018005c430     libucrt:pow.obj
 0002:00008440       __enable_almost_inf        000000018005c440     libucrt:pow.obj
 0002:00008450       __real_zero                000000018005c450     libucrt:pow.obj
 0002:00008460       __real_smallest_denormal   000000018005c460     libucrt:pow.obj
 0002:00008470       __denormal_tiny_threshold  000000018005c470     libucrt:pow.obj
 0002:00008480       __real_p65536              000000018005c480     libucrt:pow.obj
 0002:00008490       __real_m68800              000000018005c490     libucrt:pow.obj
 0002:000084a0       __real_64_by_log2          000000018005c4a0     libucrt:pow.obj
 0002:000084b0       __real_log2_by_64_head     000000018005c4b0     libucrt:pow.obj
 0002:000084c0       __real_log2_by_64_tail     000000018005c4c0     libucrt:pow.obj
 0002:000084d0       __real_1_by_720            000000018005c4d0     libucrt:pow.obj
 0002:000084e0       __real_1_by_120            000000018005c4e0     libucrt:pow.obj
 0002:000084f0       __real_1_by_24             000000018005c4f0     libucrt:pow.obj
 0002:00008500       __real_1_by_6              000000018005c500     libucrt:pow.obj
 0002:00008510       __real_1_by_2              000000018005c510     libucrt:pow.obj
 0002:00008520       __flag_x_one_y_snan        000000018005c520     libucrt:powf.obj
 0002:00008524       __flag_x_zero_z_inf        000000018005c524     libucrt:powf.obj
 0002:00008528       __flag_x_nan               000000018005c528     libucrt:powf.obj
 0002:0000852c       __flag_y_nan               000000018005c52c     libucrt:powf.obj
 0002:00008530       __flag_x_nan_y_nan         000000018005c530     libucrt:powf.obj
 0002:00008534       __flag_x_neg_y_notint      000000018005c534     libucrt:powf.obj
 0002:00008538       __flag_z_zero              000000018005c538     libucrt:powf.obj
 0002:0000853c       __flag_z_denormal          000000018005c53c     libucrt:powf.obj
 0002:00008540       __flag_z_inf               000000018005c540     libucrt:powf.obj
 0002:00008544       L__1_by_3                  000000018005c544     libucrt:powf.obj
 0002:0000854c       L__log2                    000000018005c54c     libucrt:powf.obj
 0002:00008554       L__max_exp_arg             000000018005c554     libucrt:powf.obj
 0002:0000855c       L__min_exp_arg             000000018005c55c     libucrt:powf.obj
 0002:00008564       L__real_log2_by_64         000000018005c564     libucrt:powf.obj
 0002:0000856c       L__1_by_6                  000000018005c56c     libucrt:powf.obj
 0002:00008574       L__real_threshold          000000018005c574     libucrt:powf.obj
 0002:0000857c       L__real_one                000000018005c57c     libucrt:powf.obj
 0002:00008584       L__real_two                000000018005c584     libucrt:powf.obj
 0002:0000858c       L__neg_zero                000000018005c58c     libucrt:powf.obj
 0002:000085a0       L__real_ca42               000000018005c5a0     libucrt:powf.obj
 0002:000085a8       L__real_ca4                000000018005c5a8     libucrt:powf.obj
 0002:000085b0       L__real_ca31               000000018005c5b0     libucrt:powf.obj
 0002:000085b8       L__real_ca3                000000018005c5b8     libucrt:powf.obj
 0002:000085c0       L__clear_sign              000000018005c5c0     libucrt:powf.obj
 0002:000085d0       L__real_64_by_log2         000000018005c5d0     libucrt:powf.obj
 0002:000085e0       L__1_by_2                  000000018005c5e0     libucrt:powf.obj
 0002:000085f0       L__1023                    000000018005c5f0     libucrt:powf.obj
 0002:00008600       L__xexp_bits_xmantissa_bits 000000018005c600     libucrt:powf.obj
 0002:00008f20       __acrt_initializers        000000018005cf20     libucrt:initialization.obj
 0002:00009180       _first_127char             000000018005d180     libucrt:wsetlocale.obj
 0002:000098a0       ?_names@?1??_get_fname@@9@9 000000018005d8a0     libucrt:fpexcept.obj
 0002:00009b50       ?module_names@?A0x391cf84c@@3QBQEB_WB 000000018005db50     libucrt:winapi_thunks.obj
 0002:0000a048       ?candidate_modules@?1??try_get_AreFileApisANSI@@YAP6AHXZXZ@4QBW4module_id@?A0x391cf84c@@B 000000018005e048     libucrt:winapi_thunks.obj
 0002:0000a060       ?candidate_modules@?1??try_get_CompareStringEx@@YAP6AHPEB_WK0H0HPEAU_nlsversioninfo@@PEAX_J@ZXZ@4QBW4module_id@?A0x391cf84c@@B 000000018005e060     libucrt:winapi_thunks.obj
 0002:0000a068       ?candidate_modules@?1??try_get_EnumSystemLocalesEx@@YAP6AHP6AHPEA_WK_J@ZK1PEAX@ZXZ@4QBW4module_id@?A0x391cf84c@@B 000000018005e068     libucrt:winapi_thunks.obj
 0002:0000a088       ?candidate_modules@?1??try_get_FlsAlloc@@YAP6AKP6AXPEAX@Z@ZXZ@4QBW4module_id@?A0x391cf84c@@B 000000018005e088     libucrt:winapi_thunks.obj
 0002:0000a090       ?candidate_modules@?1??try_get_FlsFree@@YAP6AHK@ZXZ@4QBW4module_id@?A0x391cf84c@@B 000000018005e090     libucrt:winapi_thunks.obj
 0002:0000a098       ?candidate_modules@?1??try_get_FlsGetValue@@YAP6APEAXK@ZXZ@4QBW4module_id@?A0x391cf84c@@B 000000018005e098     libucrt:winapi_thunks.obj
 0002:0000a0a0       ?candidate_modules@?1??try_get_FlsSetValue@@YAP6AHKPEAX@ZXZ@4QBW4module_id@?A0x391cf84c@@B 000000018005e0a0     libucrt:winapi_thunks.obj
 0002:0000a0a8       ?candidate_modules@?1??try_get_GetActiveWindow@@YAP6APEAUHWND__@@XZXZ@4QBW4module_id@?A0x391cf84c@@B 000000018005e0a8     libucrt:winapi_thunks.obj
 0002:0000a0c0       ?candidate_modules@?1??try_get_GetDateFormatEx@@YAP6AHPEB_WKPEBU_SYSTEMTIME@@0PEA_WH0@ZXZ@4QBW4module_id@?A0x391cf84c@@B 000000018005e0c0     libucrt:winapi_thunks.obj
 0002:0000a0d8       ?candidate_modules@?1??try_get_GetLastActivePopup@@YAP6APEAUHWND__@@PEAU2@@ZXZ@4QBW4module_id@?A0x391cf84c@@B 000000018005e0d8     libucrt:winapi_thunks.obj
 0002:0000a0f8       ?candidate_modules@?1??try_get_GetLocaleInfoEx@@YAP6AHPEB_WKPEA_WH@ZXZ@4QBW4module_id@?A0x391cf84c@@B 000000018005e0f8     libucrt:winapi_thunks.obj
 0002:0000a100       ?candidate_modules@?1??try_get_GetProcessWindowStation@@YAP6APEAUHWINSTA__@@XZXZ@4QBW4module_id@?A0x391cf84c@@B 000000018005e100     libucrt:winapi_thunks.obj
 0002:0000a120       ?candidate_modules@?1??try_get_GetTimeFormatEx@@YAP6AHPEB_WKPEBU_SYSTEMTIME@@0PEA_WH@ZXZ@4QBW4module_id@?A0x391cf84c@@B 000000018005e120     libucrt:winapi_thunks.obj
 0002:0000a138       ?candidate_modules@?1??try_get_GetUserDefaultLocaleName@@YAP6AHPEA_WH@ZXZ@4QBW4module_id@?A0x391cf84c@@B 000000018005e138     libucrt:winapi_thunks.obj
 0002:0000a160       ?candidate_modules@?1??try_get_GetUserObjectInformationW@@YAP6AHPEAXH0KPEAK@ZXZ@4QBW4module_id@?A0x391cf84c@@B 000000018005e160     libucrt:winapi_thunks.obj
 0002:0000a188       ?candidate_modules@?1??try_get_InitializeCriticalSectionEx@@YAP6AHPEAU_RTL_CRITICAL_SECTION@@KK@ZXZ@4QBW4module_id@?A0x391cf84c@@B 000000018005e188     libucrt:winapi_thunks.obj
 0002:0000a190       ?candidate_modules@?1??try_get_IsValidLocaleName@@YAP6AHPEB_W@ZXZ@4QBW4module_id@?A0x391cf84c@@B 000000018005e190     libucrt:winapi_thunks.obj
 0002:0000a1b0       ?candidate_modules@?1??try_get_LCMapStringEx@@YAP6AHPEB_WK0HPEA_WHPEAU_nlsversioninfo@@PEAX_J@ZXZ@4QBW4module_id@?A0x391cf84c@@B 000000018005e1b0     libucrt:winapi_thunks.obj
 0002:0000a1b8       ?candidate_modules@?1??try_get_LCIDToLocaleName@@YAP6AHKPEA_WHK@ZXZ@4QBW4module_id@?A0x391cf84c@@B 000000018005e1b8     libucrt:winapi_thunks.obj
 0002:0000a1d8       ?candidate_modules@?1??try_get_LocaleNameToLCID@@YAP6AKPEB_WK@ZXZ@4QBW4module_id@?A0x391cf84c@@B 000000018005e1d8     libucrt:winapi_thunks.obj
 0002:0000a1f8       ?candidate_modules@?1??try_get_MessageBoxA@@YAP6AHPEAUHWND__@@PEBD1I@ZXZ@4QBW4module_id@?A0x391cf84c@@B 000000018005e1f8     libucrt:winapi_thunks.obj
 0002:0000a210       ?candidate_modules@?1??try_get_MessageBoxW@@YAP6AHPEAUHWND__@@PEB_W1I@ZXZ@4QBW4module_id@?A0x391cf84c@@B 000000018005e210     libucrt:winapi_thunks.obj
 0002:0000a224       ?candidate_modules@?1??try_get_AppPolicyGetProcessTerminationMethod@@YAP6AJPEAXPEAW4AppPolicyProcessTerminationMethod@@@ZXZ@4QBW4module_id@?A0x391cf84c@@B 000000018005e224     libucrt:winapi_thunks.obj
 0002:0000a250       ?candidate_modules@?1??try_get_AppPolicyGetShowDeveloperDiagnostic@@YAP6AJPEAXPEAW4AppPolicyShowDeveloperDiagnostic@@@ZXZ@4QBW4module_id@?A0x391cf84c@@B 000000018005e250     libucrt:winapi_thunks.obj
 0002:0000a27c       ?candidate_modules@?1??try_get_AppPolicyGetWindowingModel@@YAP6AJPEAXPEAW4AppPolicyWindowingModel@@@ZXZ@4QBW4module_id@?A0x391cf84c@@B 000000018005e27c     libucrt:winapi_thunks.obj
 0002:0000c0e0       ?_mb_locale_names@@3QBQEB_WB 00000001800600e0     libucrt:mbctype.obj
 0002:0000d0f0       __real@433fffffffffffff    00000001800610f0     libucrt:fpsr.obj
 0002:0000d0f8       __real@c33fffffffffffff    00000001800610f8     libucrt:fpsr.obj
 0002:0000d100       ?LcidToLocaleNameTable@?A0x881e4c05@@3QBULcidToLocaleName@1@B 0000000180061100     libucrt:lcidtoname_downlevel.obj
 0002:0000df40       ?LocaleNameToIndexTable@?A0x881e4c05@@3QBULocaleNameIndex@1@B 0000000180061f40     libucrt:lcidtoname_downlevel.obj
 0002:0000ed80       __real_ninf                0000000180062d80     libucrt:log10.obj
 0002:0000ed90       __real_inf                 0000000180062d90     libucrt:log10.obj
 0002:0000eda0       __real_neg_qnan            0000000180062da0     libucrt:log10.obj
 0002:0000edb0       __real_qnanbit             0000000180062db0     libucrt:log10.obj
 0002:0000edc0       __int_1023                 0000000180062dc0     libucrt:log10.obj
 0002:0000edd0       __mask_001                 0000000180062dd0     libucrt:log10.obj
 0002:0000ede0       __mask_mant                0000000180062de0     libucrt:log10.obj
 0002:0000edf0       __mask_mant_top8           0000000180062df0     libucrt:log10.obj
 0002:0000ee00       __mask_mant9               0000000180062e00     libucrt:log10.obj
 0002:0000ee10       __real_log10_e             0000000180062e10     libucrt:log10.obj
 0002:0000ee20       __real_log10_e_lead        0000000180062e20     libucrt:log10.obj
 0002:0000ee30       __real_log10_e_tail        0000000180062e30     libucrt:log10.obj
 0002:0000ee40       __real_log10_2_lead        0000000180062e40     libucrt:log10.obj
 0002:0000ee50       __real_log10_2_tail        0000000180062e50     libucrt:log10.obj
 0002:0000ee60       __real_two                 0000000180062e60     libucrt:log10.obj
 0002:0000ee70       __real_one                 0000000180062e70     libucrt:log10.obj
 0002:0000ee80       __real_half                0000000180062e80     libucrt:log10.obj
 0002:0000ee90       __mask_100                 0000000180062e90     libucrt:log10.obj
 0002:0000eea0       __real_1_over_512          0000000180062ea0     libucrt:log10.obj
 0002:0000eeb0       __real_1_over_2            0000000180062eb0     libucrt:log10.obj
 0002:0000eec0       __real_1_over_3            0000000180062ec0     libucrt:log10.obj
 0002:0000eed0       __real_1_over_4            0000000180062ed0     libucrt:log10.obj
 0002:0000eee0       __real_1_over_5            0000000180062ee0     libucrt:log10.obj
 0002:0000eef0       __real_1_over_6            0000000180062ef0     libucrt:log10.obj
 0002:0000ef00       __real_neg_1023            0000000180062f00     libucrt:log10.obj
 0002:0000ef10       __mask_2045                0000000180062f10     libucrt:log10.obj
 0002:0000ef20       __real_threshold           0000000180062f20     libucrt:log10.obj
 0002:0000ef30       __real_near_one_lt         0000000180062f30     libucrt:log10.obj
 0002:0000ef40       __real_near_one_gt         0000000180062f40     libucrt:log10.obj
 0002:0000ef50       __real_min_norm            0000000180062f50     libucrt:log10.obj
 0002:0000ef60       __real_notsign             0000000180062f60     libucrt:log10.obj
 0002:0000ef70       __real_ca1                 0000000180062f70     libucrt:log10.obj
 0002:0000ef80       __real_ca2                 0000000180062f80     libucrt:log10.obj
 0002:0000ef90       __real_ca3                 0000000180062f90     libucrt:log10.obj
 0002:0000efa0       __real_ca4                 0000000180062fa0     libucrt:log10.obj
 0002:0000efb0       __mask_lower               0000000180062fb0     libucrt:log10.obj
 0002:0000efc0       __flag_x_zero              0000000180062fc0     libucrt:log10.obj
 0002:0000efc4       __flag_x_neg               0000000180062fc4     libucrt:log10.obj
 0002:0000efc8       __flag_x_nan               0000000180062fc8     libucrt:log10.obj
 0002:00011880       ?errMsg@@3PAPEBDA          0000000180065880     njsMessages.obj
 0002:00011a30       ?dpiErrors@@3PAPEBDA       0000000180065a30     dpiExceptionImpl.obj
 0002:000121e0       $cppxdata$?_Getcat@?$numpunct@D@std@@SA_KPEAPEBVfacet@locale@2@PEBV42@@Z 00000001800661e0     njsOracle.obj
 0002:00012208       $cppxdata$??$use_facet@V?$numpunct@D@std@@@std@@YAAEBV?$numpunct@D@0@AEBVlocale@0@@Z 0000000180066208     njsOracle.obj
 0002:00012230       $cppxdata$??$To@H@Nan@@YA?AV?$Maybe@H@v8@@V?$Local@VValue@v8@@@2@@Z 0000000180066230     njsOracle.obj
 0002:00012258       $cppxdata$??$To@I@Nan@@YA?AV?$Maybe@I@v8@@V?$Local@VValue@v8@@@2@@Z 0000000180066258     njsOracle.obj
 0002:00012280       $cppxdata$??$?6U?$char_traits@D@std@@@std@@YAAEAV?$basic_ostream@DU?$char_traits@D@std@@@0@AEAV10@PEBD@Z 0000000180066280     njsOracle.obj
 0002:000122a8       $cppxdata$??$New@VString@v8@@V?$basic_string@DU?$char_traits@D@std@@V?$allocator@D@2@@std@@@Nan@@YA?AV?$MaybeLocal@VString@v8@@@v8@@V?$basic_string@DU?$char_traits@D@std@@V?$allocator@D@2@@std@@@Z 00000001800662a8     njsOracle.obj
 0002:000122d0       $cppxdata$??$use_facet@V?$ctype@D@std@@@std@@YAAEBV?$ctype@D@0@AEBVlocale@0@@Z 00000001800662d0     njsOracle.obj
 0002:000122f8       $cppxdata$?_Fput@?$num_put@DV?$ostreambuf_iterator@DU?$char_traits@D@std@@@std@@@std@@AEBA?AV?$ostreambuf_iterator@DU?$char_traits@D@std@@@2@V32@AEAVios_base@2@DPEBD_K@Z 00000001800662f8     njsOracle.obj
 0002:00012320       $cppxdata$?_Iput@?$num_put@DV?$ostreambuf_iterator@DU?$char_traits@D@std@@@std@@@std@@AEBA?AV?$ostreambuf_iterator@DU?$char_traits@D@std@@@2@V32@AEAVios_base@2@DPEAD_K@Z 0000000180066320     njsOracle.obj
 0002:00012348       $cppxdata$??0?$basic_iostream@DU?$char_traits@D@std@@@std@@QEAA@PEAV?$basic_streambuf@DU?$char_traits@D@std@@@1@@Z 0000000180066348     njsOracle.obj
 0002:00012370       $cppxdata$?do_put@?$num_put@DV?$ostreambuf_iterator@DU?$char_traits@D@std@@@std@@@std@@MEBA?AV?$ostreambuf_iterator@DU?$char_traits@D@std@@@2@V32@AEAVios_base@2@D_N@Z 0000000180066370     njsOracle.obj
 0002:00012398       $cppxdata$?do_put@?$num_put@DV?$ostreambuf_iterator@DU?$char_traits@D@std@@@std@@@std@@MEBA?AV?$ostreambuf_iterator@DU?$char_traits@D@std@@@2@V32@AEAVios_base@2@DN@Z 0000000180066398     njsOracle.obj
 0002:000123c0       $cppxdata$?do_put@?$num_put@DV?$ostreambuf_iterator@DU?$char_traits@D@std@@@std@@@std@@MEBA?AV?$ostreambuf_iterator@DU?$char_traits@D@std@@@2@V32@AEAVios_base@2@DO@Z 00000001800663c0     njsOracle.obj
 0002:000123e8       $cppxdata$??0sentry@?$basic_ostream@DU?$char_traits@D@std@@@std@@QEAA@AEAV12@@Z 00000001800663e8     njsOracle.obj
 0002:00012410       $cppxdata$??6?$basic_ostream@DU?$char_traits@D@std@@@std@@QEAAAEAV01@H@Z 0000000180066410     njsOracle.obj
 0002:00012438       $cppxdata$??0?$basic_stringstream@DU?$char_traits@D@std@@V?$allocator@D@2@@std@@QEAA@H@Z 0000000180066438     njsOracle.obj
 0002:00012460       $cppxdata$?Async_AfterCreatePool@Oracledb@@CAXPEAUuv_work_s@@@Z 0000000180066460     njsOracle.obj
 0002:00012488       $cppxdata$?Async_CreatePool@Oracledb@@CAXPEAUuv_work_s@@@Z 0000000180066488     njsOracle.obj
 0002:000124b0       $cppxdata$?CreatePool@Oracledb@@CAXAEBV?$FunctionCallbackInfo@VValue@v8@@@Nan@@@Z 00000001800664b0     njsOracle.obj
 0002:000124d8       $cppxdata$?Async_AfterGetConnection@Oracledb@@CAXPEAUuv_work_s@@@Z 00000001800664d8     njsOracle.obj
 0002:00012500       $cppxdata$?Async_GetConnection@Oracledb@@CAXPEAUuv_work_s@@@Z 0000000180066500     njsOracle.obj
 0002:00012528       $cppxdata$?GetConnection@Oracledb@@CAXAEBV?$FunctionCallbackInfo@VValue@v8@@@Nan@@@Z 0000000180066528     njsOracle.obj
 0002:00012550       $cppxdata$?SetPoolPingInterval@Oracledb@@CAXV?$Local@VString@v8@@@v8@@V?$Local@VValue@v8@@@3@AEBV?$PropertyCallbackInfo@X@Nan@@@Z 0000000180066550     njsOracle.obj
 0002:00012578       $cppxdata$?GetPoolPingInterval@Oracledb@@CAXV?$Local@VString@v8@@@v8@@AEBV?$PropertyCallbackInfo@VValue@v8@@@Nan@@@Z 0000000180066578     njsOracle.obj
 0002:000125a0       $cppxdata$?SetOracleClientVersion@Oracledb@@CAXV?$Local@VString@v8@@@v8@@V?$Local@VValue@v8@@@3@AEBV?$PropertyCallbackInfo@X@Nan@@@Z 00000001800665a0     njsOracle.obj
 0002:000125c8       $cppxdata$?GetOracleClientVersion@Oracledb@@CAXV?$Local@VString@v8@@@v8@@AEBV?$PropertyCallbackInfo@VValue@v8@@@Nan@@@Z 00000001800665c8     njsOracle.obj
 0002:000125f0       $cppxdata$?SetFetchAsBuffer@Oracledb@@CAXV?$Local@VString@v8@@@v8@@V?$Local@VValue@v8@@@3@AEBV?$PropertyCallbackInfo@X@Nan@@@Z 00000001800665f0     njsOracle.obj
 0002:00012618       $cppxdata$?GetFetchAsBuffer@Oracledb@@CAXV?$Local@VString@v8@@@v8@@AEBV?$PropertyCallbackInfo@VValue@v8@@@Nan@@@Z 0000000180066618     njsOracle.obj
 0002:00012640       $cppxdata$?SetFetchAsString@Oracledb@@CAXV?$Local@VString@v8@@@v8@@V?$Local@VValue@v8@@@3@AEBV?$PropertyCallbackInfo@X@Nan@@@Z 0000000180066640     njsOracle.obj
 0002:00012668       $cppxdata$?GetFetchAsString@Oracledb@@CAXV?$Local@VString@v8@@@v8@@AEBV?$PropertyCallbackInfo@VValue@v8@@@Nan@@@Z 0000000180066668     njsOracle.obj
 0002:00012690       $cppxdata$?SetLobPrefetchSize@Oracledb@@CAXV?$Local@VString@v8@@@v8@@V?$Local@VValue@v8@@@3@AEBV?$PropertyCallbackInfo@X@Nan@@@Z 0000000180066690     njsOracle.obj
 0002:000126b8       $cppxdata$?GetLobPrefetchSize@Oracledb@@CAXV?$Local@VString@v8@@@v8@@AEBV?$PropertyCallbackInfo@VValue@v8@@@Nan@@@Z 00000001800666b8     njsOracle.obj
 0002:000126e0       $cppxdata$?SetExternalAuth@Oracledb@@CAXV?$Local@VString@v8@@@v8@@V?$Local@VValue@v8@@@3@AEBV?$PropertyCallbackInfo@X@Nan@@@Z 00000001800666e0     njsOracle.obj
 0002:00012708       $cppxdata$?GetExternalAuth@Oracledb@@CAXV?$Local@VString@v8@@@v8@@AEBV?$PropertyCallbackInfo@VValue@v8@@@Nan@@@Z 0000000180066708     njsOracle.obj
 0002:00012730       $cppxdata$?SetConnectionClass@Oracledb@@CAXV?$Local@VString@v8@@@v8@@V?$Local@VValue@v8@@@3@AEBV?$PropertyCallbackInfo@X@Nan@@@Z 0000000180066730     njsOracle.obj
 0002:00012758       $cppxdata$?GetConnectionClass@Oracledb@@CAXV?$Local@VString@v8@@@v8@@AEBV?$PropertyCallbackInfo@VValue@v8@@@Nan@@@Z 0000000180066758     njsOracle.obj
 0002:00012780       $cppxdata$?SetVersion@Oracledb@@CAXV?$Local@VString@v8@@@v8@@V?$Local@VValue@v8@@@3@AEBV?$PropertyCallbackInfo@X@Nan@@@Z 0000000180066780     njsOracle.obj
 0002:000127a8       $cppxdata$?SetExtendedMetaData@Oracledb@@CAXV?$Local@VString@v8@@@v8@@V?$Local@VValue@v8@@@3@AEBV?$PropertyCallbackInfo@X@Nan@@@Z 00000001800667a8     njsOracle.obj
 0002:000127d0       $cppxdata$?GetExtendedMetaData@Oracledb@@CAXV?$Local@VString@v8@@@v8@@AEBV?$PropertyCallbackInfo@VValue@v8@@@Nan@@@Z 00000001800667d0     njsOracle.obj
 0002:000127f8       $cppxdata$?SetAutoCommit@Oracledb@@CAXV?$Local@VString@v8@@@v8@@V?$Local@VValue@v8@@@3@AEBV?$PropertyCallbackInfo@X@Nan@@@Z 00000001800667f8     njsOracle.obj
 0002:00012820       $cppxdata$?GetAutoCommit@Oracledb@@CAXV?$Local@VString@v8@@@v8@@AEBV?$PropertyCallbackInfo@VValue@v8@@@Nan@@@Z 0000000180066820     njsOracle.obj
 0002:00012848       $cppxdata$?SetPrefetchRows@Oracledb@@CAXV?$Local@VString@v8@@@v8@@V?$Local@VValue@v8@@@3@AEBV?$PropertyCallbackInfo@X@Nan@@@Z 0000000180066848     njsOracle.obj
 0002:00012870       $cppxdata$?GetPrefetchRows@Oracledb@@CAXV?$Local@VString@v8@@@v8@@AEBV?$PropertyCallbackInfo@VValue@v8@@@Nan@@@Z 0000000180066870     njsOracle.obj
 0002:00012898       $cppxdata$?SetStmtCacheSize@Oracledb@@CAXV?$Local@VString@v8@@@v8@@V?$Local@VValue@v8@@@3@AEBV?$PropertyCallbackInfo@X@Nan@@@Z 0000000180066898     njsOracle.obj
 0002:000128c0       $cppxdata$?GetStmtCacheSize@Oracledb@@CAXV?$Local@VString@v8@@@v8@@AEBV?$PropertyCallbackInfo@VValue@v8@@@Nan@@@Z 00000001800668c0     njsOracle.obj
 0002:000128e8       $cppxdata$?SetOutFormat@Oracledb@@CAXV?$Local@VString@v8@@@v8@@V?$Local@VValue@v8@@@3@AEBV?$PropertyCallbackInfo@X@Nan@@@Z 00000001800668e8     njsOracle.obj
 0002:00012910       $cppxdata$?GetOutFormat@Oracledb@@CAXV?$Local@VString@v8@@@v8@@AEBV?$PropertyCallbackInfo@VValue@v8@@@Nan@@@Z 0000000180066910     njsOracle.obj
 0002:00012938       $cppxdata$?SetMaxRows@Oracledb@@CAXV?$Local@VString@v8@@@v8@@V?$Local@VValue@v8@@@3@AEBV?$PropertyCallbackInfo@X@Nan@@@Z 0000000180066938     njsOracle.obj
 0002:00012960       $cppxdata$?GetMaxRows@Oracledb@@CAXV?$Local@VString@v8@@@v8@@AEBV?$PropertyCallbackInfo@VValue@v8@@@Nan@@@Z 0000000180066960     njsOracle.obj
 0002:00012988       $cppxdata$?SetPoolTimeout@Oracledb@@CAXV?$Local@VString@v8@@@v8@@V?$Local@VValue@v8@@@3@AEBV?$PropertyCallbackInfo@X@Nan@@@Z 0000000180066988     njsOracle.obj
 0002:000129b0       $cppxdata$?GetPoolTimeout@Oracledb@@CAXV?$Local@VString@v8@@@v8@@AEBV?$PropertyCallbackInfo@VValue@v8@@@Nan@@@Z 00000001800669b0     njsOracle.obj
 0002:000129d8       $cppxdata$?SetPoolIncrement@Oracledb@@CAXV?$Local@VString@v8@@@v8@@V?$Local@VValue@v8@@@3@AEBV?$PropertyCallbackInfo@X@Nan@@@Z 00000001800669d8     njsOracle.obj
 0002:00012a00       $cppxdata$?GetPoolIncrement@Oracledb@@CAXV?$Local@VString@v8@@@v8@@AEBV?$PropertyCallbackInfo@VValue@v8@@@Nan@@@Z 0000000180066a00     njsOracle.obj
 0002:00012a28       $cppxdata$?SetPoolMax@Oracledb@@CAXV?$Local@VString@v8@@@v8@@V?$Local@VValue@v8@@@3@AEBV?$PropertyCallbackInfo@X@Nan@@@Z 0000000180066a28     njsOracle.obj
 0002:00012a50       $cppxdata$?GetPoolMax@Oracledb@@CAXV?$Local@VString@v8@@@v8@@AEBV?$PropertyCallbackInfo@VValue@v8@@@Nan@@@Z 0000000180066a50     njsOracle.obj
 0002:00012a78       $cppxdata$?SetPoolMin@Oracledb@@CAXV?$Local@VString@v8@@@v8@@V?$Local@VValue@v8@@@3@AEBV?$PropertyCallbackInfo@X@Nan@@@Z 0000000180066a78     njsOracle.obj
 0002:00012aa0       $cppxdata$?GetPoolMin@Oracledb@@CAXV?$Local@VString@v8@@@v8@@AEBV?$PropertyCallbackInfo@VValue@v8@@@Nan@@@Z 0000000180066aa0     njsOracle.obj
 0002:00012ac8       $cppxdata$?New@Oracledb@@CAXAEBV?$FunctionCallbackInfo@VValue@v8@@@Nan@@@Z 0000000180066ac8     njsOracle.obj
 0002:00012af0       $cppxdata$?Init@Oracledb@@SAXV?$Local@VObject@v8@@@v8@@@Z 0000000180066af0     njsOracle.obj
 0002:00012b18       $cppxdata$??1Oracledb@@EEAA@XZ 0000000180066b18     njsOracle.obj
 0002:00012b40       $cppxdata$??0Oracledb@@AEAA@XZ 0000000180066b40     njsOracle.obj
 0002:00012b68       $cppxdata$??__F?oracledbTemplate_s@Oracledb@@0V?$Persistent@VFunctionTemplate@v8@@V?$NonCopyablePersistentTraits@VFunctionTemplate@v8@@@2@@Nan@@A@@YAXXZ 0000000180066b68     njsOracle.obj
 0002:00012b90       $cppxdata$??1connectionBaton@@QEAA@XZ 0000000180066b90     njsOracle.obj
 0002:00012bb8       $cppxdata$??0connectionBaton@@QEAA@V?$Local@VFunction@v8@@@v8@@V?$Local@VObject@v8@@@2@@Z 0000000180066bb8     njsOracle.obj
 0002:00012be0       $cppxdata$??1ObjectWrap@Nan@@UEAA@XZ 0000000180066be0     njsOracle.obj
 0002:00012c08       $cppxdata$?SetAccessor@Nan@@YAXV?$Local@VObjectTemplate@v8@@@v8@@V?$Local@VString@v8@@@3@P6AX1AEBV?$PropertyCallbackInfo@VValue@v8@@@1@@ZP6AX1V?$Local@VValue@v8@@@3@AEBV?$PropertyCallbackInfo@X@1@@Z4W4AccessControl@3@W4PropertyAttribute@3@V?$Local@VAccessorSignature@v8@@@3@@Z 0000000180066c08     njsOracle.obj
 0002:00012c30       $cppxdata$?SetPrototypeMethod@Nan@@YAXV?$Local@VFunctionTemplate@v8@@@v8@@PEBDP6AXAEBV?$FunctionCallbackInfo@VValue@v8@@@1@@Z@Z 0000000180066c30     njsOracle.obj
 0002:00012c58       $cppxdata$??1?$Persistent@VObject@v8@@V?$NonCopyablePersistentTraits@VObject@v8@@@2@@Nan@@QEAA@XZ 0000000180066c58     njsOracle.obj
 0002:00012c58       $cppxdata$??1?$Persistent@VFunction@v8@@V?$NonCopyablePersistentTraits@VFunction@v8@@@2@@Nan@@QEAA@XZ 0000000180066c58     njsOracle.obj
 0002:00012c80       $cppxdata$?ThrowError@Nan@@YAXPEBD@Z 0000000180066c80     njsOracle.obj
 0002:00012ca8       $cppxdata$?New@?$Factory@VFunctionTemplate@v8@@@imp@Nan@@SA?AV?$Local@VFunctionTemplate@v8@@@v8@@P6AXAEBV?$FunctionCallbackInfo@VValue@v8@@@3@@ZV?$Local@VValue@v8@@@5@V?$Local@VSignature@v8@@@5@@Z 0000000180066ca8     njsOracle.obj
 0002:00012cd0       $cppxdata$?clear@ios_base@std@@QEAAXH_N@Z 0000000180066cd0     njsOracle.obj
 0002:00012cf8       $cppxdata$??0failure@ios_base@std@@QEAA@PEBDAEBVerror_code@2@@Z 0000000180066cf8     njsOracle.obj
 0002:00012d20       $cppxdata$?_Makestr@_System_error@std@@CA?AV?$basic_string@DU?$char_traits@D@std@@V?$allocator@D@2@@2@Verror_code@2@V32@@Z 0000000180066d20     njsOracle.obj
 0002:00012d48       $cppxdata$??0_Locinfo@std@@QEAA@PEBD@Z 0000000180066d48     njsOracle.obj
 0002:00012de0       $cppxdata$?Async_AfterTerminate@Pool@@CAXPEAUuv_work_s@@@Z 0000000180066de0     njsPool.obj
 0002:00012e08       $cppxdata$?Async_Terminate@Pool@@CAXPEAUuv_work_s@@@Z 0000000180066e08     njsPool.obj
 0002:00012e30       $cppxdata$?Terminate@Pool@@CAXAEBV?$FunctionCallbackInfo@VValue@v8@@@Nan@@@Z 0000000180066e30     njsPool.obj
 0002:00012e58       $cppxdata$?Async_AfterGetConnection@Pool@@CAXPEAUuv_work_s@@@Z 0000000180066e58     njsPool.obj
 0002:00012e80       $cppxdata$?Async_GetConnection@Pool@@CAXPEAUuv_work_s@@@Z 0000000180066e80     njsPool.obj
 0002:00012ea8       $cppxdata$??_GpoolBaton@@QEAAPEAXI@Z 0000000180066ea8     njsPool.obj
 0002:00012ed0       $cppxdata$?GetConnection@Pool@@CAXAEBV?$FunctionCallbackInfo@VValue@v8@@@Nan@@@Z 0000000180066ed0     njsPool.obj
 0002:00012ef8       $cppxdata$?SetPoolPingInterval@Pool@@CAXV?$Local@VString@v8@@@v8@@V?$Local@VValue@v8@@@3@AEBV?$PropertyCallbackInfo@X@Nan@@@Z 0000000180066ef8     njsPool.obj
 0002:00012f20       $cppxdata$?SetStmtCacheSize@Pool@@CAXV?$Local@VString@v8@@@v8@@V?$Local@VValue@v8@@@3@AEBV?$PropertyCallbackInfo@X@Nan@@@Z 0000000180066f20     njsPool.obj
 0002:00012f48       $cppxdata$?SetConnectionsInUse@Pool@@CAXV?$Local@VString@v8@@@v8@@V?$Local@VValue@v8@@@3@AEBV?$PropertyCallbackInfo@X@Nan@@@Z 0000000180066f48     njsPool.obj
 0002:00012f70       $cppxdata$?SetConnectionsOpen@Pool@@CAXV?$Local@VString@v8@@@v8@@V?$Local@VValue@v8@@@3@AEBV?$PropertyCallbackInfo@X@Nan@@@Z 0000000180066f70     njsPool.obj
 0002:00012f98       $cppxdata$?SetPoolTimeout@Pool@@CAXV?$Local@VString@v8@@@v8@@V?$Local@VValue@v8@@@3@AEBV?$PropertyCallbackInfo@X@Nan@@@Z 0000000180066f98     njsPool.obj
 0002:00012fc0       $cppxdata$?SetPoolIncrement@Pool@@CAXV?$Local@VString@v8@@@v8@@V?$Local@VValue@v8@@@3@AEBV?$PropertyCallbackInfo@X@Nan@@@Z 0000000180066fc0     njsPool.obj
 0002:00012fe8       $cppxdata$?SetPoolMax@Pool@@CAXV?$Local@VString@v8@@@v8@@V?$Local@VValue@v8@@@3@AEBV?$PropertyCallbackInfo@X@Nan@@@Z 0000000180066fe8     njsPool.obj
 0002:00013010       $cppxdata$?SetPoolMin@Pool@@CAXV?$Local@VString@v8@@@v8@@V?$Local@VValue@v8@@@3@AEBV?$PropertyCallbackInfo@X@Nan@@@Z 0000000180067010     njsPool.obj
 0002:00013038       $cppxdata$?setPoolProperty@Pool@@CAXPEAV1@V?$basic_string@DU?$char_traits@D@std@@V?$allocator@D@2@@std@@@Z 0000000180067038     njsPool.obj
 0002:00013060       $cppxdata$?GetPoolPingInterval@Pool@@CAXV?$Local@VString@v8@@@v8@@AEBV?$PropertyCallbackInfo@VValue@v8@@@Nan@@@Z 0000000180067060     njsPool.obj
 0002:00013088       $cppxdata$?GetStmtCacheSize@Pool@@CAXV?$Local@VString@v8@@@v8@@AEBV?$PropertyCallbackInfo@VValue@v8@@@Nan@@@Z 0000000180067088     njsPool.obj
 0002:000130b0       $cppxdata$?GetConnectionsInUse@Pool@@CAXV?$Local@VString@v8@@@v8@@AEBV?$PropertyCallbackInfo@VValue@v8@@@Nan@@@Z 00000001800670b0     njsPool.obj
 0002:000130d8       $cppxdata$?GetConnectionsOpen@Pool@@CAXV?$Local@VString@v8@@@v8@@AEBV?$PropertyCallbackInfo@VValue@v8@@@Nan@@@Z 00000001800670d8     njsPool.obj
 0002:00013100       $cppxdata$?GetPoolTimeout@Pool@@CAXV?$Local@VString@v8@@@v8@@AEBV?$PropertyCallbackInfo@VValue@v8@@@Nan@@@Z 0000000180067100     njsPool.obj
 0002:00013128       $cppxdata$?GetPoolIncrement@Pool@@CAXV?$Local@VString@v8@@@v8@@AEBV?$PropertyCallbackInfo@VValue@v8@@@Nan@@@Z 0000000180067128     njsPool.obj
 0002:00013150       $cppxdata$?GetPoolMax@Pool@@CAXV?$Local@VString@v8@@@v8@@AEBV?$PropertyCallbackInfo@VValue@v8@@@Nan@@@Z 0000000180067150     njsPool.obj
 0002:00013178       $cppxdata$?GetPoolMin@Pool@@CAXV?$Local@VString@v8@@@v8@@AEBV?$PropertyCallbackInfo@VValue@v8@@@Nan@@@Z 0000000180067178     njsPool.obj
 0002:000131a0       $cppxdata$?getPoolProperty@Pool@@CA?AV?$Local@VPrimitive@v8@@@v8@@PEAV1@H@Z 00000001800671a0     njsPool.obj
 0002:000131c8       $cppxdata$?getPoolProperty@Pool@@CA?AV?$Local@VPrimitive@v8@@@v8@@PEAV1@I@Z 00000001800671c8     njsPool.obj
 0002:000131f0       $cppxdata$??_GPool@@EEAAPEAXI@Z 00000001800671f0     njsPool.obj
 0002:00013218       $cppxdata$??__F?poolTemplate_s@Pool@@2V?$Persistent@VFunctionTemplate@v8@@V?$NonCopyablePersistentTraits@VFunctionTemplate@v8@@@2@@Nan@@A@@YAXXZ 0000000180067218     njsPool.obj
 0002:00013240       $cppxdata$??0poolBaton@@QEAA@V?$Local@VFunction@v8@@@v8@@V?$Local@VObject@v8@@@2@@Z 0000000180067240     njsPool.obj
 0002:00013268       $cppxdata$?Init@Pool@@SAXV?$Local@VObject@v8@@@v8@@@Z 0000000180067268     njsPool.obj
 0002:00013290       $cppxdata$??$New@VDate@v8@@O@Nan@@YA?AV?$MaybeLocal@VDate@v8@@@v8@@O@Z 0000000180067290     njsConnection.obj
 0002:000132b8       $cppxdata$?NewLob@Connection@@CA?AV?$Local@VValue@v8@@@v8@@PEAUeBaton@@PEAVProtoILob@@_N@Z 00000001800672b8     njsConnection.obj
 0002:000132e0       $cppxdata$?cbDynBufferAllocate@Connection@@CAXPEAX_NII@Z 00000001800672e0     njsConnection.obj
 0002:00013308       $cppxdata$?Async_AfterCreateLob@Connection@@CAXPEAUuv_work_s@@@Z 0000000180067308     njsConnection.obj
 0002:00013330       $cppxdata$?Async_CreateLob@Connection@@CAXPEAUuv_work_s@@@Z 0000000180067330     njsConnection.obj
 0002:00013358       $cppxdata$?CreateLob@Connection@@CAXAEBV?$FunctionCallbackInfo@VValue@v8@@@Nan@@@Z 0000000180067358     njsConnection.obj
 0002:00013380       $cppxdata$?Async_Break@Connection@@CAXPEAUuv_work_s@@@Z 0000000180067380     njsConnection.obj
 0002:000133a8       $cppxdata$?Break@Connection@@CAXAEBV?$FunctionCallbackInfo@VValue@v8@@@Nan@@@Z 00000001800673a8     njsConnection.obj
 0002:000133d0       $cppxdata$?Async_Rollback@Connection@@CAXPEAUuv_work_s@@@Z 00000001800673d0     njsConnection.obj
 0002:000133f8       $cppxdata$?Rollback@Connection@@CAXAEBV?$FunctionCallbackInfo@VValue@v8@@@Nan@@@Z 00000001800673f8     njsConnection.obj
 0002:00013420       $cppxdata$?Async_AfterCommit@Connection@@CAXPEAUuv_work_s@@@Z 0000000180067420     njsConnection.obj
 0002:00013420       $cppxdata$?Async_AfterRollback@Connection@@CAXPEAUuv_work_s@@@Z 0000000180067420     njsConnection.obj
 0002:00013420       $cppxdata$?Async_AfterBreak@Connection@@CAXPEAUuv_work_s@@@Z 0000000180067420     njsConnection.obj
 0002:00013448       $cppxdata$?Async_Commit@Connection@@CAXPEAUuv_work_s@@@Z 0000000180067448     njsConnection.obj
 0002:00013470       $cppxdata$?Commit@Connection@@CAXAEBV?$FunctionCallbackInfo@VValue@v8@@@Nan@@@Z 0000000180067470     njsConnection.obj
 0002:00013498       $cppxdata$?Async_AfterRelease@Connection@@CAXPEAUuv_work_s@@@Z 0000000180067498     njsConnection.obj
 0002:000134c0       $cppxdata$?Async_Release@Connection@@CAXPEAUuv_work_s@@@Z 00000001800674c0     njsConnection.obj
 0002:000134e8       $cppxdata$?Release@Connection@@CAXAEBV?$FunctionCallbackInfo@VValue@v8@@@Nan@@@Z 00000001800674e8     njsConnection.obj
 0002:00013510       $cppxdata$?GetOutBindObject@Connection@@CA?AV?$Local@VValue@v8@@@v8@@PEAUeBaton@@@Z 0000000180067510     njsConnection.obj
 0002:00013538       $cppxdata$?GetOutBindArray@Connection@@CA?AV?$Local@VValue@v8@@@v8@@PEAUeBaton@@@Z 0000000180067538     njsConnection.obj
 0002:00013560       $cppxdata$?GetOutBinds@Connection@@CA?AV?$Local@VValue@v8@@@v8@@PEAUeBaton@@@Z 0000000180067560     njsConnection.obj
 0002:00013588       $cppxdata$?ToV8ArrayValue@Connection@@CA?AV?$Local@VValue@v8@@@v8@@PEAUeBaton@@PEAUBind@@K@Z 0000000180067588     njsConnection.obj
 0002:000135b0       $cppxdata$?RefCursor2V8Value@Connection@@CA?AV?$Local@VValue@v8@@@v8@@PEAUeBaton@@PEAUBind@@PEAUExtBind@@@Z 00000001800675b0     njsConnection.obj
 0002:000135d8       $cppxdata$?Define2V8Value@Connection@@CA?AV?$Local@VValue@v8@@@v8@@PEAUeBaton@@IIPEAUDefine@@PEAUExtDefine@@@Z 00000001800675d8     njsConnection.obj
 0002:00013600       $cppxdata$?Bind2V8Value@Connection@@CA?AV?$Local@VValue@v8@@@v8@@PEAUeBaton@@PEAUBind@@I@Z 0000000180067600     njsConnection.obj
 0002:00013628       $cppxdata$?ToV8Value@Connection@@CA?AV?$Local@VValue@v8@@@v8@@PEAUeBaton@@_NII@Z 0000000180067628     njsConnection.obj
 0002:00013650       $cppxdata$?GetRows@Connection@@SA?AV?$Local@VValue@v8@@@v8@@PEAUeBaton@@@Z 0000000180067650     njsConnection.obj
 0002:00013678       $cppxdata$?GetMetaData@Connection@@SA?AV?$Local@VValue@v8@@@v8@@PEBUMetaInfo@@I_N@Z 0000000180067678     njsConnection.obj
 0002:000136a0       $cppxdata$?Async_AfterExecute@Connection@@CAXPEAUuv_work_s@@@Z 00000001800676a0     njsConnection.obj
 0002:000136c8       $cppxdata$?Descr2protoILob@Connection@@CAXPEAUeBaton@@II@Z 00000001800676c8     njsConnection.obj
 0002:000136f0       $cppxdata$?PrepareAndBind@Connection@@CAXPEAUeBaton@@@Z 00000001800676f0     njsConnection.obj
 0002:00013718       $cppxdata$?Async_Execute@Connection@@CAXPEAUuv_work_s@@@Z 0000000180067718     njsConnection.obj
 0002:00013740       $cppxdata$?GetInBindParamsArray@Connection@@CAXV?$Local@VArray@v8@@@v8@@PEAUBind@@PEAUeBaton@@@Z 0000000180067740     njsConnection.obj
 0002:00013768       $cppxdata$?GetInBindParamsScalar@Connection@@CAXV?$Local@VValue@v8@@@v8@@PEAUBind@@PEAUeBaton@@@Z 0000000180067768     njsConnection.obj
 0002:00013790       $cppxdata$?GetInBindParams@Connection@@CAXV?$Local@VValue@v8@@@v8@@PEAUBind@@PEAUeBaton@@@Z 0000000180067790     njsConnection.obj
 0002:000137b8       $cppxdata$?GetOutBindParams@Connection@@CAXGPEAUBind@@PEAUeBaton@@@Z 00000001800677b8     njsConnection.obj
 0002:000137e0       $cppxdata$?GetBindUnit@Connection@@CAXV?$Local@VValue@v8@@@v8@@PEAUBind@@_NPEAUeBaton@@@Z 00000001800677e0     njsConnection.obj
 0002:00013808       $cppxdata$?GetBinds@Connection@@CAXV?$Local@VObject@v8@@@v8@@PEAUeBaton@@@Z 0000000180067808     njsConnection.obj
 0002:00013830       $cppxdata$?ProcessOptions@Connection@@CAXAEBV?$FunctionCallbackInfo@VValue@v8@@@Nan@@IPEAUeBaton@@@Z 0000000180067830     njsConnection.obj
 0002:00013858       $cppxdata$?ProcessBinds@Connection@@CAXAEBV?$FunctionCallbackInfo@VValue@v8@@@Nan@@IPEAUeBaton@@@Z 0000000180067858     njsConnection.obj
 0002:00013880       $cppxdata$?Execute@Connection@@CAXAEBV?$FunctionCallbackInfo@VValue@v8@@@Nan@@@Z 0000000180067880     njsConnection.obj
 0002:000138a8       $cppxdata$?SetOracleServerVersion@Connection@@CAXV?$Local@VString@v8@@@v8@@V?$Local@VValue@v8@@@3@AEBV?$PropertyCallbackInfo@X@Nan@@@Z 00000001800678a8     njsConnection.obj
 0002:000138d0       $cppxdata$?GetOracleServerVersion@Connection@@CAXV?$Local@VString@v8@@@v8@@AEBV?$PropertyCallbackInfo@VValue@v8@@@Nan@@@Z 00000001800678d0     njsConnection.obj
 0002:000138f8       $cppxdata$?SetAction@Connection@@CAXV?$Local@VString@v8@@@v8@@V?$Local@VValue@v8@@@3@AEBV?$PropertyCallbackInfo@X@Nan@@@Z 00000001800678f8     njsConnection.obj
 0002:00013920       $cppxdata$?SetModule@Connection@@CAXV?$Local@VString@v8@@@v8@@V?$Local@VValue@v8@@@3@AEBV?$PropertyCallbackInfo@X@Nan@@@Z 0000000180067920     njsConnection.obj
 0002:00013948       $cppxdata$?SetClientId@Connection@@CAXV?$Local@VString@v8@@@v8@@V?$Local@VValue@v8@@@3@AEBV?$PropertyCallbackInfo@X@Nan@@@Z 0000000180067948     njsConnection.obj
 0002:00013970       $cppxdata$?SetStmtCacheSize@Connection@@CAXV?$Local@VString@v8@@@v8@@V?$Local@VValue@v8@@@3@AEBV?$PropertyCallbackInfo@X@Nan@@@Z 0000000180067970     njsConnection.obj
 0002:00013998       $cppxdata$?GetStmtCacheSize@Connection@@CAXV?$Local@VString@v8@@@v8@@AEBV?$PropertyCallbackInfo@VValue@v8@@@Nan@@@Z 0000000180067998     njsConnection.obj
 0002:000139c0       $cppxdata$?connectionPropertyException@Connection@@CAXPEAV1@W4NJSErrorType@@V?$basic_string@DU?$char_traits@D@std@@V?$allocator@D@2@@std@@@Z 00000001800679c0     njsConnection.obj
 0002:000139e8       $cppxdata$??_GConnection@@EEAAPEAXI@Z 00000001800679e8     njsConnection.obj
 0002:00013a10       $cppxdata$??__F?connectionTemplate_s@Connection@@2V?$Persistent@VFunctionTemplate@v8@@V?$NonCopyablePersistentTraits@VFunctionTemplate@v8@@@2@@Nan@@A@@YAXXZ 0000000180067a10     njsConnection.obj
 0002:00013a38       $cppxdata$??_EfetchInfo@@QEAAPEAXI@Z 0000000180067a38     njsConnection.obj
 0002:00013a60       $cppxdata$??_EMetaInfo@@QEAAPEAXI@Z 0000000180067a60     njsConnection.obj
 0002:00013a88       $cppxdata$??1eBaton@@QEAA@XZ 0000000180067a88     njsConnection.obj
 0002:00013ab0       $cppxdata$??0eBaton@@QEAA@AEAIV?$Local@VFunction@v8@@@v8@@V?$Local@VObject@v8@@@2@@Z 0000000180067ab0     njsConnection.obj
 0002:00013ad8       $cppxdata$?ForceSet@Nan@@YA?AV?$Maybe@_N@v8@@V?$Local@VObject@v8@@@3@V?$Local@VValue@v8@@@3@1W4PropertyAttribute@3@@Z 0000000180067ad8     njsConnection.obj
 0002:00013b00       $cppxdata$?Init@Connection@@SAXV?$Local@VObject@v8@@@v8@@@Z 0000000180067b00     njsConnection.obj
 0002:00013b28       $cppxdata$?Async_AfterClose@ResultSet@@CAXPEAUuv_work_s@@@Z 0000000180067b28     njsResultSet.obj
 0002:00013b50       $cppxdata$?Async_Close@ResultSet@@CAXPEAUuv_work_s@@@Z 0000000180067b50     njsResultSet.obj
 0002:00013b78       $cppxdata$?Close@ResultSet@@CAXAEBV?$FunctionCallbackInfo@VValue@v8@@@Nan@@@Z 0000000180067b78     njsResultSet.obj
 0002:00013ba0       $cppxdata$?Async_AfterGetRows@ResultSet@@CAXPEAUuv_work_s@@@Z 0000000180067ba0     njsResultSet.obj
 0002:00013bc8       $cppxdata$?Async_GetRows@ResultSet@@CAXPEAUuv_work_s@@@Z 0000000180067bc8     njsResultSet.obj
 0002:00013bf0       $cppxdata$??_GrsBaton@@QEAAPEAXI@Z 0000000180067bf0     njsResultSet.obj
 0002:00013c18       $cppxdata$?GetRowsCommon@ResultSet@@CAXPEAUrsBaton@@@Z 0000000180067c18     njsResultSet.obj
 0002:00013c40       $cppxdata$?GetRows@ResultSet@@CAXAEBV?$FunctionCallbackInfo@VValue@v8@@@Nan@@@Z 0000000180067c40     njsResultSet.obj
 0002:00013c68       $cppxdata$?GetRow@ResultSet@@CAXAEBV?$FunctionCallbackInfo@VValue@v8@@@Nan@@@Z 0000000180067c68     njsResultSet.obj
 0002:00013c90       $cppxdata$?SetMetaData@ResultSet@@CAXV?$Local@VString@v8@@@v8@@V?$Local@VValue@v8@@@3@AEBV?$PropertyCallbackInfo@X@Nan@@@Z 0000000180067c90     njsResultSet.obj
 0002:00013cb8       $cppxdata$?GetMetaData@ResultSet@@CAXV?$Local@VString@v8@@@v8@@AEBV?$PropertyCallbackInfo@VValue@v8@@@Nan@@@Z 0000000180067cb8     njsResultSet.obj
 0002:00013ce0       $cppxdata$??__F?resultSetTemplate_s@ResultSet@@2V?$Persistent@VFunctionTemplate@v8@@V?$NonCopyablePersistentTraits@VFunctionTemplate@v8@@@2@@Nan@@A@@YAXXZ 0000000180067ce0     njsResultSet.obj
 0002:00013d08       $cppxdata$??_GResultSet@@UEAAPEAXI@Z 0000000180067d08     njsResultSet.obj
 0002:00013d30       $cppxdata$??0rsBaton@@QEAA@AEAIV?$Local@VFunction@v8@@@v8@@V?$Local@VObject@v8@@@2@2@Z 0000000180067d30     njsResultSet.obj
 0002:00013d58       $cppxdata$?setResultSet@ResultSet@@QEAAXPEAVStmt@dpi@@PEAUeBaton@@IPEBUMetaInfo@@@Z 0000000180067d58     njsResultSet.obj
 0002:00013d80       $cppxdata$?Init@ResultSet@@SAXV?$Local@VObject@v8@@@v8@@@Z 0000000180067d80     njsResultSet.obj
 0002:00013da8       $cppxdata$?getErrorMsg@NJSMessages@@SA?AV?$basic_string@DU?$char_traits@D@std@@V?$allocator@D@2@@std@@W4NJSErrorType@@ZZ 0000000180067da8     njsMessages.obj
 0002:00013dd0       $cppxdata$?Async_AfterWrite@ILob@@CAXPEAUuv_work_s@@@Z 0000000180067dd0     njsIntLob.obj
 0002:00013df8       $cppxdata$?Async_Write@ILob@@CAXPEAUuv_work_s@@@Z 0000000180067df8     njsIntLob.obj
 0002:00013e20       $cppxdata$?Write@ILob@@CAXAEBV?$FunctionCallbackInfo@VValue@v8@@@Nan@@@Z 0000000180067e20     njsIntLob.obj
 0002:00013e48       $cppxdata$?Async_AfterRead@ILob@@CAXPEAUuv_work_s@@@Z 0000000180067e48     njsIntLob.obj
 0002:00013e70       $cppxdata$?Async_Read@ILob@@CAXPEAUuv_work_s@@@Z 0000000180067e70     njsIntLob.obj
 0002:00013e98       $cppxdata$?Read@ILob@@CAXAEBV?$FunctionCallbackInfo@VValue@v8@@@Nan@@@Z 0000000180067e98     njsIntLob.obj
 0002:00013ec0       $cppxdata$?SetIsValid@ILob@@CAXV?$Local@VString@v8@@@v8@@V?$Local@VValue@v8@@@3@AEBV?$PropertyCallbackInfo@X@Nan@@@Z 0000000180067ec0     njsIntLob.obj
 0002:00013ee8       $cppxdata$?GetIsValid@ILob@@CAXV?$Local@VString@v8@@@v8@@AEBV?$PropertyCallbackInfo@VValue@v8@@@Nan@@@Z 0000000180067ee8     njsIntLob.obj
 0002:00013f10       $cppxdata$?SetIsAutoCloseLob@ILob@@CAXV?$Local@VString@v8@@@v8@@V?$Local@VValue@v8@@@3@AEBV?$PropertyCallbackInfo@X@Nan@@@Z 0000000180067f10     njsIntLob.obj
 0002:00013f38       $cppxdata$?GetIsAutoCloseLob@ILob@@CAXV?$Local@VString@v8@@@v8@@AEBV?$PropertyCallbackInfo@VValue@v8@@@Nan@@@Z 0000000180067f38     njsIntLob.obj
 0002:00013f60       $cppxdata$?SetType@ILob@@CAXV?$Local@VString@v8@@@v8@@V?$Local@VValue@v8@@@3@AEBV?$PropertyCallbackInfo@X@Nan@@@Z 0000000180067f60     njsIntLob.obj
 0002:00013f88       $cppxdata$?GetType@ILob@@CAXV?$Local@VString@v8@@@v8@@AEBV?$PropertyCallbackInfo@VValue@v8@@@Nan@@@Z 0000000180067f88     njsIntLob.obj
 0002:00013fb0       $cppxdata$?SetOffset@ILob@@CAXV?$Local@VString@v8@@@v8@@V?$Local@VValue@v8@@@3@AEBV?$PropertyCallbackInfo@X@Nan@@@Z 0000000180067fb0     njsIntLob.obj
 0002:00013fd8       $cppxdata$?GetOffset@ILob@@CAXV?$Local@VString@v8@@@v8@@AEBV?$PropertyCallbackInfo@VValue@v8@@@Nan@@@Z 0000000180067fd8     njsIntLob.obj
 0002:00014000       $cppxdata$?SetPieceSize@ILob@@CAXV?$Local@VString@v8@@@v8@@V?$Local@VValue@v8@@@3@AEBV?$PropertyCallbackInfo@X@Nan@@@Z 0000000180068000     njsIntLob.obj
 0002:00014028       $cppxdata$?GetPieceSize@ILob@@CAXV?$Local@VString@v8@@@v8@@AEBV?$PropertyCallbackInfo@VValue@v8@@@Nan@@@Z 0000000180068028     njsIntLob.obj
 0002:00014050       $cppxdata$?SetLength@ILob@@CAXV?$Local@VString@v8@@@v8@@V?$Local@VValue@v8@@@3@AEBV?$PropertyCallbackInfo@X@Nan@@@Z 0000000180068050     njsIntLob.obj
 0002:00014078       $cppxdata$?GetLength@ILob@@CAXV?$Local@VString@v8@@@v8@@AEBV?$PropertyCallbackInfo@VValue@v8@@@Nan@@@Z 0000000180068078     njsIntLob.obj
 0002:000140a0       $cppxdata$?SetChunkSize@ILob@@CAXV?$Local@VString@v8@@@v8@@V?$Local@VValue@v8@@@3@AEBV?$PropertyCallbackInfo@X@Nan@@@Z 00000001800680a0     njsIntLob.obj
 0002:000140c8       $cppxdata$?GetChunkSize@ILob@@CAXV?$Local@VString@v8@@@v8@@AEBV?$PropertyCallbackInfo@VValue@v8@@@Nan@@@Z 00000001800680c8     njsIntLob.obj
 0002:000140f0       $cppxdata$?lobPropertyException@ILob@@CAXPEAV1@W4NJSErrorType@@V?$basic_string@DU?$char_traits@D@std@@V?$allocator@D@2@@std@@@Z 00000001800680f0     njsIntLob.obj
 0002:00014118       $cppxdata$?Async_AfterClose@ILob@@CAXPEAUuv_work_s@@@Z 0000000180068118     njsIntLob.obj
 0002:00014140       $cppxdata$??_GLobBaton@@QEAAPEAXI@Z 0000000180068140     njsIntLob.obj
 0002:00014168       $cppxdata$?Close@ILob@@CAXAEBV?$FunctionCallbackInfo@VValue@v8@@@Nan@@@Z 0000000180068168     njsIntLob.obj
 0002:00014190       $cppxdata$?Release@ILob@@CAXAEBV?$FunctionCallbackInfo@VValue@v8@@@Nan@@@Z 0000000180068190     njsIntLob.obj
 0002:000141b8       $cppxdata$??_GILob@@EEAAPEAXI@Z 00000001800681b8     njsIntLob.obj
 0002:000141e0       $cppxdata$??__F?iLobTemplate_s@ILob@@2V?$Persistent@VFunctionTemplate@v8@@V?$NonCopyablePersistentTraits@VFunctionTemplate@v8@@@2@@Nan@@A@@YAXXZ 00000001800681e0     njsIntLob.obj
 0002:00014208       $cppxdata$??0LobBaton@@QEAA@AEAIV?$Local@VFunction@v8@@@v8@@V?$Local@VObject@v8@@@2@@Z 0000000180068208     njsIntLob.obj
 0002:00014230       $cppxdata$??0ProtoILob@@QEAA@PEAUeBaton@@PEAUDescriptor@dpi@@G@Z 0000000180068230     njsIntLob.obj
 0002:00014258       $cppxdata$?cleanupDPI@ILob@@QEAAXXZ 0000000180068258     njsIntLob.obj
 0002:00014280       $cppxdata$?hasILobInstance@ILob@@SA_NV?$Local@VObject@v8@@@v8@@@Z 0000000180068280     njsIntLob.obj
 0002:000142a8       $cppxdata$?setILob@ILob@@QEAAXPEAUeBaton@@PEAVProtoILob@@_N@Z 00000001800682a8     njsIntLob.obj
 0002:000142d0       $cppxdata$?Init@ILob@@SAXV?$Local@VObject@v8@@@v8@@@Z 00000001800682d0     njsIntLob.obj
 0002:000142f8       $cppxdata$?getConnection@EnvImpl@@UEAAPEAVConn@dpi@@AEBV?$basic_string@DU?$char_traits@D@std@@V?$allocator@D@2@@std@@00H0_NW4DBPrivileges@3@@Z 00000001800682f8     dpiEnvImpl.obj
 0002:00014320       $cppxdata$?createPool@EnvImpl@@UEAAPEAVSPool@dpi@@AEBV?$basic_string@DU?$char_traits@D@std@@V?$allocator@D@2@@std@@00HHHHH_N1H@Z 0000000180068320     dpiEnvImpl.obj
 0002:00014348       $cppxdata$??0ExceptionImpl@@QEAA@AEBV0@@Z 0000000180068348     dpiEnvImpl.obj
 0002:00014370       $cppxdata$??0EnvImpl@@QEAA@AEBV?$basic_string@DU?$char_traits@D@std@@V?$allocator@D@2@@std@@II@Z 0000000180068370     dpiEnvImpl.obj
 0002:00014398       $cppxdata$??$_Insert_string@DU?$char_traits@D@std@@_K@std@@YAAEAV?$basic_ostream@DU?$char_traits@D@std@@@0@AEAV10@QEBD_K@Z 0000000180068398     dpiExceptionImpl.obj
 0002:000143c0       $cppxdata$??0ExceptionImpl@@QEAA@PEBDH0@Z 00000001800683c0     dpiExceptionImpl.obj
 0002:000143e8       $cppxdata$??0ExceptionImpl@@QEAA@W4DpiError@dpi@@@Z 00000001800683e8     dpiExceptionImpl.obj
 0002:00014410       $cppxdata$?getStmt@ConnImpl@@UEAAPEAVStmt@dpi@@AEBV?$basic_string@DU?$char_traits@D@std@@V?$allocator@D@2@@std@@@Z 0000000180068410     dpiConnImpl.obj
 0002:00014438       $cppxdata$??_GConnImpl@@UEAAPEAXI@Z 0000000180068438     dpiConnImpl.obj
 0002:00014460       $cppxdata$??0ConnImpl@@QEAA@PEAVPoolImpl@@PEAUOCIEnv@@_NPEAEIAEBV?$basic_string@DU?$char_traits@D@std@@V?$allocator@D@2@@std@@444HW4DBPrivileges@dpi@@H@Z 0000000180068460     dpiConnImpl.obj
 0002:00014488       $cppxdata$??0ConnImpl@@QEAA@PEAVEnvImpl@@PEAUOCIEnv@@_NIAEBV?$basic_string@DU?$char_traits@D@std@@V?$allocator@D@2@@std@@333W4DBPrivileges@dpi@@@Z 0000000180068488     dpiConnImpl.obj
 0002:000144b0       $cppxdata$??_GDateTimeArrayImpl@dpi@@UEAAPEAXI@Z 00000001800684b0     dpiDateTimeArrayImpl.obj
 0002:000144d8       $cppxdata$?getConnection@PoolImpl@@UEAAPEAVConn@dpi@@AEBV?$basic_string@DU?$char_traits@D@std@@V?$allocator@D@2@@std@@000HW4DBPrivileges@3@@Z 00000001800684d8     dpiPoolImpl.obj
 0002:00014500       $cppxdata$??0PoolImpl@@QEAA@PEAVEnvImpl@@PEAUOCIEnv@@AEBV?$basic_string@DU?$char_traits@D@std@@V?$allocator@D@2@@std@@22HHHH_NH3H@Z 0000000180068500     dpiPoolImpl.obj
 0002:00014528       $cppxdata$??_GStmtImpl@@UEAAPEAXI@Z 0000000180068528     dpiStmtImpl.obj
 0002:00014550       $cppxdata$??0StmtImpl@@QEAA@PEAUOCIEnv@@PEAVConnImpl@@PEAUOCISvcCtx@@AEBV?$basic_string@DU?$char_traits@D@std@@V?$allocator@D@2@@std@@@Z 0000000180068550     dpiStmtImpl.obj
 0002:000153d0       $unwind$swprintf           00000001800693d0     libucrt:assert.obj
 0002:000153d0       $unwind$sprintf_s          00000001800693d0     njsOracle.obj
 0002:000153e0       $unwind$?fetch@StmtImpl@@UEAAXI@Z 00000001800693e0     dpiStmtImpl.obj
 0002:000153e0       $unwind$??$common_xtox_s@K_W@@YAHKQEA_W_KI_N@Z 00000001800693e0     libucrt:xtoa.obj
 0002:000153e0       $unwind$?rowsFetched@StmtImpl@@UEBAIXZ 00000001800693e0     dpiStmtImpl.obj
 0002:000153e0       $unwind$?connectionsInUse@PoolImpl@@UEBAIXZ 00000001800693e0     dpiPoolImpl.obj
 0002:000153e0       $unwind$__stdio_common_vsprintf_s 00000001800693e0     libucrt:output.obj
 0002:000153e0       $unwind$?allocHandle@EnvImpl@@UEAAPEAUDpiHandle@dpi@@W4HandleType@3@@Z 00000001800693e0     dpiEnvImpl.obj
 0002:000153e0       $unwind$??0length_error@std@@QEAA@PEBD@Z 00000001800693e0     libcpmt:xthrow.obj
 0002:000153e0       $unwind$?_Raise@exception@stdext@@QEBAXXZ 00000001800693e0     njsOracle.obj
 0002:000153e0       $unwind$strtol             00000001800693e0     libucrt:strtox.obj
 0002:000153e0       $unwind$?connectionsOpen@PoolImpl@@UEBAIXZ 00000001800693e0     dpiPoolImpl.obj
 0002:000153e0       $unwind$?allocDescriptorArray@EnvImpl@@UEAAXW4DescriptorType@dpi@@IQEAPEAUDescriptor@3@@Z 00000001800693e0     dpiEnvImpl.obj
 0002:000153e0       $unwind$?stmtCacheSize@ConnImpl@@UEBAIXZ 00000001800693e0     dpiConnImpl.obj
 0002:000153e0       $unwind$??0out_of_range@std@@QEAA@PEBD@Z 00000001800693e0     libcpmt:xthrow.obj
 0002:000153e0       $unwind$?lobPrefetchSize@ConnImpl@@UEBAIXZ 00000001800693e0     dpiConnImpl.obj
 0002:000153e0       $unwind$?rowsAffected@StmtImpl@@UEBA_KXZ 00000001800693e0     dpiStmtImpl.obj
 0002:000153e0       $unwind$wcstol             00000001800693e0     libucrt:strtox.obj
 0002:000153e0       $unwind$?allocDescriptor@EnvImpl@@UEAAPEAUDescriptor@dpi@@W4DescriptorType@3@@Z 00000001800693e0     dpiEnvImpl.obj
 0002:000153e0       $unwind$?equivalent@error_category@std@@UEBA_NHAEBVerror_condition@2@@Z 00000001800693e0     njsOracle.obj
 0002:000153e0       $unwind$?action@ConnImpl@@UEAAXAEBV?$basic_string@DU?$char_traits@D@std@@V?$allocator@D@2@@std@@@Z 00000001800693e0     dpiConnImpl.obj
 0002:000153e0       $unwind$?clientId@ConnImpl@@UEAAXAEBV?$basic_string@DU?$char_traits@D@std@@V?$allocator@D@2@@std@@@Z 00000001800693e0     dpiConnImpl.obj
 0002:000153e0       $unwind$?module@ConnImpl@@UEAAXAEBV?$basic_string@DU?$char_traits@D@std@@V?$allocator@D@2@@std@@@Z 00000001800693e0     dpiConnImpl.obj
 0002:000153e8       $unwind$??1?$basic_streambuf@DU?$char_traits@D@std@@@std@@UEAA@XZ 00000001800693e8     njsOracle.obj
 0002:000153e8       $unwind$??_G_Iostream_error_category@std@@UEAAPEAXI@Z 00000001800693e8     njsOracle.obj
 0002:000153e8       $unwind$_onexit            00000001800693e8     LIBCMT:utility.obj
 0002:000153e8       $unwind$__acrt_FlsGetValue 00000001800693e8     libucrt:winapi_thunks.obj
 0002:000153e8       $unwind$??_G?$num_put@DV?$ostreambuf_iterator@DU?$char_traits@D@std@@@std@@@std@@MEAAPEAXI@Z 00000001800693e8     njsOracle.obj
 0002:000153e8       $unwind$?do_truename@?$numpunct@D@std@@MEBA?AV?$basic_string@DU?$char_traits@D@std@@V?$allocator@D@2@@2@XZ 00000001800693e8     njsOracle.obj
 0002:000153e8       $unwind$?do_falsename@?$numpunct@D@std@@MEBA?AV?$basic_string@DU?$char_traits@D@std@@V?$allocator@D@2@@2@XZ 00000001800693e8     njsOracle.obj
 0002:000153e8       $unwind$_clearfp           00000001800693e8     libucrt:ieee.obj
 0002:000153e8       $unwind$?_Ios_base_dtor@ios_base@std@@CAXPEAV12@@Z 00000001800693e8     libcpmt:ios.obj
 0002:000153e8       $unwind$?do_grouping@?$numpunct@D@std@@MEBA?AV?$basic_string@DU?$char_traits@D@std@@V?$allocator@D@2@@2@XZ 00000001800693e8     njsOracle.obj
 0002:000153e8       $unwind$??1ExceptionImpl@@UEAA@XZ 00000001800693e8     dpiExceptionImpl.obj
 0002:000153e8       $unwind$?type_case_integer@?$output_processor@_WV?$string_output_adapter@_W@__crt_stdio_output@@V?$standard_base@_WV?$string_output_adapter@_W@__crt_stdio_output@@@2@@__crt_stdio_output@@AEAA_NI_N@Z 00000001800693e8     libucrt:output.obj
 0002:000153e8       $unwind$_IsExceptionObjectToBeDestroyed 00000001800693e8     libvcruntime:ehhelpers.obj
 0002:000153e8       $unwind$__acrt_IsValidLocaleName 00000001800693e8     libucrt:winapi_thunks.obj
 0002:000153e8       $unwind$initialize_pointers 00000001800693e8     libucrt:initialization.obj
 0002:000153e8       $unwind$??_GStmt@dpi@@UEAAPEAXI@Z 00000001800693e8     dpiStmtImpl.obj
 0002:000153e8       $unwind$?initialize_pointers@@YAHXZ 00000001800693e8     libcpmt:winapisupp.obj
 0002:000153e8       $unwind$??_GEnv@dpi@@MEAAPEAXI@Z 00000001800693e8     dpiEnv.obj
 0002:000153e8       $unwind$??1?$vector@PEAV?$Persistent@VObject@v8@@V?$NonCopyablePersistentTraits@VObject@v8@@@2@@Nan@@V?$allocator@PEAV?$Persistent@VObject@v8@@V?$NonCopyablePersistentTraits@VObject@v8@@@2@@Nan@@@std@@@std@@QEAA@XZ 00000001800693e8     njsConnection.obj
 0002:000153e8       $unwind$_clrfp             00000001800693e8     libucrt:fpctrl.obj
 0002:000153e8       $unwind$uninitialize_allocated_memory 00000001800693e8     libucrt:initialization.obj
 0002:000153e8       $unwind$?uflow@?$basic_streambuf@DU?$char_traits@D@std@@@std@@MEAAHXZ 00000001800693e8     njsOracle.obj
 0002:000153e8       $unwind$_fflush_nolock     00000001800693e8     libucrt:fflush.obj
 0002:000153e8       $unwind$__acrt_AppPolicyGetProcessTerminationMethodInternal 00000001800693e8     libucrt:winapi_thunks.obj
 0002:000153e8       $unwind$??_Gfailure@ios_base@std@@UEAAPEAXI@Z 00000001800693e8     njsOracle.obj
 0002:000153e8       $unwind$_callnewh          00000001800693e8     libucrt:new_handler.obj
 0002:000153e8       $unwind$??_G_Facet_base@std@@UEAAPEAXI@Z 00000001800693e8     njsOracle.obj
 0002:000153e8       $unwind$__acrt_AppPolicyGetShowDeveloperDiagnosticInternal 00000001800693e8     libucrt:winapi_thunks.obj
 0002:000153e8       $unwind$__acrt_get_developer_information_policy 00000001800693e8     libucrt:win_policies.obj
 0002:000153e8       $unwind$??0out_of_range@std@@QEAA@AEBV01@@Z 00000001800693e8     libcpmt:xthrow.obj
 0002:000153e8       $unwind$?message@_Iostream_error_category@std@@UEBA?AV?$basic_string@DU?$char_traits@D@std@@V?$allocator@D@2@@2@H@Z 00000001800693e8     njsOracle.obj
 0002:000153e8       $unwind$__acrt_AppPolicyGetWindowingModelInternal 00000001800693e8     libucrt:winapi_thunks.obj
 0002:000153e8       $unwind$??0fetchInfo@@QEAA@XZ 00000001800693e8     njsConnection.obj
 0002:000153e8       $unwind$strcpy_s           00000001800693e8     libucrt:strcpy_s.obj
 0002:000153e8       $unwind$__acrt_get_process_end_policy 00000001800693e8     libucrt:win_policies.obj
 0002:000153e8       $unwind$__acrt_getptd_head 00000001800693e8     libucrt:per_thread_data.obj
 0002:000153e8       $unwind$wcscat_s           00000001800693e8     libucrt:wcscat_s.obj
 0002:000153e8       $unwind$_Init_thread_notify 00000001800693e8     LIBCMT:thread_safe_statics.obj
 0002:000153e8       $unwind$??1MetaInfo@@QEAA@XZ 00000001800693e8     njsConnection.obj
 0002:000153e8       $unwind$?Ref@ObjectWrap@Nan@@MEAAXXZ 00000001800693e8     njsOracle.obj
 0002:000153e8       $unwind$??0length_error@std@@QEAA@AEBV01@@Z 00000001800693e8     libcpmt:xthrow.obj
 0002:000153e8       $unwind$??1fetchInfo@@QEAA@XZ 00000001800693e8     njsConnection.obj
 0002:000153e8       $unwind$??_GException@dpi@@UEAAPEAXI@Z 00000001800693e8     dpiEnvImpl.obj
 0002:000153e8       $unwind$?Unref@ObjectWrap@Nan@@MEAAXXZ 00000001800693e8     njsOracle.obj
 0002:000153e8       $unwind$__vcrt_freeptd     00000001800693e8     libvcruntime:per_thread_data.obj
 0002:000153e8       $unwind$?GetValueType@Connection@@CA?AW4ValueType@@V?$Local@VValue@v8@@@v8@@@Z 00000001800693e8     njsConnection.obj
 0002:000153e8       $unwind$__acrt_FlsFree     00000001800693e8     libucrt:winapi_thunks.obj
 0002:000153e8       $unwind$??_GconnectionBaton@@QEAAPEAXI@Z 00000001800693e8     njsOracle.obj
 0002:000153e8       $unwind$__acrt_get_parent_window 00000001800693e8     libucrt:winapi_thunks.obj
 0002:000153e8       $unwind$__acrt_initialize_locks 00000001800693e8     libucrt:locks.obj
 0002:000153e8       $unwind$??0logic_error@std@@QEAA@AEBV01@@Z 00000001800693e8     libcpmt:xthrow.obj
 0002:000153e8       $unwind$__acrt_get_windowing_model_policy 00000001800693e8     libucrt:win_policies.obj
 0002:000153e8       $unwind$?_Facet_Register@std@@YAXPEAV_Facet_base@1@@Z 00000001800693e8     libcpmt:locale0.obj
 0002:000153e8       $unwind$wcscpy_s           00000001800693e8     libucrt:wcscpy_s.obj
 0002:000153e8       $unwind$_malloc_base       00000001800693e8     libucrt:malloc_base.obj
 0002:000153e8       $unwind$__acrt_uninitialize_locks 00000001800693e8     libucrt:locks.obj
 0002:000153e8       $unwind$?New@Pool@@CAXAEBV?$FunctionCallbackInfo@VValue@v8@@@Nan@@@Z 00000001800693e8     njsPool.obj
 0002:000153e8       $unwind$_set_statfp        00000001800693e8     libucrt:fpctrl.obj
 0002:000153e8       $unwind$_Getctype          00000001800693e8     libcpmt:_tolower.obj
 0002:000153e8       $unwind$??0bad_alloc@std@@QEAA@AEBV01@@Z 00000001800693e8     libcpmt:xthrow.obj
 0002:000153e8       $unwind$?WeakCallback@ObjectWrap@Nan@@CAXAEBV?$WeakCallbackInfo@VObjectWrap@Nan@@@v8@@@Z 00000001800693e8     njsOracle.obj
 0002:000153e8       $unwind$??0bad_exception@std@@QEAA@AEBV01@@Z 00000001800693e8     libvcruntime:frame.obj
 0002:000153e8       $unwind$__acrt_stdio_allocate_buffer_nolock 00000001800693e8     libucrt:_getbuf.obj
 0002:000153e8       $unwind$__acrt_FlsAlloc    00000001800693e8     libucrt:winapi_thunks.obj
 0002:000153e8       $unwind$?do_narrow@?$ctype@D@std@@MEBAPEBDPEBD0DPEAD@Z 00000001800693e8     njsOracle.obj
 0002:000153e8       $unwind$__acrt_stdio_free_buffer_nolock 00000001800693e8     libucrt:_freebuf.obj
 0002:000153e8       $unwind$??0exception@std@@QEAA@AEBV01@@Z 00000001800693e8     libcpmt:xonce.obj
 0002:000153e8       $unwind$_calloc_base       00000001800693e8     libucrt:calloc_base.obj
 0002:000153e8       $unwind$_purecall          00000001800693e8     libvcruntime:purevirt.obj
 0002:000153e8       $unwind$??_GConn@dpi@@MEAAPEAXI@Z 00000001800693e8     dpiConnImpl.obj
 0002:000153e8       $unwind$?terminate@EnvImpl@@UEAAXXZ 00000001800693e8     dpiEnvImpl.obj
 0002:000153e8       $unwind$__acrt_fp_strflt_to_string 00000001800693e8     libucrt:_fptostr.obj
 0002:000153e8       $unwind$__acrt_uninitialize_winapi_thunks 00000001800693e8     libucrt:winapi_thunks.obj
 0002:000153e8       $unwind$?New@Connection@@CAXAEBV?$FunctionCallbackInfo@VValue@v8@@@Nan@@@Z 00000001800693e8     njsConnection.obj
 0002:000153e8       $unwind$?state_case_normal@?$output_processor@DV?$string_output_adapter@D@__crt_stdio_output@@V?$format_validation_base@DV?$string_output_adapter@D@__crt_stdio_output@@@2@@__crt_stdio_output@@AEAA_NXZ 00000001800693e8     libucrt:output.obj
 0002:000153e8       $unwind$??1?$vector@PEAUExtDefine@@V?$allocator@PEAUExtDefine@@@std@@@std@@QEAA@XZ 00000001800693e8     njsConnection.obj
 0002:000153e8       $unwind$??_GDateTimeArray@dpi@@UEAAPEAXI@Z 00000001800693e8     dpiDateTimeArrayImpl.obj
 0002:000153e8       $unwind$__acrt_allocate_buffer_for_argv 00000001800693e8     libucrt:argv_parsing.obj
 0002:000153e8       $unwind$__raise_securityfailure 00000001800693e8     LIBCMT:gs_report.obj
 0002:000153e8       $unwind$??_G_System_error@std@@UEAAPEAXI@Z 00000001800693e8     njsOracle.obj
 0002:000153e8       $unwind$?commit@ConnImpl@@UEAAXXZ 00000001800693e8     dpiConnImpl.obj
 0002:000153e8       $unwind$__scrt_release_startup_lock 00000001800693e8     LIBCMT:utility.obj
 0002:000153e8       $unwind$??1?$vector@PEAUExtBind@@V?$allocator@PEAUExtBind@@@std@@@std@@QEAA@XZ 00000001800693e8     njsConnection.obj
 0002:000153e8       $unwind$?state_case_normal@?$output_processor@DV?$string_output_adapter@D@__crt_stdio_output@@V?$standard_base@DV?$string_output_adapter@D@__crt_stdio_output@@@2@@__crt_stdio_output@@AEAA_NXZ 00000001800693e8     libucrt:output.obj
 0002:000153e8       $unwind$__acrt_freeptd     00000001800693e8     libucrt:per_thread_data.obj
 0002:000153e8       $unwind$??0_Lockit@std@@QEAA@H@Z 00000001800693e8     libcpmt:xlock.obj
 0002:000153e8       $unwind$??_GSPool@dpi@@MEAAPEAXI@Z 00000001800693e8     dpiPoolImpl.obj
 0002:000153e8       $unwind$?try_cor_exit_process@@YAXI@Z 00000001800693e8     libucrt:exit.obj
 0002:000153e8       $unwind$_SetThrowImageBase 00000001800693e8     libvcruntime:risctrnsctrl.obj
 0002:000153e8       $unwind$__std_exception_destroy 00000001800693e8     libvcruntime:std_exception.obj
 0002:000153e8       $unwind$?rollback@ConnImpl@@UEAAXXZ 00000001800693e8     dpiConnImpl.obj
 0002:000153e8       $unwind$__scrt_initialize_crt 00000001800693e8     LIBCMT:utility.obj
 0002:000153e8       $unwind$?type_case_integer@?$output_processor@DV?$string_output_adapter@D@__crt_stdio_output@@V?$format_validation_base@DV?$string_output_adapter@D@__crt_stdio_output@@@2@@__crt_stdio_output@@AEAA_NI_N@Z 00000001800693e8     libucrt:output.obj
 0002:000153e8       $unwind$?New@ResultSet@@CAXAEBV?$FunctionCallbackInfo@VValue@v8@@@Nan@@@Z 00000001800693e8     njsResultSet.obj
 0002:000153e8       $unwind$?exit_or_terminate_process@@YAXI@Z 00000001800693e8     libucrt:exit.obj
 0002:000153e8       $unwind$??_D?$basic_stringstream@DU?$char_traits@D@std@@V?$allocator@D@2@@std@@QEAAXXZ 00000001800693e8     njsOracle.obj
 0002:000153e8       $unwind$??_Gruntime_error@std@@UEAAPEAXI@Z 00000001800693e8     njsOracle.obj
 0002:000153e8       $unwind$?cleanupNJS@ILob@@QEAAXXZ 00000001800693e8     njsIntLob.obj
 0002:000153e8       $unwind$__std_type_info_destroy_list 00000001800693e8     libvcruntime:std_type_info.obj
 0002:000153e8       $unwind$?type_case_integer@?$output_processor@_WV?$stream_output_adapter@_W@__crt_stdio_output@@V?$standard_base@_WV?$stream_output_adapter@_W@__crt_stdio_output@@@2@@__crt_stdio_output@@AEAA_NI_N@Z 00000001800693e8     libucrt:output.obj
 0002:000153e8       $unwind$??1?$basic_stringbuf@DU?$char_traits@D@std@@V?$allocator@D@2@@std@@UEAA@XZ 00000001800693e8     njsOracle.obj
 0002:000153e8       $unwind$__scrt_uninitialize_crt 00000001800693e8     LIBCMT:utility.obj
 0002:000153e8       $unwind$?cleanup@EnvImpl@@AEAAXXZ 00000001800693e8     dpiEnvImpl.obj
 0002:000153e8       $unwind$init               00000001800693e8     njsOracle.obj
 0002:000153e8       $unwind$__acrt_update_multibyte_info 00000001800693e8     libucrt:locale_update.obj
 0002:000153e8       $unwind$??1?$_Yarn@_W@std@@QEAA@XZ 00000001800693e8     njsOracle.obj
 0002:000153e8       $unwind$_Init_thread_footer 00000001800693e8     LIBCMT:thread_safe_statics.obj
 0002:000153e8       $unwind$?_Tidy@?$vector@PEAUBind@@V?$allocator@PEAUBind@@@std@@@std@@AEAAXXZ 00000001800693e8     njsConnection.obj
 0002:000153e8       $unwind$?_Setgloballocale@locale@std@@CAXPEAX@Z 00000001800693e8     libcpmt:locale0.obj
 0002:000153e8       $unwind$?New@ILob@@CAXAEBV?$FunctionCallbackInfo@VValue@v8@@@Nan@@@Z 00000001800693e8     njsIntLob.obj
 0002:000153e8       $unwind$fegetenv           00000001800693e8     libucrt:fegetenv.obj
 0002:000153e8       $unwind$??_Gexception@stdext@@UEAAPEAXI@Z 00000001800693e8     njsOracle.obj
 0002:000153e8       $unwind$??1?$_Yarn@D@std@@QEAA@XZ 00000001800693e8     njsOracle.obj
 0002:000153e8       $unwind$_Init_thread_header 00000001800693e8     LIBCMT:thread_safe_statics.obj
 0002:000153e8       $unwind$??1?$basic_string@DU?$char_traits@D@std@@V?$allocator@D@2@@std@@QEAA@XZ 00000001800693e8     njsOracle.obj
 0002:000153e8       $unwind$??$Unwrap@VILob@@@ObjectWrap@Nan@@SAPEAVILob@@V?$Local@VObject@v8@@@v8@@@Z 00000001800693e8     njsConnection.obj
 0002:000153e8       $unwind$__vcrt_uninitialize_locks 00000001800693e8     libvcruntime:locks.obj
 0002:000153e8       $unwind$_CreateFrameInfo   00000001800693e8     libvcruntime:risctrnsctrl.obj
 0002:000153e8       $unwind$??$Unwrap@VResultSet@@@ObjectWrap@Nan@@SAPEAVResultSet@@V?$Local@VObject@v8@@@v8@@@Z 00000001800693e8     njsConnection.obj
 0002:000153e8       $unwind$?internal_isupper_l@@YA_NHQEAU__crt_locale_pointers@@@Z 00000001800693e8     libucrt:tolower_toupper.obj
 0002:000153e8       $unwind$?_Tidy_deallocate@?$basic_string@DU?$char_traits@D@std@@V?$allocator@D@2@@std@@QEAAXXZ 00000001800693e8     njsOracle.obj
 0002:000153e8       $unwind$?release@DateTimeArrayImpl@dpi@@UEAAXXZ 00000001800693e8     dpiDateTimeArrayImpl.obj
 0002:000153e8       $unwind$?do_widen@?$ctype@D@std@@MEBAPEBDPEBD0PEAD@Z 00000001800693e8     njsOracle.obj
 0002:000153e8       $unwind$?load_exe_hook@@YAP6A_JXZIPEAUDelayLoadInfo@@@Z 00000001800693e8     win_delay_load_hook.obj
 0002:000153e8       $unwind$??_Gtype_info@@UEAAPEAXI@Z 00000001800693e8     LIBCMT:std_type_info_static.obj
 0002:000153e8       $unwind$??$Unwrap@VOracledb@@@ObjectWrap@Nan@@SAPEAVOracledb@@V?$Local@VObject@v8@@@v8@@@Z 00000001800693e8     njsOracle.obj
 0002:000153e8       $unwind$??2@YAPEAX_K@Z     00000001800693e8     LIBCMT:new_scalar.obj
 0002:000153e8       $unwind$?cleanup@ProtoILob@@AEAAXXZ 00000001800693e8     njsIntLob.obj
 0002:000153e8       $unwind$?__GetUnwindTryBlock@@YAHPEA_KPEAU_xDISPATCHER_CONTEXT@@PEBU_s_FuncInfo@@@Z 00000001800693e8     libvcruntime:riscehstate.obj
 0002:000153e8       $unwind$__acrt_uninitialize_stdio 00000001800693e8     libucrt:_file.obj
 0002:000153e8       $unwind$??0?$basic_string@DU?$char_traits@D@std@@V?$allocator@D@2@@std@@QEAA@QEBD@Z 00000001800693e8     njsOracle.obj
 0002:000153e8       $unwind$feholdexcept       00000001800693e8     libucrt:feholdexcept.obj
 0002:000153e8       $unwind$_SetImageBase      00000001800693e8     libvcruntime:risctrnsctrl.obj
 0002:000153e8       $unwind$?type_case_integer@?$output_processor@DV?$string_output_adapter@D@__crt_stdio_output@@V?$standard_base@DV?$string_output_adapter@D@__crt_stdio_output@@@2@@__crt_stdio_output@@AEAA_NI_N@Z 00000001800693e8     libucrt:output.obj
 0002:000153e8       $unwind$??0bad_array_new_length@std@@QEAA@AEBV01@@Z 00000001800693e8     LIBCMT:throw_bad_alloc.obj
 0002:000153e8       $unwind$__vcrt_initialize_locks 00000001800693e8     libvcruntime:locks.obj
 0002:000153e8       $unwind$fesetenv           00000001800693e8     libucrt:fesetenv.obj
 0002:000153e8       $unwind$??$Unwrap@VConnection@@@ObjectWrap@Nan@@SAPEAVConnection@@V?$Local@VObject@v8@@@v8@@@Z 00000001800693e8     njsOracle.obj
 0002:000153e8       $unwind$?DloadReleaseSectionWriteAccess@@YAXXZ 00000001800693e8     DelayImp:delayhlp.obj
 0002:000153e8       $unwind$__acrt_update_locale_info 00000001800693e8     libucrt:locale_update.obj
 0002:000153e8       $unwind$?__StateFromIp@@YAHPEBU_s_FuncInfo@@PEAU_xDISPATCHER_CONTEXT@@_K@Z 00000001800693e8     libvcruntime:riscehstate.obj
 0002:000153e8       $unwind$??$Unwrap@VPool@@@ObjectWrap@Nan@@SAPEAVPool@@V?$Local@VObject@v8@@@v8@@@Z 00000001800693e8     njsOracle.obj
 0002:000153f0       $unwind$??0_Locinfo@std@@QEAA@PEBD@Z 00000001800693f0     njsOracle.obj
 0002:00015404       $stateUnwindMap$??0_Locinfo@std@@QEAA@PEBD@Z 0000000180069404     njsOracle.obj
 0002:00015450       $ip2state$??0_Locinfo@std@@QEAA@PEBD@Z 0000000180069450     njsOracle.obj
 0002:000154a8       $unwind$GetLocaleNameFromLanguage 00000001800694a8     libucrt:get_qualified_locale.obj
 0002:000154a8       $unwind$?__SetUnwindTryBlock@@YAXPEA_KPEAU_xDISPATCHER_CONTEXT@@PEBU_s_FuncInfo@@H@Z 00000001800694a8     libvcruntime:riscehstate.obj
 0002:000154a8       $unwind$_FindAndUnlinkFrame 00000001800694a8     libvcruntime:risctrnsctrl.obj
 0002:000154a8       $unwind$GetLocaleNameFromLangCountry 00000001800694a8     libucrt:get_qualified_locale.obj
 0002:000154a8       $unwind$?getDateTimeArray@EnvImpl@@UEBAPEAVDateTimeArray@dpi@@PEAUOCIError@@@Z 00000001800694a8     dpiEnvImpl.obj
 0002:000154a8       $unwind$?ExFilterRethrow@@YAHPEAU_EXCEPTION_POINTERS@@PEAUEHExceptionRecord@@PEAH@Z 00000001800694a8     libvcruntime:frame.obj
 0002:000154a8       $unwind$__vcrt_FlsFree     00000001800694a8     libvcruntime:winapi_downlevel.obj
 0002:000154a8       $unwind$?type_case_c_tchar@?$output_processor@DV?$string_output_adapter@D@__crt_stdio_output@@V?$format_validation_base@DV?$string_output_adapter@D@__crt_stdio_output@@@2@@__crt_stdio_output@@AEAA_ND@Z 00000001800694a8     libucrt:output.obj
 0002:000154a8       $unwind$??_GOracledb@@EEAAPEAXI@Z 00000001800694a8     njsOracle.obj
 0002:000154a8       $unwind$??$common_initialize_environment_nolock@D@@YAHXZ 00000001800694a8     libucrt:environment_initialization.obj
 0002:000154a8       $unwind$__vcrt_FlsAlloc    00000001800694a8     libvcruntime:winapi_downlevel.obj
 0002:000154a8       $unwind$??$common_xtox@K_W@@YAHKQEA_W_KI_N@Z 00000001800694a8     libucrt:xtoa.obj
 0002:000154a8       $unwind$??_Gbad_exception@std@@UEAAPEAXI@Z 00000001800694a8     libvcruntime:frame.obj
 0002:000154a8       $unwind$?cbDynBufferGet@Connection@@CAHPEAX_JIKKPEAPEAX22PEAPEAGPEAE@Z 00000001800694a8     njsConnection.obj
 0002:000154a8       $unwind$_realloc_base      00000001800694a8     libucrt:realloc_base.obj
 0002:000154a8       $unwind$??_G?$basic_stringstream@DU?$char_traits@D@std@@V?$allocator@D@2@@std@@UEAAPEAXI@Z 00000001800694a8     njsOracle.obj
 0002:000154a8       $unwind$wcsncpy_s          00000001800694a8     libucrt:wcsncpy_s.obj
 0002:000154a8       $unwind$??_G?$basic_stringbuf@DU?$char_traits@D@std@@V?$allocator@D@2@@std@@UEAAPEAXI@Z 00000001800694a8     njsOracle.obj
 0002:000154a8       $unwind$wcsncat_s          00000001800694a8     libucrt:wcsncat_s.obj
 0002:000154a8       $unwind$??1_Init_locks@std@@QEAA@XZ 00000001800694a8     libcpmt:xlock.obj
 0002:000154a8       $unwind$??_G?$basic_iostream@DU?$char_traits@D@std@@@std@@UEAAPEAXI@Z 00000001800694a8     njsOracle.obj
 0002:000154a8       $unwind$??_GObjectWrap@Nan@@UEAAPEAXI@Z 00000001800694a8     njsOracle.obj
 0002:000154a8       $unwind$_initterm_e        00000001800694a8     libucrt:initterm.obj
 0002:000154a8       $unwind$?_Locinfo_ctor@_Locinfo@std@@SAXPEAV12@PEBD@Z 00000001800694a8     libcpmt:locale0.obj
 0002:000154a8       $unwind$??_Gexception@std@@UEAAPEAXI@Z 00000001800694a8     libcpmt:xonce.obj
 0002:000154a8       $unwind$??_GExceptionImpl@@UEAAPEAXI@Z 00000001800694a8     dpiEnvImpl.obj
 0002:000154a8       $unwind$__acrt_uninitialize_lowio 00000001800694a8     libucrt:ioinit.obj
 0002:000154a8       $unwind$GetLcidFromLanguage 00000001800694a8     libucrt:getqloc_downlevel.obj
 0002:000154a8       $unwind$??_G?$numpunct@D@std@@MEAAPEAXI@Z 00000001800694a8     njsOracle.obj
 0002:000154a8       $unwind$??_Gbad_alloc@std@@UEAAPEAXI@Z 00000001800694a8     libcpmt:xthrow.obj
 0002:000154a8       $unwind$??_Glogic_error@std@@UEAAPEAXI@Z 00000001800694a8     libcpmt:xthrow.obj
 0002:000154a8       $unwind$??1_Locinfo@std@@QEAA@XZ 00000001800694a8     njsOracle.obj
 0002:000154a8       $unwind$_fclose_nolock     00000001800694a8     libucrt:fclose.obj
 0002:000154a8       $unwind$__vcrt_FlsGetValue 00000001800694a8     libvcruntime:winapi_downlevel.obj
 0002:000154a8       $unwind$??_G?$basic_istream@DU?$char_traits@D@std@@@std@@UEAAPEAXI@Z 00000001800694a8     njsOracle.obj
 0002:000154a8       $unwind$?cleanup@PoolImpl@@AEAAXXZ 00000001800694a8     dpiPoolImpl.obj
 0002:000154a8       $unwind$??_Glength_error@std@@UEAAPEAXI@Z 00000001800694a8     libcpmt:xthrow.obj
 0002:000154a8       $unwind$__acrt_can_show_message_box 00000001800694a8     libucrt:winapi_thunks.obj
 0002:000154a8       $unwind$?DloadAcquireSectionWriteAccess@@YAXXZ 00000001800694a8     DelayImp:delayhlp.obj
 0002:000154a8       $unwind$??_Gout_of_range@std@@UEAAPEAXI@Z 00000001800694a8     libcpmt:xthrow.obj
 0002:000154a8       $unwind$strncpy_s          00000001800694a8     libucrt:strncpy_s.obj
 0002:000154a8       $unwind$??_GEnvImpl@@UEAAPEAXI@Z 00000001800694a8     dpiEnvImpl.obj
 0002:000154a8       $unwind$__acrt_LocaleNameToLCID 00000001800694a8     libucrt:winapi_thunks.obj
 0002:000154a8       $unwind$??_Glocale@std@@QEAAPEAXI@Z 00000001800694a8     njsOracle.obj
 0002:000154a8       $unwind$?_New_Locimp@_Locimp@locale@std@@CAPEAV123@_N@Z 00000001800694a8     libcpmt:locale0.obj
 0002:000154a8       $unwind$__acrt_GetUserDefaultLocaleName 00000001800694a8     libucrt:winapi_thunks.obj
 0002:000154a8       $unwind$??_G?$basic_ostream@DU?$char_traits@D@std@@@std@@UEAAPEAXI@Z 00000001800694a8     njsOracle.obj
 0002:000154a8       $unwind$??_GPoolImpl@@UEAAPEAXI@Z 00000001800694a8     dpiPoolImpl.obj
 0002:000154a8       $unwind$__acrt_FlsSetValue 00000001800694a8     libucrt:winapi_thunks.obj
 0002:000154a8       $unwind$??_G?$basic_ios@DU?$char_traits@D@std@@@std@@UEAAPEAXI@Z 00000001800694a8     njsOracle.obj
 0002:000154a8       $unwind$GetLcidFromLangCountry 00000001800694a8     libucrt:getqloc_downlevel.obj
 0002:000154a8       $unwind$?DloadGetSRWLockFunctionPointers@@YAEXZ 00000001800694a8     DelayImp:delayhlp.obj
 0002:000154a8       $unwind$_Deletegloballocale 00000001800694a8     libcpmt:locale0.obj
 0002:000154a8       $unwind$??1sentry@?$basic_ostream@DU?$char_traits@D@std@@@std@@QEAA@XZ 00000001800694a8     njsOracle.obj
 0002:000154a8       $unwind$??_G?$ctype@D@std@@MEAAPEAXI@Z 00000001800694a8     njsOracle.obj
 0002:000154a8       $unwind$_close_nolock      00000001800694a8     libucrt:close.obj
 0002:000154a8       $unwind$?make_error_code@std@@YA?AVerror_code@1@W4io_errc@1@@Z 00000001800694a8     njsOracle.obj
 0002:000154a8       $unwind$?type_case_c_tchar@?$output_processor@DV?$string_output_adapter@D@__crt_stdio_output@@V?$standard_base@DV?$string_output_adapter@D@__crt_stdio_output@@@2@@__crt_stdio_output@@AEAA_ND@Z 00000001800694a8     libucrt:output.obj
 0002:000154a8       $unwind$??0MetaInfo@@QEAA@XZ 00000001800694a8     njsConnection.obj
 0002:000154a8       $unwind$??0_LocaleUpdate@@QEAA@QEAU__crt_locale_pointers@@@Z 00000001800694a8     libucrt:output.obj
 0002:000154a8       $unwind$__acrt_errno_map_os_error 00000001800694a8     libucrt:errno.obj
 0002:000154a8       $unwind$?force_decimal_point@__crt_stdio_output@@YAXPEADQEAU__crt_locale_pointers@@@Z 00000001800694a8     libucrt:output.obj
 0002:000154a8       $unwind$_updatetlocinfoEx_nolock 00000001800694a8     libucrt:locale_refcounting.obj
 0002:000154a8       $unwind$??4?$basic_string@DU?$char_traits@D@std@@V?$allocator@D@2@@std@@QEAAAEAV01@$$QEAV01@@Z 00000001800694a8     njsOracle.obj
 0002:000154a8       $unwind$??_Gios_base@std@@UEAAPEAXI@Z 00000001800694a8     njsOracle.obj
 0002:000154a8       $unwind$__acrt_execute_uninitializers 00000001800694a8     libucrt:shared_initialization.obj
 0002:000154a8       $unwind$__acrt_stdio_begin_temporary_buffering_nolock 00000001800694a8     libucrt:_sftbuf.obj
 0002:000154a8       $unwind$__acrt_getptd      00000001800694a8     libucrt:per_thread_data.obj
 0002:000154a8       $unwind$??_Gbad_array_new_length@std@@UEAAPEAXI@Z 00000001800694a8     LIBCMT:throw_bad_alloc.obj
 0002:000154a8       $unwind$?replace_current_thread_locale_nolock@@YAXQEAU__acrt_ptd@@QEAU__crt_locale_data@@@Z 00000001800694a8     libucrt:per_thread_data.obj
 0002:000154a8       $unwind$__acrt_locale_initialize_time 00000001800694a8     libucrt:inittime.obj
 0002:000154a8       $unwind$__acrt_getptd_noexit 00000001800694a8     libucrt:per_thread_data.obj
 0002:000154a8       $unwind$_Init_thread_wait  00000001800694a8     LIBCMT:thread_safe_statics.obj
 0002:000154b4       $unwind$_GetThrowImageBase 00000001800694b4     libvcruntime:risctrnsctrl.obj
 0002:000154b4       $unwind$?state_case_size@?$output_processor@_WV?$stream_output_adapter@_W@__crt_stdio_output@@V?$standard_base@_WV?$stream_output_adapter@_W@__crt_stdio_output@@@2@@__crt_stdio_output@@AEAA_NXZ 00000001800694b4     libucrt:output.obj
 0002:000154b4       $unwind$__vcrt_initialize_ptd 00000001800694b4     libvcruntime:per_thread_data.obj
 0002:000154b4       $unwind$?__scrt_uninitialize_thread_safe_statics@@YAXXZ 00000001800694b4     LIBCMT:thread_safe_statics.obj
 0002:000154b4       $unwind$__acrt_initialize_multibyte 00000001800694b4     libucrt:mbctype.obj
 0002:000154b4       $unwind$__acrt_update_thread_multibyte_data 00000001800694b4     libucrt:mbctype.obj
 0002:000154b4       $unwind$__vcrt_uninitialize_ptd 00000001800694b4     libvcruntime:per_thread_data.obj
 0002:000154b4       $unwind$_GetImageBase      00000001800694b4     libvcruntime:risctrnsctrl.obj
 0002:000154b4       $unwind$__acrt_uninitialize_ptd 00000001800694b4     libucrt:per_thread_data.obj
 0002:000154b4       $unwind$__acrt_initialize_ptd 00000001800694b4     libucrt:per_thread_data.obj
 0002:000154b4       $unwind$__crtDownlevelLocaleNameToLCID 00000001800694b4     libcpmt:winapinls.obj
 0002:000154b4       $unwind$__scrt_initialize_default_local_stdio_options 00000001800694b4     LIBCMT:default_local_stdio_options.obj
 0002:000154b4       $unwind$?dllmain_crt_dispatch@@YAHQEAUHINSTANCE__@@KQEAX@Z 00000001800694b4     LIBCMT:dll_dllmain.obj
 0002:000154b4       $unwind$__vcrt_getptd      00000001800694b4     libvcruntime:per_thread_data.obj
 0002:000154b4       $unwind$?state_case_normal_tchar@?$output_processor@DV?$string_output_adapter@D@__crt_stdio_output@@V?$standard_base@DV?$string_output_adapter@D@__crt_stdio_output@@@2@@__crt_stdio_output@@AEAA_ND@Z 00000001800694b4     libucrt:output.obj
 0002:000154b4       $unwind$_lock_locales      00000001800694b4     libucrt:locks.obj
 0002:000154b4       $unwind$?state_case_size@?$output_processor@DV?$string_output_adapter@D@__crt_stdio_output@@V?$standard_base@DV?$string_output_adapter@D@__crt_stdio_output@@@2@@__crt_stdio_output@@AEAA_NXZ 00000001800694b4     libucrt:output.obj
 0002:000154b4       $unwind$atexit             00000001800694b4     LIBCMT:utility.obj
 0002:000154b4       $unwind$uninitialize_environment 00000001800694b4     libucrt:initialization.obj
 0002:000154b4       $unwind$initialize_c       00000001800694b4     libucrt:initialization.obj
 0002:000154b4       $unwind$__acrt_thread_detach 00000001800694b4     libucrt:initialization.obj
 0002:000154b4       $unwind$__report_rangecheckfailure 00000001800694b4     LIBCMT:gs_report.obj
 0002:000154b4       $unwind$__scrt_acquire_startup_lock 00000001800694b4     LIBCMT:utility.obj
 0002:000154b4       $unwind$__doserrno         00000001800694b4     libucrt:errno.obj
 0002:000154b4       $unwind$__acrt_thread_attach 00000001800694b4     libucrt:initialization.obj
 0002:000154b4       $unwind$__acrt_uninitialize_critical 00000001800694b4     libucrt:initialization.obj
 0002:000154b4       $unwind$_errno             00000001800694b4     libucrt:errno.obj
 0002:000154b4       $unwind$?allocate@?$allocator@D@std@@QEAAPEAD_K@Z 00000001800694b4     njsOracle.obj
 0002:000154b4       $unwind$_set_error_mode    00000001800694b4     libucrt:set_error_mode.obj
 0002:000154b4       $unwind$__scrt_dllmain_before_initialize_c 00000001800694b4     LIBCMT:utility.obj
 0002:000154b4       $unwind$?breakExecution@ConnImpl@@UEAAXXZ 00000001800694b4     dpiConnImpl.obj
 0002:000154b4       $unwind$__scrt_dllmain_after_initialize_c 00000001800694b4     LIBCMT:utility.obj
 0002:000154b4       $unwind$?deallocate@?$allocator@D@std@@QEAAXQEAD_K@Z 00000001800694b4     njsOracle.obj
 0002:000154b4       $unwind$_statfp            00000001800694b4     libucrt:fpctrl.obj
 0002:000154b4       $unwind$__scrt_dllmain_uninitialize_c 00000001800694b4     LIBCMT:utility.obj
 0002:000154b4       $unwind$?release@StmtImpl@@UEAAXXZ 00000001800694b4     dpiStmtImpl.obj
 0002:000154b4       $unwind$?__GetCurrentState@@YAHPEA_KPEAU_xDISPATCHER_CONTEXT@@PEBU_s_FuncInfo@@@Z 00000001800694b4     libvcruntime:riscehstate.obj
 0002:000154b4       $unwind$__scrt_dllmain_uninitialize_critical 00000001800694b4     LIBCMT:utility.obj
 0002:000154b4       $unwind$__scrt_dllmain_crt_thread_attach 00000001800694b4     LIBCMT:utility.obj
 0002:000154b4       $unwind$__dcrt_terminate_console_output 00000001800694b4     libucrt:initcon.obj
 0002:000154b4       $unwind$__scrt_dllmain_crt_thread_detach 00000001800694b4     LIBCMT:utility.obj
 0002:000154b4       $unwind$__GSHandlerCheck   00000001800694b4     LIBCMT:_gshandler_.obj
 0002:000154b4       $unwind$_fileno            00000001800694b4     libucrt:fileno.obj
 0002:000154b4       $unwind$_stricmp           00000001800694b4     libucrt:stricmp.obj
 0002:000154b4       $unwind$__vcrt_freefls     00000001800694b4     libvcruntime:per_thread_data.obj
 0002:000154b4       $unwind$?state_case_size@?$output_processor@_WV?$string_output_adapter@_W@__crt_stdio_output@@V?$standard_base@_WV?$string_output_adapter@_W@__crt_stdio_output@@@2@@__crt_stdio_output@@AEAA_NXZ 00000001800694b4     libucrt:output.obj
 0002:000154b4       $unwind$__acrt_can_use_vista_locale_apis 00000001800694b4     libucrt:winapi_thunks.obj
 0002:000154b4       $unwind$__acrt_eagerly_load_locale_apis 00000001800694b4     libucrt:winapi_thunks.obj
 0002:000154b4       $unwind$__acrt_release_locale_ref 00000001800694b4     libucrt:locale_refcounting.obj
 0002:000154b4       $unwind$?_Locinfo_dtor@_Locinfo@std@@SAXPEAV12@@Z 00000001800694b4     libcpmt:locale0.obj
 0002:000154b4       $unwind$_invoke_watson     00000001800694b4     libucrt:invalid_parameter.obj
 0002:000154b4       $unwind$?initialize_multibyte@@YAHXZ 00000001800694b4     libucrt:multibyte_initializer.obj
 0002:000154b4       $unwind$_wcsicmp           00000001800694b4     libucrt:wcsicmp.obj
 0002:000154b4       $unwind$_isatty            00000001800694b4     libucrt:isatty.obj
 0002:000154b4       $unwind$??__Einitlocks@std@@YAXXZ 00000001800694b4     libcpmt:xlock.obj
 0002:000154b4       $unwind$??1_Lockit@std@@QEAA@XZ 00000001800694b4     libcpmt:xlock.obj
 0002:000154b4       $unwind$??__F_Fac_tidy_reg@std@@YAXXZ 00000001800694b4     libcpmt:locale0.obj
 0002:000154b4       $unwind$__dcrt_uninitialize_environments_nolock 00000001800694b4     libucrt:environment_initialization.obj
 0002:000154b4       $unwind$__std_terminate    00000001800694b4     libvcruntime:ehhelpers.obj
 0002:000154b4       $unwind$_wcsnicmp          00000001800694b4     libucrt:wcsnicmp.obj
 0002:000154b4       $unwind$?_Xlen@?$basic_string@DU?$char_traits@D@std@@V?$allocator@D@2@@std@@SAXXZ 00000001800694b4     njsOracle.obj
 0002:000154b4       $unwind$__FrameUnwindFilter 00000001800694b4     libvcruntime:ehhelpers.obj
 0002:000154b4       $unwind$_copytlocinfo_nolock 00000001800694b4     libucrt:wsetlocale.obj
 0002:000154b4       $unwind$?Async_Close@ILob@@CAXPEAUuv_work_s@@@Z 00000001800694b4     njsIntLob.obj
 0002:000154b4       $unwind$_msize_base        00000001800694b4     libucrt:msize.obj
 0002:000154b4       $unwind$??__F?s_propPingName_@ConnImpl@@0V?$basic_string@DU?$char_traits@D@std@@V?$allocator@D@2@@std@@A@@YAXXZ 00000001800694b4     dpiConnImpl.obj
 0002:000154b4       $unwind$__acrt_initialize_heap 00000001800694b4     libucrt:heap_handle.obj
 0002:000154b4       $unwind$??__E?s_propPingName_@ConnImpl@@0V?$basic_string@DU?$char_traits@D@std@@V?$allocator@D@2@@std@@A@@YAXXZ 00000001800694b4     dpiConnImpl.obj
 0002:000154b4       $unwind$_set_errno_from_matherr 00000001800694b4     libucrt:fpexcept.obj
 0002:000154b4       $unwind$??1locale@std@@QEAA@XZ 00000001800694b4     njsOracle.obj
 0002:000154b4       $unwind$?state_case_normal_tchar@?$output_processor@DV?$string_output_adapter@D@__crt_stdio_output@@V?$format_validation_base@DV?$string_output_adapter@D@__crt_stdio_output@@@2@@__crt_stdio_output@@AEAA_ND@Z 00000001800694b4     libucrt:output.obj
 0002:000154b4       $unwind$?_Xran@?$_String_val@U?$_Simple_types@D@std@@@std@@SAXXZ 00000001800694b4     njsOracle.obj
 0002:000154b4       $unwind$?state_case_size@?$output_processor@DV?$string_output_adapter@D@__crt_stdio_output@@V?$format_validation_base@DV?$string_output_adapter@D@__crt_stdio_output@@@2@@__crt_stdio_output@@AEAA_NXZ 00000001800694b4     libucrt:output.obj
 0002:000154b4       $unwind$___lc_codepage_func 00000001800694b4     libucrt:initctype.obj
 0002:000154b4       $unwind$tidy_global        00000001800694b4     libcpmt:locale0.obj
 0002:000154b4       $unwind$localeconv         00000001800694b4     libucrt:localeconv.obj
 0002:000154b4       $unwind$?_Xlength@?$vector@PEAV?$Persistent@VObject@v8@@V?$NonCopyablePersistentTraits@VObject@v8@@@2@@Nan@@V?$allocator@PEAV?$Persistent@VObject@v8@@V?$NonCopyablePersistentTraits@VObject@v8@@@2@@Nan@@@std@@@std@@CAXXZ 00000001800694b4     njsConnection.obj
 0002:000154b4       $unwind$??$uninitialize_environment_internal@D@@YAXAEAPEAPEAD@Z 00000001800694b4     libucrt:environment_initialization.obj
 0002:000154b4       $unwind$__pctype_func      00000001800694b4     libucrt:ctype.obj
 0002:000154b4       $unwind$___lc_locale_name_func 00000001800694b4     libucrt:initctype.obj
 0002:000154b4       $unwind$?_Xlength@?$vector@PEAUExtBind@@V?$allocator@PEAUExtBind@@@std@@@std@@CAXXZ 00000001800694b4     njsConnection.obj
 0002:000154b4       $unwind$??$uninitialize_environment_internal@_W@@YAXAEAPEAPEA_W@Z 00000001800694b4     libucrt:environment_initialization.obj
 0002:000154b4       $unwind$__acrt_DownlevelLocaleNameToLCID 00000001800694b4     libucrt:lcidtoname_downlevel.obj
 0002:000154b4       $unwind$?allocate@?$allocator@PEAUExtBind@@@std@@QEAAPEAPEAUExtBind@@_K@Z 00000001800694b4     njsConnection.obj
 0002:000154b4       $unwind$__acrt_initialize_command_line 00000001800694b4     libucrt:argv_data.obj
 0002:000154b4       $unwind$?_Xlength@?$vector@PEAUBind@@V?$allocator@PEAUBind@@@std@@@std@@CAXXZ 00000001800694b4     njsConnection.obj
 0002:000154b4       $unwind$?allocate@?$allocator@PEAUBind@@@std@@QEAAPEAPEAUBind@@_K@Z 00000001800694b4     njsConnection.obj
 0002:000154b4       $unwind$__vcrt_initialize  00000001800694b4     libvcruntime:initialization.obj
 0002:000154b4       $unwind$__vcrt_uninitialize 00000001800694b4     libvcruntime:initialization.obj
 0002:000154b4       $unwind$abort              00000001800694b4     libucrt:abort.obj
 0002:000154b4       $unwind$__vcrt_uninitialize_critical 00000001800694b4     libvcruntime:initialization.obj
 0002:000154b4       $unwind$tolower            00000001800694b4     libucrt:tolower_toupper.obj
 0002:000154b4       $unwind$?_Xlength@?$vector@PEAUExtDefine@@V?$allocator@PEAUExtDefine@@@std@@@std@@CAXXZ 00000001800694b4     njsConnection.obj
 0002:000154b4       $unwind$___mb_cur_max_func 00000001800694b4     libucrt:initctype.obj
 0002:000154b4       $unwind$??__Einitlocks@std@@YAXXZ 00000001800694b4     libcpmt:iosptrs.obj
 0002:000154b4       $unwind$_get_osfhandle     00000001800694b4     libucrt:osfinfo.obj
 0002:000154b4       $unwind$__vcrt_thread_attach 00000001800694b4     libvcruntime:initialization.obj
 0002:000154b4       $unwind$?allocate@?$allocator@PEAUExtDefine@@@std@@QEAAPEAPEAUExtDefine@@_K@Z 00000001800694b4     njsConnection.obj
 0002:000154b4       $unwind$?_Atexit@@YAXP6AXXZ@Z 00000001800694b4     libcpmt:iosptrs.obj
 0002:000154b4       $unwind$__vcrt_thread_detach 00000001800694b4     libvcruntime:initialization.obj
 0002:000154b4       $unwind$??1_Sentry_base@?$basic_ostream@DU?$char_traits@D@std@@@std@@QEAA@XZ 00000001800694b4     njsOracle.obj
 0002:000154bc       $unwind$?type_case_c_tchar@?$output_processor@_WV?$string_output_adapter@_W@__crt_stdio_output@@V?$standard_base@_WV?$string_output_adapter@_W@__crt_stdio_output@@@2@@__crt_stdio_output@@AEAA_N_W@Z 00000001800694bc     libucrt:output.obj
 0002:000154bc       $unwind$?do_tolower@?$ctype@D@std@@MEBAPEBDPEADPEBD@Z 00000001800694bc     njsOracle.obj
 0002:000154bc       $unwind$ProcessCodePage    00000001800694bc     libucrt:getqloc_downlevel.obj
 0002:000154bc       $unwind$?type_case_c_tchar@?$output_processor@_WV?$stream_output_adapter@_W@__crt_stdio_output@@V?$standard_base@_WV?$stream_output_adapter@_W@__crt_stdio_output@@@2@@__crt_stdio_output@@AEAA_N_W@Z 00000001800694bc     libucrt:output.obj
 0002:000154bc       $unwind$TestDefaultLanguage 00000001800694bc     libucrt:getqloc_downlevel.obj
 0002:000154bc       $unwind$ProcessCodePage    00000001800694bc     libucrt:get_qualified_locale.obj
 0002:000154bc       $unwind$??R<lambda_ca71763b3c0644891230e4f79ea54fa6>@@QEBAHXZ 00000001800694bc     libucrt:setvbuf.obj
 0002:000154bc       $unwind$?do_toupper@?$ctype@D@std@@MEBAPEBDPEADPEBD@Z 00000001800694bc     njsOracle.obj
 0002:000154cc       $chain$0$?do_tolower@?$ctype@D@std@@MEBAPEBDPEADPEBD@Z 00000001800694cc     njsOracle.obj
 0002:000154e0       $chain$1$?do_tolower@?$ctype@D@std@@MEBAPEBDPEADPEBD@Z 00000001800694e0     njsOracle.obj
 0002:000154f0       $chain$0$?do_toupper@?$ctype@D@std@@MEBAPEBDPEADPEBD@Z 00000001800694f0     njsOracle.obj
 0002:00015504       $chain$1$?do_toupper@?$ctype@D@std@@MEBAPEBDPEADPEBD@Z 0000000180069504     njsOracle.obj
 0002:00015514       $unwind$?_Makestr@_System_error@std@@CA?AV?$basic_string@DU?$char_traits@D@std@@V?$allocator@D@2@@2@Verror_code@2@V32@@Z 0000000180069514     njsOracle.obj
 0002:00015530       $stateUnwindMap$?_Makestr@_System_error@std@@CA?AV?$basic_string@DU?$char_traits@D@std@@V?$allocator@D@2@@2@Verror_code@2@V32@@Z 0000000180069530     njsOracle.obj
 0002:00015540       $ip2state$?_Makestr@_System_error@std@@CA?AV?$basic_string@DU?$char_traits@D@std@@V?$allocator@D@2@@2@Verror_code@2@V32@@Z 0000000180069540     njsOracle.obj
 0002:00015568       $unwind$??0failure@ios_base@std@@QEAA@PEBDAEBVerror_code@2@@Z 0000000180069568     njsOracle.obj
 0002:00015584       $stateUnwindMap$??0failure@ios_base@std@@QEAA@PEBDAEBVerror_code@2@@Z 0000000180069584     njsOracle.obj
 0002:00015590       $ip2state$??0failure@ios_base@std@@QEAA@PEBDAEBVerror_code@2@@Z 0000000180069590     njsOracle.obj
 0002:000155a8       $unwind$_invalid_parameter_noinfo_noreturn 00000001800695a8     libucrt:invalid_parameter.obj
 0002:000155a8       $unwind$fflush             00000001800695a8     libucrt:fflush.obj
 0002:000155a8       $unwind$_log10_special     00000001800695a8     libucrt:log_special.obj
 0002:000155a8       $unwind$mbstowcs_s         00000001800695a8     libucrt:mbstowcs.obj
 0002:000155a8       $unwind$_invalid_parameter_noinfo 00000001800695a8     libucrt:invalid_parameter.obj
 0002:000155a8       $unwind$_wtol              00000001800695a8     libucrt:atox.obj
 0002:000155a8       $unwind$_itow_s            00000001800695a8     libucrt:xtoa.obj
 0002:000155a8       $unwind$wctomb_s           00000001800695a8     libucrt:wctomb.obj
 0002:000155a8       $unwind$?_Doraise@failure@ios_base@std@@MEBAXXZ 00000001800695a8     njsOracle.obj
 0002:000155b0       $unwind$?clear@ios_base@std@@QEAAXH_N@Z 00000001800695b0     njsOracle.obj
 0002:000155c0       $stateUnwindMap$?clear@ios_base@std@@QEAAXH_N@Z 00000001800695c0     njsOracle.obj
 0002:000155d8       $ip2state$?clear@ios_base@std@@QEAAXH_N@Z 00000001800695d8     njsOracle.obj
 0002:00015610       $unwind$?FunctionCallbackWrapper@imp@Nan@@YAXAEBV?$FunctionCallbackInfo@VValue@v8@@@v8@@@Z 0000000180069610     njsOracle.obj
 0002:00015620       $unwind$?GetterCallbackWrapper@imp@Nan@@YAXV?$Local@VName@v8@@@v8@@AEBV?$PropertyCallbackInfo@VValue@v8@@@4@@Z 0000000180069620     njsOracle.obj
 0002:00015630       $unwind$?SetterCallbackWrapper@imp@Nan@@YAXV?$Local@VName@v8@@@v8@@V?$Local@VValue@v8@@@4@AEBV?$PropertyCallbackInfo@X@4@@Z 0000000180069630     njsOracle.obj
 0002:00015644       $unwind$?New@?$Factory@VFunctionTemplate@v8@@@imp@Nan@@SA?AV?$Local@VFunctionTemplate@v8@@@v8@@P6AXAEBV?$FunctionCallbackInfo@VValue@v8@@@3@@ZV?$Local@VValue@v8@@@5@V?$Local@VSignature@v8@@@5@@Z 0000000180069644     njsOracle.obj
 0002:00015668       $stateUnwindMap$?New@?$Factory@VFunctionTemplate@v8@@@imp@Nan@@SA?AV?$Local@VFunctionTemplate@v8@@@v8@@P6AXAEBV?$FunctionCallbackInfo@VValue@v8@@@3@@ZV?$Local@VValue@v8@@@5@V?$Local@VSignature@v8@@@5@@Z 0000000180069668     njsOracle.obj
 0002:00015678       $ip2state$?New@?$Factory@VFunctionTemplate@v8@@@imp@Nan@@SA?AV?$Local@VFunctionTemplate@v8@@@v8@@P6AXAEBV?$FunctionCallbackInfo@VValue@v8@@@3@@ZV?$Local@VValue@v8@@@5@V?$Local@VSignature@v8@@@5@@Z 0000000180069678     njsOracle.obj
 0002:000156a0       $unwind$?ThrowError@Nan@@YAXPEBD@Z 00000001800696a0     njsOracle.obj
 0002:000156b0       $stateUnwindMap$?ThrowError@Nan@@YAXPEBD@Z 00000001800696b0     njsOracle.obj
 0002:000156b0       $stateUnwindMap$?hasILobInstance@ILob@@SA_NV?$Local@VObject@v8@@@v8@@@Z 00000001800696b0     njsIntLob.obj
 0002:000156b0       $stateUnwindMap$?SetPrototypeMethod@Nan@@YAXV?$Local@VFunctionTemplate@v8@@@v8@@PEBDP6AXAEBV?$FunctionCallbackInfo@VValue@v8@@@1@@Z@Z 00000001800696b0     njsOracle.obj
 0002:000156b8       $ip2state$?ThrowError@Nan@@YAXPEBD@Z 00000001800696b8     njsOracle.obj
 0002:000156d0       $unwind$??1?$Persistent@VFunction@v8@@V?$NonCopyablePersistentTraits@VFunction@v8@@@2@@Nan@@QEAA@XZ 00000001800696d0     njsOracle.obj
 0002:000156d0       $unwind$??1?$Persistent@VObject@v8@@V?$NonCopyablePersistentTraits@VObject@v8@@@2@@Nan@@QEAA@XZ 00000001800696d0     njsOracle.obj
 0002:000156e0       $stateUnwindMap$??__F?resultSetTemplate_s@ResultSet@@2V?$Persistent@VFunctionTemplate@v8@@V?$NonCopyablePersistentTraits@VFunctionTemplate@v8@@@2@@Nan@@A@@YAXXZ 00000001800696e0     njsResultSet.obj
 0002:000156e0       $stateUnwindMap$??_G_Fac_node@std@@QEAAPEAXI@Z 00000001800696e0     libcpmt:locale0.obj
 0002:000156e0       $stateUnwindMap$??_GStmtImpl@@UEAAPEAXI@Z 00000001800696e0     dpiStmtImpl.obj
 0002:000156e0       $stateUnwindMap$??__F?poolTemplate_s@Pool@@2V?$Persistent@VFunctionTemplate@v8@@V?$NonCopyablePersistentTraits@VFunctionTemplate@v8@@@2@@Nan@@A@@YAXXZ 00000001800696e0     njsPool.obj
 0002:000156e0       $stateUnwindMap$??_G_Locimp@locale@std@@MEAAPEAXI@Z 00000001800696e0     libcpmt:locale0.obj
 0002:000156e0       $stateUnwindMap$??__Finit_atexit@@YAXXZ 00000001800696e0     libcpmt:iosptrs.obj
 0002:000156e0       $stateUnwindMap$??__F?iLobTemplate_s@ILob@@2V?$Persistent@VFunctionTemplate@v8@@V?$NonCopyablePersistentTraits@VFunctionTemplate@v8@@@2@@Nan@@A@@YAXXZ 00000001800696e0     njsIntLob.obj
 0002:000156e0       $stateUnwindMap$??_GConnImpl@@UEAAPEAXI@Z 00000001800696e0     dpiConnImpl.obj
 0002:000156e0       $stateUnwindMap$??1eBaton@@QEAA@XZ 00000001800696e0     njsConnection.obj
 0002:000156e0       $stateUnwindMap$??1?$Persistent@VFunction@v8@@V?$NonCopyablePersistentTraits@VFunction@v8@@@2@@Nan@@QEAA@XZ 00000001800696e0     njsOracle.obj
 0002:000156e0       $stateUnwindMap$??__Fclassic_locale@std@@YAXXZ 00000001800696e0     libcpmt:locale0.obj
 0002:000156e0       $stateUnwindMap$??1?$Persistent@VObject@v8@@V?$NonCopyablePersistentTraits@VObject@v8@@@2@@Nan@@QEAA@XZ 00000001800696e0     njsOracle.obj
 0002:000156e0       $stateUnwindMap$??__F?connectionTemplate_s@Connection@@2V?$Persistent@VFunctionTemplate@v8@@V?$NonCopyablePersistentTraits@VFunctionTemplate@v8@@@2@@Nan@@A@@YAXXZ 00000001800696e0     njsConnection.obj
 0002:000156e0       $stateUnwindMap$??_GDateTimeArrayImpl@dpi@@UEAAPEAXI@Z 00000001800696e0     dpiDateTimeArrayImpl.obj
 0002:000156e0       $stateUnwindMap$??1ObjectWrap@Nan@@UEAA@XZ 00000001800696e0     njsOracle.obj
 0002:000156e0       $stateUnwindMap$??1connectionBaton@@QEAA@XZ 00000001800696e0     njsOracle.obj
 0002:000156e0       $stateUnwindMap$??__F?oracledbTemplate_s@Oracledb@@0V?$Persistent@VFunctionTemplate@v8@@V?$NonCopyablePersistentTraits@VFunctionTemplate@v8@@@2@@Nan@@A@@YAXXZ 00000001800696e0     njsOracle.obj
 0002:000156e8       $ip2state$??1?$Persistent@VObject@v8@@V?$NonCopyablePersistentTraits@VObject@v8@@@2@@Nan@@QEAA@XZ 00000001800696e8     njsOracle.obj
 0002:000156e8       $ip2state$??1?$Persistent@VFunction@v8@@V?$NonCopyablePersistentTraits@VFunction@v8@@@2@@Nan@@QEAA@XZ 00000001800696e8     njsOracle.obj
 0002:000156f0       $unwind$?SetPrototypeMethod@Nan@@YAXV?$Local@VFunctionTemplate@v8@@@v8@@PEBDP6AXAEBV?$FunctionCallbackInfo@VValue@v8@@@1@@Z@Z 00000001800696f0     njsOracle.obj
 0002:00015708       $ip2state$?SetPrototypeMethod@Nan@@YAXV?$Local@VFunctionTemplate@v8@@@v8@@PEBDP6AXAEBV?$FunctionCallbackInfo@VValue@v8@@@1@@Z@Z 0000000180069708     njsOracle.obj
 0002:00015720       $unwind$?SetAccessor@Nan@@YAXV?$Local@VObjectTemplate@v8@@@v8@@V?$Local@VString@v8@@@3@P6AX1AEBV?$PropertyCallbackInfo@VValue@v8@@@1@@ZP6AX1V?$Local@VValue@v8@@@3@AEBV?$PropertyCallbackInfo@X@1@@Z4W4AccessControl@3@W4PropertyAttribute@3@V?$Local@VAccessorSignature@v8@@@3@@Z 0000000180069720     njsOracle.obj
 0002:00015740       $stateUnwindMap$?SetAccessor@Nan@@YAXV?$Local@VObjectTemplate@v8@@@v8@@V?$Local@VString@v8@@@3@P6AX1AEBV?$PropertyCallbackInfo@VValue@v8@@@1@@ZP6AX1V?$Local@VValue@v8@@@3@AEBV?$PropertyCallbackInfo@X@1@@Z4W4AccessControl@3@W4PropertyAttribute@3@V?$Local@VAccessorSignature@v8@@@3@@Z 0000000180069740     njsOracle.obj
 0002:00015750       $ip2state$?SetAccessor@Nan@@YAXV?$Local@VObjectTemplate@v8@@@v8@@V?$Local@VString@v8@@@3@P6AX1AEBV?$PropertyCallbackInfo@VValue@v8@@@1@@ZP6AX1V?$Local@VValue@v8@@@3@AEBV?$PropertyCallbackInfo@X@1@@Z4W4AccessControl@3@W4PropertyAttribute@3@V?$Local@VAccessorSignature@v8@@@3@@Z 0000000180069750     njsOracle.obj
 0002:00015778       $unwind$??1ObjectWrap@Nan@@UEAA@XZ 0000000180069778     njsOracle.obj
 0002:00015788       $ip2state$??1ObjectWrap@Nan@@UEAA@XZ 0000000180069788     njsOracle.obj
 0002:00015790       $unwind$?__scrt_initialize_thread_safe_statics@@YAHXZ 0000000180069790     LIBCMT:thread_safe_statics.obj
 0002:00015790       $unwind$?Wrap@ObjectWrap@Nan@@IEAAXV?$Local@VObject@v8@@@v8@@@Z 0000000180069790     njsOracle.obj
 0002:00015790       $unwind$__acrt_stdio_flush_nolock 0000000180069790     libucrt:fflush.obj
 0002:00015790       $unwind$__acrt_stdio_flush_and_write_narrow_nolock 0000000180069790     libucrt:_flsbuf.obj
 0002:00015790       $unwind$__acrt_execute_initializers 0000000180069790     libucrt:shared_initialization.obj
 0002:00015790       $unwind$__vcrt_FlsSetValue 0000000180069790     libvcruntime:winapi_downlevel.obj
 0002:00015790       $unwind$_RTC_Initialize    0000000180069790     LIBCMT:_initsect_.obj
 0002:00015790       $unwind$__acrt_stdio_flush_and_write_wide_nolock 0000000180069790     libucrt:_flsbuf.obj
 0002:00015790       $unwind$__acrt_InitializeCriticalSectionEx 0000000180069790     libucrt:winapi_thunks.obj
 0002:00015790       $unwind$??4?$_Yarn@D@std@@QEAAAEAV01@PEBD@Z 0000000180069790     libcpmt:locale0.obj
 0002:00015790       $unwind$__vcrt_getptd_noexit 0000000180069790     libvcruntime:per_thread_data.obj
 0002:00015790       $unwind$??$common_lseek_nolock@_J@@YA_JH_JH@Z 0000000180069790     libucrt:lseek.obj
 0002:00015790       $unwind$?_Tidy@ios_base@std@@AEAAXXZ 0000000180069790     libcpmt:ios.obj
 0002:00015790       $unwind$memcpy_s           0000000180069790     libucrt:strtod.obj
 0002:00015790       $unwind$?type_case_n@?$output_processor@DV?$string_output_adapter@D@__crt_stdio_output@@V?$format_validation_base@DV?$string_output_adapter@D@__crt_stdio_output@@@2@@__crt_stdio_output@@AEAA_NXZ 0000000180069790     libucrt:output.obj
 0002:00015790       $unwind$?type_case_s@?$output_processor@DV?$string_output_adapter@D@__crt_stdio_output@@V?$format_validation_base@DV?$string_output_adapter@D@__crt_stdio_output@@@2@@__crt_stdio_output@@AEAA_NXZ 0000000180069790     libucrt:output.obj
 0002:00015790       $unwind$?type_case_Z@?$output_processor@DV?$string_output_adapter@D@__crt_stdio_output@@V?$format_validation_base@DV?$string_output_adapter@D@__crt_stdio_output@@@2@@__crt_stdio_output@@AEAA_NXZ 0000000180069790     libucrt:output.obj
 0002:00015790       $unwind$?type_case_n@?$output_processor@_WV?$stream_output_adapter@_W@__crt_stdio_output@@V?$standard_base@_WV?$stream_output_adapter@_W@__crt_stdio_output@@@2@@__crt_stdio_output@@AEAA_NXZ 0000000180069790     libucrt:output.obj
 0002:00015790       $unwind$_exception_enabled 0000000180069790     libucrt:libm_error.obj
 0002:00015790       $unwind$?free_crt_array_internal@@YAXQEAPEBX_K@Z 0000000180069790     libucrt:inittime.obj
 0002:00015790       $unwind$memcpy_s           0000000180069790     libucrt:cfout.obj
 0002:00015790       $unwind$?type_case_n@?$output_processor@_WV?$string_output_adapter@_W@__crt_stdio_output@@V?$standard_base@_WV?$string_output_adapter@_W@__crt_stdio_output@@@2@@__crt_stdio_output@@AEAA_NXZ 0000000180069790     libucrt:output.obj
 0002:00015790       $unwind$?type_case_s@?$output_processor@_WV?$string_output_adapter@_W@__crt_stdio_output@@V?$standard_base@_WV?$string_output_adapter@_W@__crt_stdio_output@@@2@@__crt_stdio_output@@AEAA_NXZ 0000000180069790     libucrt:output.obj
 0002:00015790       $unwind$?type_case_Z@?$output_processor@_WV?$string_output_adapter@_W@__crt_stdio_output@@V?$standard_base@_WV?$string_output_adapter@_W@__crt_stdio_output@@@2@@__crt_stdio_output@@AEAA_NXZ 0000000180069790     libucrt:output.obj
 0002:00015790       $unwind$??_G?$basic_streambuf@DU?$char_traits@D@std@@@std@@UEAAPEAXI@Z 0000000180069790     njsOracle.obj
 0002:00015790       $unwind$??0_Init_locks@std@@QEAA@XZ 0000000180069790     libcpmt:xlock.obj
 0002:00015790       $unwind$?type_case_n@?$output_processor@DV?$string_output_adapter@D@__crt_stdio_output@@V?$standard_base@DV?$string_output_adapter@D@__crt_stdio_output@@@2@@__crt_stdio_output@@AEAA_NXZ 0000000180069790     libucrt:output.obj
 0002:00015790       $unwind$?type_case_s@?$output_processor@DV?$string_output_adapter@D@__crt_stdio_output@@V?$standard_base@DV?$string_output_adapter@D@__crt_stdio_output@@@2@@__crt_stdio_output@@AEAA_NXZ 0000000180069790     libucrt:output.obj
 0002:00015790       $unwind$?type_case_Z@?$output_processor@DV?$string_output_adapter@D@__crt_stdio_output@@V?$standard_base@DV?$string_output_adapter@D@__crt_stdio_output@@@2@@__crt_stdio_output@@AEAA_NXZ 0000000180069790     libucrt:output.obj
 0002:00015790       $unwind$_Getcvt            0000000180069790     libcpmt:xwctomb.obj
 0002:00015790       $unwind$_DllMainCRTStartup 0000000180069790     LIBCMT:dll_dllmain.obj
 0002:00015790       $unwind$?type_case_Z@?$output_processor@_WV?$stream_output_adapter@_W@__crt_stdio_output@@V?$standard_base@_WV?$stream_output_adapter@_W@__crt_stdio_output@@@2@@__crt_stdio_output@@AEAA_NXZ 0000000180069790     libucrt:output.obj
 0002:00015790       $unwind$?type_case_s@?$output_processor@_WV?$stream_output_adapter@_W@__crt_stdio_output@@V?$standard_base@_WV?$stream_output_adapter@_W@__crt_stdio_output@@@2@@__crt_stdio_output@@AEAA_NXZ 0000000180069790     libucrt:output.obj
 0002:00015790       $unwind$_RTC_Terminate     0000000180069790     LIBCMT:_initsect_.obj
 0002:000157a0       $unwind$??0connectionBaton@@QEAA@V?$Local@VFunction@v8@@@v8@@V?$Local@VObject@v8@@@2@@Z 00000001800697a0     njsOracle.obj
 0002:000157bc       $stateUnwindMap$??0connectionBaton@@QEAA@V?$Local@VFunction@v8@@@v8@@V?$Local@VObject@v8@@@2@@Z 00000001800697bc     njsOracle.obj
 0002:00015800       $ip2state$??0connectionBaton@@QEAA@V?$Local@VFunction@v8@@@v8@@V?$Local@VObject@v8@@@2@@Z 0000000180069800     njsOracle.obj
 0002:00015848       $unwind$??1connectionBaton@@QEAA@XZ 0000000180069848     njsOracle.obj
 0002:00015860       $ip2state$??1connectionBaton@@QEAA@XZ 0000000180069860     njsOracle.obj
 0002:00015868       $unwind$??__F?oracledbTemplate_s@Oracledb@@0V?$Persistent@VFunctionTemplate@v8@@V?$NonCopyablePersistentTraits@VFunctionTemplate@v8@@@2@@Nan@@A@@YAXXZ 0000000180069868     njsOracle.obj
 0002:00015878       $ip2state$??__F?oracledbTemplate_s@Oracledb@@0V?$Persistent@VFunctionTemplate@v8@@V?$NonCopyablePersistentTraits@VFunctionTemplate@v8@@@2@@Nan@@A@@YAXXZ 0000000180069878     njsOracle.obj
 0002:00015880       $unwind$??0Oracledb@@AEAA@XZ 0000000180069880     njsOracle.obj
 0002:000158a4       $stateUnwindMap$??0Oracledb@@AEAA@XZ 00000001800698a4     njsOracle.obj
 0002:000158e0       $ip2state$??0Oracledb@@AEAA@XZ 00000001800698e0     njsOracle.obj
 0002:00015938       $unwind$?dtor$2@?0??Descr2protoILob@Connection@@CAXPEAUeBaton@@II@Z@4HA 0000000180069938     njsConnection.obj
 0002:00015938       $unwind$?dtor$1@?0??Descr2protoILob@Connection@@CAXPEAUeBaton@@II@Z@4HA 0000000180069938     njsConnection.obj
 0002:00015938       $unwind$?dtor$0@?0??Descr2protoILob@Connection@@CAXPEAUeBaton@@II@Z@4HA 0000000180069938     njsConnection.obj
 0002:00015938       $unwind$_IsNonwritableInCurrentImage$filt$0 0000000180069938     LIBCMT:pesect.obj
 0002:00015938       $unwind$?dtor$0@?0??getErrorMsg@NJSMessages@@SA?AV?$basic_string@DU?$char_traits@D@std@@V?$allocator@D@2@@std@@W4NJSErrorType@@ZZ@4HA 0000000180069938     njsMessages.obj
 0002:00015938       $unwind$?fin$0@?0???_L@YAXPEAX_K1P6AX0@Z2@Z@4HA 0000000180069938     LIBCMT:ehvecctr.obj
 0002:00015938       $unwind$?fin$0@?0???$?RV<lambda_2d41944a1d46af3157314b8a01080d33>@@AEAV<lambda_8f455de75cd7d7f24b4096f044d8b9e6>@@V<lambda_aa500f224e6afead328df44964fe2772>@@@?$__crt_seh_guarded_call@X@@QEAAX$$QEAV<lambda_2d41944a1d46af3157314b8a01080d33>@@AEAV<lambda_8f455de75cd7d7f24b4096f044d8b9e6>@@$$QEAV<lambda_aa500f224e6afead328df44964fe2772>@@@Z@4HA 0000000180069938     libucrt:per_thread_data.obj
 0002:00015938       $unwind$?fin$0@?0???_M@YAXPEAX_K1P6AX0@Z@Z@4HA 0000000180069938     LIBCMT:ehvecdtr.obj
 0002:00015938       $unwind$?fin$0@?0???$?RV<lambda_f2e299630e499de9f9a165e60fcd3db5>@@AEAV<lambda_2ae9d31cdba2644fcbeaf08da7c24588>@@V<lambda_40d01ff24d0e7b3814fdbdcee8eab3c7>@@@?$__crt_seh_guarded_call@X@@QEAAX$$QEAV<lambda_f2e299630e499de9f9a165e60fcd3db5>@@AEAV<lambda_2ae9d31cdba2644fcbeaf08da7c24588>@@$$QEAV<lambda_40d01ff24d0e7b3814fdbdcee8eab3c7>@@@Z@4HA 0000000180069938     libucrt:per_thread_data.obj
 0002:00015938       $unwind$?filt$0@?0??__ArrayUnwind@@YAXPEAX_K1P6AX0@Z@Z@4HA 0000000180069938     LIBCMT:ehvecdtr.obj
 0002:00015938       $unwind$?fin$0@?0???$?RV<lambda_aa87e3671a710a21b5dc78c0bdf72e11>@@AEAV<lambda_92619d2358a28f41a33ba319515a20b9>@@V<lambda_6992ecaafeb10aed2b74cb1fae11a551>@@@?$__crt_seh_guarded_call@X@@QEAAX$$QEAV<lambda_aa87e3671a710a21b5dc78c0bdf72e11>@@AEAV<lambda_92619d2358a28f41a33ba319515a20b9>@@$$QEAV<lambda_6992ecaafeb10aed2b74cb1fae11a551>@@@Z@4HA 0000000180069938     libucrt:per_thread_data.obj
 0002:00015938       $unwind$?fin$0@?0???$?RV<lambda_0ae27a3a962d80f24befdcbee591983d>@@AEAV<lambda_8d0ee55de4b1038c4002e0adecdf1839>@@V<lambda_dc504788e8f1664fe9b84e20bfb512f2>@@@?$__crt_seh_guarded_call@X@@QEAAX$$QEAV<lambda_0ae27a3a962d80f24befdcbee591983d>@@AEAV<lambda_8d0ee55de4b1038c4002e0adecdf1839>@@$$QEAV<lambda_dc504788e8f1664fe9b84e20bfb512f2>@@@Z@4HA 0000000180069938     libucrt:per_thread_data.obj
 0002:00015938       $unwind$?fin$0@?0???$?RV<lambda_d8a01803c7231904df012bb083be9e3a>@@AEAV<lambda_b163b37eafe0a13f2c371fafeb0365c9>@@AEAV<lambda_8dff2cf36a5417162780cd64fa2883ef>@@@?$__crt_seh_guarded_call@X@@QEAAX$$QEAV<lambda_d8a01803c7231904df012bb083be9e3a>@@AEAV<lambda_b163b37eafe0a13f2c371fafeb0365c9>@@AEAV<lambda_8dff2cf36a5417162780cd64fa2883ef>@@@Z@4HA 0000000180069938     libucrt:wsetlocale.obj
 0002:00015938       $unwind$?fin$0@?0???$?RV<lambda_751a882b2c74d4b022dec766aa51a29a>@@AEAV<lambda_628dfdc04ba53c8bfc02c9951375f3f5>@@V<lambda_f6c7be5f7998530c34de24c7437d6b54>@@@?$__crt_seh_guarded_call@H@@QEAAH$$QEAV<lambda_751a882b2c74d4b022dec766aa51a29a>@@AEAV<lambda_628dfdc04ba53c8bfc02c9951375f3f5>@@$$QEAV<lambda_f6c7be5f7998530c34de24c7437d6b54>@@@Z@4HA 0000000180069938     libucrt:close.obj
 0002:00015938       $unwind$?dtor$1@?0??Async_Execute@Connection@@CAXPEAUuv_work_s@@@Z@4HA 0000000180069938     njsConnection.obj
 0002:00015938       $unwind$?dtor$4@?0??Release@Connection@@CAXAEBV?$FunctionCallbackInfo@VValue@v8@@@Nan@@@Z@4HA 0000000180069938     njsConnection.obj
 0002:00015938       $unwind$?dtor$8@?0??Async_Execute@Connection@@CAXPEAUuv_work_s@@@Z@4HA 0000000180069938     njsConnection.obj
 0002:00015938       $unwind$?fin$0@?0???$?RV<lambda_a37b2b86f63e897a80ea819b0eb08c01>@@AEAV<lambda_38ce7e780aa69e748d6df282ebc68efe>@@V<lambda_99fb1378e971ab6e7edea83e3a7a83a2>@@@?$__crt_seh_guarded_call@H@@QEAAH$$QEAV<lambda_a37b2b86f63e897a80ea819b0eb08c01>@@AEAV<lambda_38ce7e780aa69e748d6df282ebc68efe>@@$$QEAV<lambda_99fb1378e971ab6e7edea83e3a7a83a2>@@@Z@4HA 0000000180069938     libucrt:commit.obj
 0002:00015938       $unwind$?dtor$3@?0??Commit@Connection@@CAXAEBV?$FunctionCallbackInfo@VValue@v8@@@Nan@@@Z@4HA 0000000180069938     njsConnection.obj
 0002:00015938       $unwind$?fin$0@?0???$?RV<lambda_9529fede68560d7205a1271ab16b352e>@@AEAV<lambda_ebf8c556deb379764da826e7bb46e993>@@V<lambda_db92443d3c9ace7c8a20b950bb983b5a>@@@?$__crt_seh_guarded_call@X@@QEAAX$$QEAV<lambda_9529fede68560d7205a1271ab16b352e>@@AEAV<lambda_ebf8c556deb379764da826e7bb46e993>@@$$QEAV<lambda_db92443d3c9ace7c8a20b950bb983b5a>@@@Z@4HA 0000000180069938     libucrt:wsetlocale.obj
 0002:00015938       $unwind$?fin$0@?0??dllmain_crt_process_attach@@YAHQEAUHINSTANCE__@@QEAX@Z@4HA 0000000180069938     LIBCMT:dll_dllmain.obj
 0002:00015938       $unwind$?fin$0@?0???$?RV<lambda_410d79af7f07d98d83a3f525b3859a53>@@AEAV<lambda_3e16ef9562a7dcce91392c22ab16ea36>@@V<lambda_38119f0e861e05405d8a144b9b982f0a>@@@?$__crt_seh_guarded_call@X@@QEAAX$$QEAV<lambda_410d79af7f07d98d83a3f525b3859a53>@@AEAV<lambda_3e16ef9562a7dcce91392c22ab16ea36>@@$$QEAV<lambda_38119f0e861e05405d8a144b9b982f0a>@@@Z@4HA 0000000180069938     libucrt:wsetlocale.obj
 0002:00015938       $unwind$?fin$0@?0??dllmain_crt_process_detach@@YAH_N@Z@4HA 0000000180069938     LIBCMT:dll_dllmain.obj
 0002:00015938       $unwind$?dtor$0@?0??getStmt@ConnImpl@@UEAAPEAVStmt@dpi@@AEBV?$basic_string@DU?$char_traits@D@std@@V?$allocator@D@2@@std@@@Z@4HA 0000000180069938     dpiConnImpl.obj
 0002:00015938       $unwind$?dtor$2@?0??GetConnection@Oracledb@@CAXAEBV?$FunctionCallbackInfo@VValue@v8@@@Nan@@@Z@4HA 0000000180069938     njsOracle.obj
 0002:00015938       $unwind$?dtor$1@?0??Async_GetConnection@Oracledb@@CAXPEAUuv_work_s@@@Z@4HA 0000000180069938     njsOracle.obj
 0002:00015938       $unwind$?dtor$3@?0??CreatePool@Oracledb@@CAXAEBV?$FunctionCallbackInfo@VValue@v8@@@Nan@@@Z@4HA 0000000180069938     njsOracle.obj
 0002:00015938       $unwind$?fin$0@?0???$?RV<lambda_bd00b5aa228bd7e7e5b2b5db5fd2933b>@@AEAV<lambda_777d11615145f89ee95b9466d285deeb>@@V<lambda_6e5e48fbd24f9f8f81b203eb3d877683>@@@?$__crt_seh_guarded_call@H@@QEAAH$$QEAV<lambda_bd00b5aa228bd7e7e5b2b5db5fd2933b>@@AEAV<lambda_777d11615145f89ee95b9466d285deeb>@@$$QEAV<lambda_6e5e48fbd24f9f8f81b203eb3d877683>@@@Z@4HA 0000000180069938     libucrt:winapi_thunks.obj
 0002:00015938       $unwind$?dtor$1@?0??Async_CreatePool@Oracledb@@CAXPEAUuv_work_s@@@Z@4HA 0000000180069938     njsOracle.obj
 0002:00015938       $unwind$?dtor$3@?0??Rollback@Connection@@CAXAEBV?$FunctionCallbackInfo@VValue@v8@@@Nan@@@Z@4HA 0000000180069938     njsConnection.obj
 0002:00015938       $unwind$_fcloseall$fin$0   0000000180069938     libucrt:closeall.obj
 0002:00015938       $unwind$?dtor$0@?0??setResultSet@ResultSet@@QEAAXPEAVStmt@dpi@@PEAUeBaton@@IPEBUMetaInfo@@@Z@4HA 0000000180069938     njsResultSet.obj
 0002:00015938       $unwind$?dtor$18@?0??GetInBindParamsScalar@Connection@@CAXV?$Local@VValue@v8@@@v8@@PEAUBind@@PEAUeBaton@@@Z@4HA 0000000180069938     njsConnection.obj
 0002:00015938       $unwind$?dtor$3@?0??Break@Connection@@CAXAEBV?$FunctionCallbackInfo@VValue@v8@@@Nan@@@Z@4HA 0000000180069938     njsConnection.obj
 0002:00015938       $unwind$?fin$0@?0???$?RV<lambda_7777bce6b2f8c936911f934f8298dc43>@@AEAV<lambda_f03950bc5685219e0bcd2087efbe011e>@@V<lambda_3883c3dff614d5e0c5f61bb1ac94921c>@@@?$__crt_seh_guarded_call@H@@QEAAH$$QEAV<lambda_7777bce6b2f8c936911f934f8298dc43>@@AEAV<lambda_f03950bc5685219e0bcd2087efbe011e>@@$$QEAV<lambda_3883c3dff614d5e0c5f61bb1ac94921c>@@@Z@4HA 0000000180069938     libucrt:onexit.obj
 0002:00015938       $unwind$?fin$0@?0???$?RV<lambda_c376a267cfb53b6959b3b692ec76b120>@@AEAV<lambda_9a32fed5bf61b6b509b2d3f6003082a1>@@V<lambda_572fbb9fa0ab338edf41edfd4b5fcc8d>@@@?$__crt_seh_guarded_call@H@@QEAAH$$QEAV<lambda_c376a267cfb53b6959b3b692ec76b120>@@AEAV<lambda_9a32fed5bf61b6b509b2d3f6003082a1>@@$$QEAV<lambda_572fbb9fa0ab338edf41edfd4b5fcc8d>@@@Z@4HA 0000000180069938     libucrt:fflush.obj
 0002:00015938       $unwind$?dtor$4@?0???6?$basic_ostream@DU?$char_traits@D@std@@@std@@QEAAAEAV01@H@Z@4HA 0000000180069938     njsOracle.obj
 0002:00015938       $unwind$?fin$0@?0???$?RV<lambda_450d765d439847d4c735a33c368b5fc0>@@AEAV<lambda_44731a7d0e6d81c3e6aa82d741081786>@@V<lambda_601a2a7da3b7a96e9554ac7215c4b07c>@@@?$__crt_seh_guarded_call@P6AXH@Z@@QEAAP6AXH@Z$$QEAV<lambda_450d765d439847d4c735a33c368b5fc0>@@AEAV<lambda_44731a7d0e6d81c3e6aa82d741081786>@@$$QEAV<lambda_601a2a7da3b7a96e9554ac7215c4b07c>@@@Z@4HA 0000000180069938     libucrt:signal.obj
 0002:00015938       $unwind$?fin$0@?0???$?RV<lambda_8369fcb7c4df1e85de37618bd2b85f07>@@AEAV<lambda_a10e4b102d4a2c3aac6f4f48bbdf488f>@@V<lambda_5b7707bd6d7a0c4713179f36c7fd995d>@@@?$__crt_seh_guarded_call@H@@QEAAH$$QEAV<lambda_8369fcb7c4df1e85de37618bd2b85f07>@@AEAV<lambda_a10e4b102d4a2c3aac6f4f48bbdf488f>@@$$QEAV<lambda_5b7707bd6d7a0c4713179f36c7fd995d>@@@Z@4HA 0000000180069938     libucrt:onexit.obj
 0002:00015938       $unwind$?dtor$3@?0??Write@ILob@@CAXAEBV?$FunctionCallbackInfo@VValue@v8@@@Nan@@@Z@4HA 0000000180069938     njsIntLob.obj
 0002:00015938       $unwind$?dtor$3@?0??CreateLob@Connection@@CAXAEBV?$FunctionCallbackInfo@VValue@v8@@@Nan@@@Z@4HA 0000000180069938     njsConnection.obj
 0002:00015938       $unwind$?dtor$2@?0??GetBinds@Connection@@CAXV?$Local@VObject@v8@@@v8@@PEAUeBaton@@@Z@4HA 0000000180069938     njsConnection.obj
 0002:00015938       $unwind$?dtor$3@?0??Async_AfterCreateLob@Connection@@CAXPEAUuv_work_s@@@Z@4HA 0000000180069938     njsConnection.obj
 0002:00015938       $unwind$?fin$0@?0???$?RV<lambda_9bd929c17696992ce54f1d748594fc62>@@AEAV<lambda_082c17da81b0962e08c0587ee0fac50c>@@V<lambda_9c08ac857f4975304d44e9f601d9b878>@@@?$__crt_seh_guarded_call@PEAD@@QEAAPEAD$$QEAV<lambda_9bd929c17696992ce54f1d748594fc62>@@AEAV<lambda_082c17da81b0962e08c0587ee0fac50c>@@$$QEAV<lambda_9c08ac857f4975304d44e9f601d9b878>@@@Z@4HA 0000000180069938     libucrt:setlocale.obj
 0002:00015938       $unwind$?dtor$8@?0??ProcessOptions@Connection@@CAXAEBV?$FunctionCallbackInfo@VValue@v8@@@Nan@@IPEAUeBaton@@@Z@4HA 0000000180069938     njsConnection.obj
 0002:00015938       $unwind$?dtor$4@?0??ProcessBinds@Connection@@CAXAEBV?$FunctionCallbackInfo@VValue@v8@@@Nan@@IPEAUeBaton@@@Z@4HA 0000000180069938     njsConnection.obj
 0002:00015938       $unwind$__acrt_initialize_lowio$fin$0 0000000180069938     libucrt:ioinit.obj
 0002:00015938       $unwind$?dtor$0@?0??getConnection@PoolImpl@@UEAAPEAVConn@dpi@@AEBV?$basic_string@DU?$char_traits@D@std@@V?$allocator@D@2@@std@@000HW4DBPrivileges@3@@Z@4HA 0000000180069938     dpiPoolImpl.obj
 0002:00015938       $unwind$_query_new_handler$fin$0 0000000180069938     libucrt:new_handler.obj
 0002:00015938       $unwind$?dtor$2@?0???0rsBaton@@QEAA@AEAIV?$Local@VFunction@v8@@@v8@@V?$Local@VObject@v8@@@2@2@Z@4HA 0000000180069938     njsResultSet.obj
 0002:00015938       $unwind$__acrt_update_thread_locale_data$fin$0 0000000180069938     libucrt:locale_refcounting.obj
 0002:00015938       $unwind$__DestructExceptionObject$filt$0 0000000180069938     libvcruntime:ehhelpers.obj
 0002:00015938       $unwind$?dtor$2@?0???$use_facet@V?$ctype@D@std@@@std@@YAAEBV?$ctype@D@0@AEBVlocale@0@@Z@4HA 0000000180069938     njsOracle.obj
 0002:00015938       $unwind$__CxxCallCatchBlock$filt$0 0000000180069938     libvcruntime:frame.obj
 0002:00015938       $unwind$?dtor$3@?0??Execute@Connection@@CAXAEBV?$FunctionCallbackInfo@VValue@v8@@@Nan@@@Z@4HA 0000000180069938     njsConnection.obj
 0002:00015938       $unwind$?dtor$0@?0??createPool@EnvImpl@@UEAAPEAVSPool@dpi@@AEBV?$basic_string@DU?$char_traits@D@std@@V?$allocator@D@2@@std@@00HHHHH_N1H@Z@4HA 0000000180069938     dpiEnvImpl.obj
 0002:00015938       $unwind$?fin$0@?0???$?RV<lambda_efdfa57d1f175319df784efa44bb7b81>@@AEAV<lambda_5f0a4c1567f8adc6734073e5d1e1b35c>@@V<lambda_2e8a7d3640ea6ccb4c2413664c2db6fd>@@@?$__crt_seh_guarded_call@X@@QEAAX$$QEAV<lambda_efdfa57d1f175319df784efa44bb7b81>@@AEAV<lambda_5f0a4c1567f8adc6734073e5d1e1b35c>@@$$QEAV<lambda_2e8a7d3640ea6ccb4c2413664c2db6fd>@@@Z@4HA 0000000180069938     libucrt:mbctype.obj
 0002:00015938       $unwind$?fin$0@?0???$?RV<lambda_0d412022a4b28cc8a401ea49574e8ae6>@@AEAV<lambda_a775ed57af18ba8e4d5dc780aa9068fe>@@V<lambda_975a71a6baa488a08f4e15f6b0339b9e>@@@?$__crt_seh_guarded_call@H@@QEAAH$$QEAV<lambda_0d412022a4b28cc8a401ea49574e8ae6>@@AEAV<lambda_a775ed57af18ba8e4d5dc780aa9068fe>@@$$QEAV<lambda_975a71a6baa488a08f4e15f6b0339b9e>@@@Z@4HA 0000000180069938     libucrt:output.obj
 0002:00015938       $unwind$__acrt_lowio_ensure_fh_exists$fin$0 0000000180069938     libucrt:osfinfo.obj
 0002:00015938       $unwind$__FrameUnwindToState$filt$0 0000000180069938     libvcruntime:frame.obj
 0002:00015938       $unwind$?dtor$3@?0??Read@ILob@@CAXAEBV?$FunctionCallbackInfo@VValue@v8@@@Nan@@@Z@4HA 0000000180069938     njsIntLob.obj
 0002:00015938       $unwind$__FrameUnwindToState$fin$1 0000000180069938     libvcruntime:frame.obj
 0002:00015938       $unwind$_ctrlfp$filt$0     0000000180069938     libucrt:fpctrl.obj
 0002:00015938       $unwind$?dtor$0@?0??getConnection@EnvImpl@@UEAAPEAVConn@dpi@@AEBV?$basic_string@DU?$char_traits@D@std@@V?$allocator@D@2@@std@@00H0_NW4DBPrivileges@3@@Z@4HA 0000000180069938     dpiEnvImpl.obj
 0002:00015938       $unwind$?dtor$0@?0??New@Oracledb@@CAXAEBV?$FunctionCallbackInfo@VValue@v8@@@Nan@@@Z@4HA 0000000180069938     njsOracle.obj
 0002:00015938       $unwind$?dtor$1@?0??_Getcat@?$numpunct@D@std@@SA_KPEAPEBVfacet@locale@2@PEBV42@@Z@4HA 0000000180069938     njsOracle.obj
 0002:00015938       $unwind$?dtor$0@?0??_Getcat@?$numpunct@D@std@@SA_KPEAPEBVfacet@locale@2@PEBV42@@Z@4HA 0000000180069938     njsOracle.obj
 0002:00015938       $unwind$?fin$0@?0???$common_lseek@_J@@YA_JH_JH@Z@4HA 0000000180069938     libucrt:lseek.obj
 0002:00015938       $unwind$?fin$0@?0??update_thread_multibyte_data_internal@@YAPEAU__crt_multibyte_data@@QEAU__acrt_ptd@@QEAU1@@Z@4HA 0000000180069938     libucrt:mbctype.obj
 0002:00015938       $unwind$?fin$0@?0???$?RV<lambda_886d6c58226a84441f68b9f2b8217b83>@@AEAV<lambda_ab61a845afdef5b7c387490eaf3616ee>@@V<lambda_f7f22ab5edc0698d5f6905b0d3f44752>@@@?$__crt_seh_guarded_call@X@@QEAAX$$QEAV<lambda_886d6c58226a84441f68b9f2b8217b83>@@AEAV<lambda_ab61a845afdef5b7c387490eaf3616ee>@@$$QEAV<lambda_f7f22ab5edc0698d5f6905b0d3f44752>@@@Z@4HA 0000000180069938     libucrt:fflush.obj
 0002:00015938       $unwind$?fin$0@?0???$?RV<lambda_842d9ff0dc9ef11c61343bbaebe7f885>@@AEAV<lambda_c5860995281e5c4ce005b3de8f5874ee>@@V<lambda_d90129c13df834fdcbf8d2b88dafcf2d>@@@?$__crt_seh_guarded_call@X@@QEAAX$$QEAV<lambda_842d9ff0dc9ef11c61343bbaebe7f885>@@AEAV<lambda_c5860995281e5c4ce005b3de8f5874ee>@@$$QEAV<lambda_d90129c13df834fdcbf8d2b88dafcf2d>@@@Z@4HA 0000000180069938     libucrt:fflush.obj
 0002:00015938       $unwind$?dtor$3@?0??Close@ResultSet@@CAXAEBV?$FunctionCallbackInfo@VValue@v8@@@Nan@@@Z@4HA 0000000180069938     njsResultSet.obj
 0002:00015938       $unwind$?fin$0@?0???$?RV<lambda_84ec643ea9557e2f7dc01bb0e9624395>@@AEAV<lambda_ca71763b3c0644891230e4f79ea54fa6>@@V<lambda_439a761618c59b0600e24586724d733b>@@@?$__crt_seh_guarded_call@H@@QEAAH$$QEAV<lambda_84ec643ea9557e2f7dc01bb0e9624395>@@AEAV<lambda_ca71763b3c0644891230e4f79ea54fa6>@@$$QEAV<lambda_439a761618c59b0600e24586724d733b>@@@Z@4HA 0000000180069938     libucrt:setvbuf.obj
 0002:00015938       $unwind$?dtor$3@?0??GetRows@ResultSet@@CAXAEBV?$FunctionCallbackInfo@VValue@v8@@@Nan@@@Z@4HA 0000000180069938     njsResultSet.obj
 0002:00015938       $unwind$?dtor$0@?0???0?$basic_stringstream@DU?$char_traits@D@std@@V?$allocator@D@2@@std@@QEAA@H@Z@4HA 0000000180069938     njsOracle.obj
 0002:00015938       $unwind$raise$fin$0        0000000180069938     libucrt:signal.obj
 0002:00015938       $unwind$_write$fin$0       0000000180069938     libucrt:write.obj
 0002:00015938       $unwind$?fin$0@?0???$?RV<lambda_d80eeec6fff315bfe5c115232f3240e3>@@AEAV<lambda_6e4b09c48022b2350581041d5f6b0c4c>@@V<lambda_2358e3775559c9db80273638284d5e45>@@@?$__crt_seh_guarded_call@X@@QEAAX$$QEAV<lambda_d80eeec6fff315bfe5c115232f3240e3>@@AEAV<lambda_6e4b09c48022b2350581041d5f6b0c4c>@@$$QEAV<lambda_2358e3775559c9db80273638284d5e45>@@@Z@4HA 0000000180069938     libucrt:exit.obj
 0002:00015938       $unwind$?dtor$11@?0???0Oracledb@@AEAA@XZ@4HA 0000000180069938     njsOracle.obj
 0002:00015938       $unwind$?dtor$2@?0??Terminate@Pool@@CAXAEBV?$FunctionCallbackInfo@VValue@v8@@@Nan@@@Z@4HA 0000000180069938     njsPool.obj
 0002:00015938       $unwind$?dtor$4@?0??Close@ILob@@CAXAEBV?$FunctionCallbackInfo@VValue@v8@@@Nan@@@Z@4HA 0000000180069938     njsIntLob.obj
 0002:00015938       $unwind$?dtor$4@?0??Async_GetConnection@Pool@@CAXPEAUuv_work_s@@@Z@4HA 0000000180069938     njsPool.obj
 0002:00015938       $unwind$?dtor$2@?0??GetConnection@Pool@@CAXAEBV?$FunctionCallbackInfo@VValue@v8@@@Nan@@@Z@4HA 0000000180069938     njsPool.obj
 0002:00015938       $unwind$?dtor$3@?0??GetRow@ResultSet@@CAXAEBV?$FunctionCallbackInfo@VValue@v8@@@Nan@@@Z@4HA 0000000180069938     njsResultSet.obj
 0002:00015938       $unwind$?dtor$3@?0??PrepareAndBind@Connection@@CAXPEAUeBaton@@@Z@4HA 0000000180069938     njsConnection.obj
 0002:00015938       $unwind$?filt$0@?0???R<lambda_6e4b09c48022b2350581041d5f6b0c4c>@@QEBA@XZ@4HA 0000000180069938     libucrt:exit.obj
 0002:00015938       $unwind$fclose$fin$0       0000000180069938     libucrt:fclose.obj
 0002:00015940       $unwind$??1Oracledb@@EEAA@XZ 0000000180069940     njsOracle.obj
 0002:00015958       $stateUnwindMap$??_GConnection@@EEAAPEAXI@Z 0000000180069958     njsConnection.obj
 0002:00015958       $stateUnwindMap$??_GPool@@EEAAPEAXI@Z 0000000180069958     njsPool.obj
 0002:00015958       $stateUnwindMap$??_GrsBaton@@QEAAPEAXI@Z 0000000180069958     njsResultSet.obj
 0002:00015958       $stateUnwindMap$??_GResultSet@@UEAAPEAXI@Z 0000000180069958     njsResultSet.obj
 0002:00015958       $stateUnwindMap$??1Oracledb@@EEAA@XZ 0000000180069958     njsOracle.obj
 0002:00015968       $ip2state$??1Oracledb@@EEAA@XZ 0000000180069968     njsOracle.obj
 0002:00015980       $unwind$?Init@Oracledb@@SAXV?$Local@VObject@v8@@@v8@@@Z 0000000180069980     njsOracle.obj
 0002:00015998       $stateUnwindMap$?Init@ILob@@SAXV?$Local@VObject@v8@@@v8@@@Z 0000000180069998     njsIntLob.obj
 0002:00015998       $stateUnwindMap$?Init@Connection@@SAXV?$Local@VObject@v8@@@v8@@@Z 0000000180069998     njsConnection.obj
 0002:00015998       $stateUnwindMap$?Init@ResultSet@@SAXV?$Local@VObject@v8@@@v8@@@Z 0000000180069998     njsResultSet.obj
 0002:00015998       $stateUnwindMap$?Init@Pool@@SAXV?$Local@VObject@v8@@@v8@@@Z 0000000180069998     njsPool.obj
 0002:00015998       $stateUnwindMap$?Init@Oracledb@@SAXV?$Local@VObject@v8@@@v8@@@Z 0000000180069998     njsOracle.obj
 0002:000159a8       $ip2state$?Init@Oracledb@@SAXV?$Local@VObject@v8@@@v8@@@Z 00000001800699a8     njsOracle.obj
 0002:000159d0       $unwind$?New@Oracledb@@CAXAEBV?$FunctionCallbackInfo@VValue@v8@@@Nan@@@Z 00000001800699d0     njsOracle.obj
 0002:000159e8       $stateUnwindMap$?New@Oracledb@@CAXAEBV?$FunctionCallbackInfo@VValue@v8@@@Nan@@@Z 00000001800699e8     njsOracle.obj
 0002:000159f0       $ip2state$?New@Oracledb@@CAXAEBV?$FunctionCallbackInfo@VValue@v8@@@Nan@@@Z 00000001800699f0     njsOracle.obj
 0002:00015a08       $unwind$?GetPoolMin@Oracledb@@CAXV?$Local@VString@v8@@@v8@@AEBV?$PropertyCallbackInfo@VValue@v8@@@Nan@@@Z 0000000180069a08     njsOracle.obj
 0002:00015a1c       $stateUnwindMap$?SetOracleServerVersion@Connection@@CAXV?$Local@VString@v8@@@v8@@V?$Local@VValue@v8@@@3@AEBV?$PropertyCallbackInfo@X@Nan@@@Z 0000000180069a1c     njsConnection.obj
 0002:00015a1c       $stateUnwindMap$?GetPoolIncrement@Pool@@CAXV?$Local@VString@v8@@@v8@@AEBV?$PropertyCallbackInfo@VValue@v8@@@Nan@@@Z 0000000180069a1c     njsPool.obj
 0002:00015a1c       $stateUnwindMap$?GetPoolTimeout@Oracledb@@CAXV?$Local@VString@v8@@@v8@@AEBV?$PropertyCallbackInfo@VValue@v8@@@Nan@@@Z 0000000180069a1c     njsOracle.obj
 0002:00015a1c       $stateUnwindMap$?SetAutoCommit@Oracledb@@CAXV?$Local@VString@v8@@@v8@@V?$Local@VValue@v8@@@3@AEBV?$PropertyCallbackInfo@X@Nan@@@Z 0000000180069a1c     njsOracle.obj
 0002:00015a1c       $stateUnwindMap$?GetPoolTimeout@Pool@@CAXV?$Local@VString@v8@@@v8@@AEBV?$PropertyCallbackInfo@VValue@v8@@@Nan@@@Z 0000000180069a1c     njsPool.obj
 0002:00015a1c       $stateUnwindMap$?GetPrefetchRows@Oracledb@@CAXV?$Local@VString@v8@@@v8@@AEBV?$PropertyCallbackInfo@VValue@v8@@@Nan@@@Z 0000000180069a1c     njsOracle.obj
 0002:00015a1c       $stateUnwindMap$?SetType@ILob@@CAXV?$Local@VString@v8@@@v8@@V?$Local@VValue@v8@@@3@AEBV?$PropertyCallbackInfo@X@Nan@@@Z 0000000180069a1c     njsIntLob.obj
 0002:00015a1c       $stateUnwindMap$?SetExternalAuth@Oracledb@@CAXV?$Local@VString@v8@@@v8@@V?$Local@VValue@v8@@@3@AEBV?$PropertyCallbackInfo@X@Nan@@@Z 0000000180069a1c     njsOracle.obj
 0002:00015a1c       $stateUnwindMap$?GetOutFormat@Oracledb@@CAXV?$Local@VString@v8@@@v8@@AEBV?$PropertyCallbackInfo@VValue@v8@@@Nan@@@Z 0000000180069a1c     njsOracle.obj
 0002:00015a1c       $stateUnwindMap$?cbDynBufferAllocate@Connection@@CAXPEAX_NII@Z 0000000180069a1c     njsConnection.obj
 0002:00015a1c       $stateUnwindMap$?SetLength@ILob@@CAXV?$Local@VString@v8@@@v8@@V?$Local@VValue@v8@@@3@AEBV?$PropertyCallbackInfo@X@Nan@@@Z 0000000180069a1c     njsIntLob.obj
 0002:00015a1c       $stateUnwindMap$?SetIsValid@ILob@@CAXV?$Local@VString@v8@@@v8@@V?$Local@VValue@v8@@@3@AEBV?$PropertyCallbackInfo@X@Nan@@@Z 0000000180069a1c     njsIntLob.obj
 0002:00015a1c       $stateUnwindMap$?GetPoolMax@Pool@@CAXV?$Local@VString@v8@@@v8@@AEBV?$PropertyCallbackInfo@VValue@v8@@@Nan@@@Z 0000000180069a1c     njsPool.obj
 0002:00015a1c       $stateUnwindMap$?SetExtendedMetaData@Oracledb@@CAXV?$Local@VString@v8@@@v8@@V?$Local@VValue@v8@@@3@AEBV?$PropertyCallbackInfo@X@Nan@@@Z 0000000180069a1c     njsOracle.obj
 0002:00015a1c       $stateUnwindMap$?GetPoolMin@Oracledb@@CAXV?$Local@VString@v8@@@v8@@AEBV?$PropertyCallbackInfo@VValue@v8@@@Nan@@@Z 0000000180069a1c     njsOracle.obj
 0002:00015a1c       $stateUnwindMap$?GetPoolPingInterval@Pool@@CAXV?$Local@VString@v8@@@v8@@AEBV?$PropertyCallbackInfo@VValue@v8@@@Nan@@@Z 0000000180069a1c     njsPool.obj
 0002:00015a1c       $stateUnwindMap$?GetConnectionClass@Oracledb@@CAXV?$Local@VString@v8@@@v8@@AEBV?$PropertyCallbackInfo@VValue@v8@@@Nan@@@Z 0000000180069a1c     njsOracle.obj
 0002:00015a1c       $stateUnwindMap$?SetChunkSize@ILob@@CAXV?$Local@VString@v8@@@v8@@V?$Local@VValue@v8@@@3@AEBV?$PropertyCallbackInfo@X@Nan@@@Z 0000000180069a1c     njsIntLob.obj
 0002:00015a1c       $stateUnwindMap$?SetStmtCacheSize@Connection@@CAXV?$Local@VString@v8@@@v8@@V?$Local@VValue@v8@@@3@AEBV?$PropertyCallbackInfo@X@Nan@@@Z 0000000180069a1c     njsConnection.obj
 0002:00015a1c       $stateUnwindMap$?GetPoolMax@Oracledb@@CAXV?$Local@VString@v8@@@v8@@AEBV?$PropertyCallbackInfo@VValue@v8@@@Nan@@@Z 0000000180069a1c     njsOracle.obj
 0002:00015a1c       $stateUnwindMap$?GetStmtCacheSize@Pool@@CAXV?$Local@VString@v8@@@v8@@AEBV?$PropertyCallbackInfo@VValue@v8@@@Nan@@@Z 0000000180069a1c     njsPool.obj
 0002:00015a1c       $stateUnwindMap$?SetIsAutoCloseLob@ILob@@CAXV?$Local@VString@v8@@@v8@@V?$Local@VValue@v8@@@3@AEBV?$PropertyCallbackInfo@X@Nan@@@Z 0000000180069a1c     njsIntLob.obj
 0002:00015a1c       $stateUnwindMap$?GetPoolMin@Pool@@CAXV?$Local@VString@v8@@@v8@@AEBV?$PropertyCallbackInfo@VValue@v8@@@Nan@@@Z 0000000180069a1c     njsPool.obj
 0002:00015a28       $ip2state$?GetPoolMin@Oracledb@@CAXV?$Local@VString@v8@@@v8@@AEBV?$PropertyCallbackInfo@VValue@v8@@@Nan@@@Z 0000000180069a28     njsOracle.obj
 0002:00015a40       $unwind$?SetPoolMin@Oracledb@@CAXV?$Local@VString@v8@@@v8@@V?$Local@VValue@v8@@@3@AEBV?$PropertyCallbackInfo@X@Nan@@@Z 0000000180069a40     njsOracle.obj
 0002:00015a60       $stateUnwindMap$?SetPoolMin@Oracledb@@CAXV?$Local@VString@v8@@@v8@@V?$Local@VValue@v8@@@3@AEBV?$PropertyCallbackInfo@X@Nan@@@Z 0000000180069a60     njsOracle.obj
 0002:00015a60       $stateUnwindMap$?SetPoolPingInterval@Oracledb@@CAXV?$Local@VString@v8@@@v8@@V?$Local@VValue@v8@@@3@AEBV?$PropertyCallbackInfo@X@Nan@@@Z 0000000180069a60     njsOracle.obj
 0002:00015a60       $stateUnwindMap$?SetPoolTimeout@Oracledb@@CAXV?$Local@VString@v8@@@v8@@V?$Local@VValue@v8@@@3@AEBV?$PropertyCallbackInfo@X@Nan@@@Z 0000000180069a60     njsOracle.obj
 0002:00015a60       $stateUnwindMap$?SetLobPrefetchSize@Oracledb@@CAXV?$Local@VString@v8@@@v8@@V?$Local@VValue@v8@@@3@AEBV?$PropertyCallbackInfo@X@Nan@@@Z 0000000180069a60     njsOracle.obj
 0002:00015a60       $stateUnwindMap$?SetPoolIncrement@Oracledb@@CAXV?$Local@VString@v8@@@v8@@V?$Local@VValue@v8@@@3@AEBV?$PropertyCallbackInfo@X@Nan@@@Z 0000000180069a60     njsOracle.obj
 0002:00015a60       $stateUnwindMap$?SetPrefetchRows@Oracledb@@CAXV?$Local@VString@v8@@@v8@@V?$Local@VValue@v8@@@3@AEBV?$PropertyCallbackInfo@X@Nan@@@Z 0000000180069a60     njsOracle.obj
 0002:00015a60       $stateUnwindMap$?SetStmtCacheSize@Oracledb@@CAXV?$Local@VString@v8@@@v8@@V?$Local@VValue@v8@@@3@AEBV?$PropertyCallbackInfo@X@Nan@@@Z 0000000180069a60     njsOracle.obj
 0002:00015a60       $stateUnwindMap$?SetPoolMax@Oracledb@@CAXV?$Local@VString@v8@@@v8@@V?$Local@VValue@v8@@@3@AEBV?$PropertyCallbackInfo@X@Nan@@@Z 0000000180069a60     njsOracle.obj
 0002:00015a60       $stateUnwindMap$?SetOutFormat@Oracledb@@CAXV?$Local@VString@v8@@@v8@@V?$Local@VValue@v8@@@3@AEBV?$PropertyCallbackInfo@X@Nan@@@Z 0000000180069a60     njsOracle.obj
 0002:00015a78       $ip2state$?SetPoolMin@Oracledb@@CAXV?$Local@VString@v8@@@v8@@V?$Local@VValue@v8@@@3@AEBV?$PropertyCallbackInfo@X@Nan@@@Z 0000000180069a78     njsOracle.obj
 0002:00015ab0       $unwind$?GetPoolMax@Oracledb@@CAXV?$Local@VString@v8@@@v8@@AEBV?$PropertyCallbackInfo@VValue@v8@@@Nan@@@Z 0000000180069ab0     njsOracle.obj
 0002:00015ac8       $ip2state$?GetPoolMax@Oracledb@@CAXV?$Local@VString@v8@@@v8@@AEBV?$PropertyCallbackInfo@VValue@v8@@@Nan@@@Z 0000000180069ac8     njsOracle.obj
 0002:00015ae0       $unwind$?SetPoolMax@Oracledb@@CAXV?$Local@VString@v8@@@v8@@V?$Local@VValue@v8@@@3@AEBV?$PropertyCallbackInfo@X@Nan@@@Z 0000000180069ae0     njsOracle.obj
 0002:00015b00       $ip2state$?SetPoolMax@Oracledb@@CAXV?$Local@VString@v8@@@v8@@V?$Local@VValue@v8@@@3@AEBV?$PropertyCallbackInfo@X@Nan@@@Z 0000000180069b00     njsOracle.obj
 0002:00015b38       $unwind$?GetPoolIncrement@Oracledb@@CAXV?$Local@VString@v8@@@v8@@AEBV?$PropertyCallbackInfo@VValue@v8@@@Nan@@@Z 0000000180069b38     njsOracle.obj
 0002:00015b50       $stateUnwindMap$?GetOracleClientVersion@Oracledb@@CAXV?$Local@VString@v8@@@v8@@AEBV?$PropertyCallbackInfo@VValue@v8@@@Nan@@@Z 0000000180069b50     njsOracle.obj
 0002:00015b50       $stateUnwindMap$?GetMaxRows@Oracledb@@CAXV?$Local@VString@v8@@@v8@@AEBV?$PropertyCallbackInfo@VValue@v8@@@Nan@@@Z 0000000180069b50     njsOracle.obj
 0002:00015b50       $stateUnwindMap$?GetLobPrefetchSize@Oracledb@@CAXV?$Local@VString@v8@@@v8@@AEBV?$PropertyCallbackInfo@VValue@v8@@@Nan@@@Z 0000000180069b50     njsOracle.obj
 0002:00015b50       $stateUnwindMap$?GetPoolIncrement@Oracledb@@CAXV?$Local@VString@v8@@@v8@@AEBV?$PropertyCallbackInfo@VValue@v8@@@Nan@@@Z 0000000180069b50     njsOracle.obj
 0002:00015b50       $stateUnwindMap$?GetPoolPingInterval@Oracledb@@CAXV?$Local@VString@v8@@@v8@@AEBV?$PropertyCallbackInfo@VValue@v8@@@Nan@@@Z 0000000180069b50     njsOracle.obj
 0002:00015b50       $stateUnwindMap$?GetStmtCacheSize@Oracledb@@CAXV?$Local@VString@v8@@@v8@@AEBV?$PropertyCallbackInfo@VValue@v8@@@Nan@@@Z 0000000180069b50     njsOracle.obj
 0002:00015b60       $ip2state$?GetPoolIncrement@Oracledb@@CAXV?$Local@VString@v8@@@v8@@AEBV?$PropertyCallbackInfo@VValue@v8@@@Nan@@@Z 0000000180069b60     njsOracle.obj
 0002:00015b88       $unwind$?SetPoolIncrement@Oracledb@@CAXV?$Local@VString@v8@@@v8@@V?$Local@VValue@v8@@@3@AEBV?$PropertyCallbackInfo@X@Nan@@@Z 0000000180069b88     njsOracle.obj
 0002:00015ba8       $ip2state$?SetPoolIncrement@Oracledb@@CAXV?$Local@VString@v8@@@v8@@V?$Local@VValue@v8@@@3@AEBV?$PropertyCallbackInfo@X@Nan@@@Z 0000000180069ba8     njsOracle.obj
 0002:00015be0       $unwind$?GetPoolTimeout@Oracledb@@CAXV?$Local@VString@v8@@@v8@@AEBV?$PropertyCallbackInfo@VValue@v8@@@Nan@@@Z 0000000180069be0     njsOracle.obj
 0002:00015bf8       $ip2state$?GetPoolTimeout@Oracledb@@CAXV?$Local@VString@v8@@@v8@@AEBV?$PropertyCallbackInfo@VValue@v8@@@Nan@@@Z 0000000180069bf8     njsOracle.obj
 0002:00015c10       $unwind$?SetPoolTimeout@Oracledb@@CAXV?$Local@VString@v8@@@v8@@V?$Local@VValue@v8@@@3@AEBV?$PropertyCallbackInfo@X@Nan@@@Z 0000000180069c10     njsOracle.obj
 0002:00015c30       $ip2state$?SetPoolTimeout@Oracledb@@CAXV?$Local@VString@v8@@@v8@@V?$Local@VValue@v8@@@3@AEBV?$PropertyCallbackInfo@X@Nan@@@Z 0000000180069c30     njsOracle.obj
 0002:00015c68       $unwind$?GetMaxRows@Oracledb@@CAXV?$Local@VString@v8@@@v8@@AEBV?$PropertyCallbackInfo@VValue@v8@@@Nan@@@Z 0000000180069c68     njsOracle.obj
 0002:00015c80       $ip2state$?GetMaxRows@Oracledb@@CAXV?$Local@VString@v8@@@v8@@AEBV?$PropertyCallbackInfo@VValue@v8@@@Nan@@@Z 0000000180069c80     njsOracle.obj
 0002:00015ca8       $unwind$?SetMaxRows@Oracledb@@CAXV?$Local@VString@v8@@@v8@@V?$Local@VValue@v8@@@3@AEBV?$PropertyCallbackInfo@X@Nan@@@Z 0000000180069ca8     njsOracle.obj
 0002:00015cc8       $stateUnwindMap$?SetMaxRows@Oracledb@@CAXV?$Local@VString@v8@@@v8@@V?$Local@VValue@v8@@@3@AEBV?$PropertyCallbackInfo@X@Nan@@@Z 0000000180069cc8     njsOracle.obj
 0002:00015cf0       $ip2state$?SetMaxRows@Oracledb@@CAXV?$Local@VString@v8@@@v8@@V?$Local@VValue@v8@@@3@AEBV?$PropertyCallbackInfo@X@Nan@@@Z 0000000180069cf0     njsOracle.obj
 0002:00015d38       $unwind$?GetOutFormat@Oracledb@@CAXV?$Local@VString@v8@@@v8@@AEBV?$PropertyCallbackInfo@VValue@v8@@@Nan@@@Z 0000000180069d38     njsOracle.obj
 0002:00015d50       $ip2state$?GetOutFormat@Oracledb@@CAXV?$Local@VString@v8@@@v8@@AEBV?$PropertyCallbackInfo@VValue@v8@@@Nan@@@Z 0000000180069d50     njsOracle.obj
 0002:00015d68       $unwind$?SetOutFormat@Oracledb@@CAXV?$Local@VString@v8@@@v8@@V?$Local@VValue@v8@@@3@AEBV?$PropertyCallbackInfo@X@Nan@@@Z 0000000180069d68     njsOracle.obj
 0002:00015d88       $ip2state$?SetOutFormat@Oracledb@@CAXV?$Local@VString@v8@@@v8@@V?$Local@VValue@v8@@@3@AEBV?$PropertyCallbackInfo@X@Nan@@@Z 0000000180069d88     njsOracle.obj
 0002:00015dc0       $unwind$?GetStmtCacheSize@Oracledb@@CAXV?$Local@VString@v8@@@v8@@AEBV?$PropertyCallbackInfo@VValue@v8@@@Nan@@@Z 0000000180069dc0     njsOracle.obj
 0002:00015dd8       $ip2state$?GetStmtCacheSize@Oracledb@@CAXV?$Local@VString@v8@@@v8@@AEBV?$PropertyCallbackInfo@VValue@v8@@@Nan@@@Z 0000000180069dd8     njsOracle.obj
 0002:00015e00       $unwind$?SetStmtCacheSize@Oracledb@@CAXV?$Local@VString@v8@@@v8@@V?$Local@VValue@v8@@@3@AEBV?$PropertyCallbackInfo@X@Nan@@@Z 0000000180069e00     njsOracle.obj
 0002:00015e20       $ip2state$?SetStmtCacheSize@Oracledb@@CAXV?$Local@VString@v8@@@v8@@V?$Local@VValue@v8@@@3@AEBV?$PropertyCallbackInfo@X@Nan@@@Z 0000000180069e20     njsOracle.obj
 0002:00015e58       $unwind$?GetPrefetchRows@Oracledb@@CAXV?$Local@VString@v8@@@v8@@AEBV?$PropertyCallbackInfo@VValue@v8@@@Nan@@@Z 0000000180069e58     njsOracle.obj
 0002:00015e70       $ip2state$?GetPrefetchRows@Oracledb@@CAXV?$Local@VString@v8@@@v8@@AEBV?$PropertyCallbackInfo@VValue@v8@@@Nan@@@Z 0000000180069e70     njsOracle.obj
 0002:00015e88       $unwind$?SetPrefetchRows@Oracledb@@CAXV?$Local@VString@v8@@@v8@@V?$Local@VValue@v8@@@3@AEBV?$PropertyCallbackInfo@X@Nan@@@Z 0000000180069e88     njsOracle.obj
 0002:00015ea8       $ip2state$?SetPrefetchRows@Oracledb@@CAXV?$Local@VString@v8@@@v8@@V?$Local@VValue@v8@@@3@AEBV?$PropertyCallbackInfo@X@Nan@@@Z 0000000180069ea8     njsOracle.obj
 0002:00015ee0       $unwind$?GetAutoCommit@Oracledb@@CAXV?$Local@VString@v8@@@v8@@AEBV?$PropertyCallbackInfo@VValue@v8@@@Nan@@@Z 0000000180069ee0     njsOracle.obj
 0002:00015ef8       $stateUnwindMap$?GetAutoCommit@Oracledb@@CAXV?$Local@VString@v8@@@v8@@AEBV?$PropertyCallbackInfo@VValue@v8@@@Nan@@@Z 0000000180069ef8     njsOracle.obj
 0002:00015ef8       $stateUnwindMap$?GetIsAutoCloseLob@ILob@@CAXV?$Local@VString@v8@@@v8@@AEBV?$PropertyCallbackInfo@VValue@v8@@@Nan@@@Z 0000000180069ef8     njsIntLob.obj
 0002:00015ef8       $stateUnwindMap$?SetOracleClientVersion@Oracledb@@CAXV?$Local@VString@v8@@@v8@@V?$Local@VValue@v8@@@3@AEBV?$PropertyCallbackInfo@X@Nan@@@Z 0000000180069ef8     njsOracle.obj
 0002:00015ef8       $stateUnwindMap$?SetVersion@Oracledb@@CAXV?$Local@VString@v8@@@v8@@V?$Local@VValue@v8@@@3@AEBV?$PropertyCallbackInfo@X@Nan@@@Z 0000000180069ef8     njsOracle.obj
 0002:00015ef8       $stateUnwindMap$?GetIsValid@ILob@@CAXV?$Local@VString@v8@@@v8@@AEBV?$PropertyCallbackInfo@VValue@v8@@@Nan@@@Z 0000000180069ef8     njsIntLob.obj
 0002:00015ef8       $stateUnwindMap$?GetRowsCommon@ResultSet@@CAXPEAUrsBaton@@@Z 0000000180069ef8     njsResultSet.obj
 0002:00015ef8       $stateUnwindMap$?GetExternalAuth@Oracledb@@CAXV?$Local@VString@v8@@@v8@@AEBV?$PropertyCallbackInfo@VValue@v8@@@Nan@@@Z 0000000180069ef8     njsOracle.obj
 0002:00015ef8       $stateUnwindMap$?GetExtendedMetaData@Oracledb@@CAXV?$Local@VString@v8@@@v8@@AEBV?$PropertyCallbackInfo@VValue@v8@@@Nan@@@Z 0000000180069ef8     njsOracle.obj
 0002:00015f00       $ip2state$?GetAutoCommit@Oracledb@@CAXV?$Local@VString@v8@@@v8@@AEBV?$PropertyCallbackInfo@VValue@v8@@@Nan@@@Z 0000000180069f00     njsOracle.obj
 0002:00015f18       $unwind$?SetAutoCommit@Oracledb@@CAXV?$Local@VString@v8@@@v8@@V?$Local@VValue@v8@@@3@AEBV?$PropertyCallbackInfo@X@Nan@@@Z 0000000180069f18     njsOracle.obj
 0002:00015f30       $ip2state$?SetAutoCommit@Oracledb@@CAXV?$Local@VString@v8@@@v8@@V?$Local@VValue@v8@@@3@AEBV?$PropertyCallbackInfo@X@Nan@@@Z 0000000180069f30     njsOracle.obj
 0002:00015f48       $unwind$?GetExtendedMetaData@Oracledb@@CAXV?$Local@VString@v8@@@v8@@AEBV?$PropertyCallbackInfo@VValue@v8@@@Nan@@@Z 0000000180069f48     njsOracle.obj
 0002:00015f60       $ip2state$?GetExtendedMetaData@Oracledb@@CAXV?$Local@VString@v8@@@v8@@AEBV?$PropertyCallbackInfo@VValue@v8@@@Nan@@@Z 0000000180069f60     njsOracle.obj
 0002:00015f78       $unwind$?SetExtendedMetaData@Oracledb@@CAXV?$Local@VString@v8@@@v8@@V?$Local@VValue@v8@@@3@AEBV?$PropertyCallbackInfo@X@Nan@@@Z 0000000180069f78     njsOracle.obj
 0002:00015f90       $ip2state$?SetExtendedMetaData@Oracledb@@CAXV?$Local@VString@v8@@@v8@@V?$Local@VValue@v8@@@3@AEBV?$PropertyCallbackInfo@X@Nan@@@Z 0000000180069f90     njsOracle.obj
 0002:00015fa8       $unwind$?SetVersion@Oracledb@@CAXV?$Local@VString@v8@@@v8@@V?$Local@VValue@v8@@@3@AEBV?$PropertyCallbackInfo@X@Nan@@@Z 0000000180069fa8     njsOracle.obj
 0002:00015fc0       $ip2state$?SetVersion@Oracledb@@CAXV?$Local@VString@v8@@@v8@@V?$Local@VValue@v8@@@3@AEBV?$PropertyCallbackInfo@X@Nan@@@Z 0000000180069fc0     njsOracle.obj
 0002:00015fd8       $unwind$?GetConnectionClass@Oracledb@@CAXV?$Local@VString@v8@@@v8@@AEBV?$PropertyCallbackInfo@VValue@v8@@@Nan@@@Z 0000000180069fd8     njsOracle.obj
 0002:00015ff0       $ip2state$?GetConnectionClass@Oracledb@@CAXV?$Local@VString@v8@@@v8@@AEBV?$PropertyCallbackInfo@VValue@v8@@@Nan@@@Z 0000000180069ff0     njsOracle.obj
 0002:00016008       $unwind$?SetConnectionClass@Oracledb@@CAXV?$Local@VString@v8@@@v8@@V?$Local@VValue@v8@@@3@AEBV?$PropertyCallbackInfo@X@Nan@@@Z 000000018006a008     njsOracle.obj
 0002:00016020       $stateUnwindMap$?SetConnectionClass@Oracledb@@CAXV?$Local@VString@v8@@@v8@@V?$Local@VValue@v8@@@3@AEBV?$PropertyCallbackInfo@X@Nan@@@Z 000000018006a020     njsOracle.obj
 0002:00016030       $ip2state$?SetConnectionClass@Oracledb@@CAXV?$Local@VString@v8@@@v8@@V?$Local@VValue@v8@@@3@AEBV?$PropertyCallbackInfo@X@Nan@@@Z 000000018006a030     njsOracle.obj
 0002:00016058       $unwind$?GetExternalAuth@Oracledb@@CAXV?$Local@VString@v8@@@v8@@AEBV?$PropertyCallbackInfo@VValue@v8@@@Nan@@@Z 000000018006a058     njsOracle.obj
 0002:00016070       $ip2state$?GetExternalAuth@Oracledb@@CAXV?$Local@VString@v8@@@v8@@AEBV?$PropertyCallbackInfo@VValue@v8@@@Nan@@@Z 000000018006a070     njsOracle.obj
 0002:00016088       $unwind$?SetExternalAuth@Oracledb@@CAXV?$Local@VString@v8@@@v8@@V?$Local@VValue@v8@@@3@AEBV?$PropertyCallbackInfo@X@Nan@@@Z 000000018006a088     njsOracle.obj
 0002:000160a0       $ip2state$?SetExternalAuth@Oracledb@@CAXV?$Local@VString@v8@@@v8@@V?$Local@VValue@v8@@@3@AEBV?$PropertyCallbackInfo@X@Nan@@@Z 000000018006a0a0     njsOracle.obj
 0002:000160b8       $unwind$?GetLobPrefetchSize@Oracledb@@CAXV?$Local@VString@v8@@@v8@@AEBV?$PropertyCallbackInfo@VValue@v8@@@Nan@@@Z 000000018006a0b8     njsOracle.obj
 0002:000160d0       $ip2state$?GetLobPrefetchSize@Oracledb@@CAXV?$Local@VString@v8@@@v8@@AEBV?$PropertyCallbackInfo@VValue@v8@@@Nan@@@Z 000000018006a0d0     njsOracle.obj
 0002:000160f8       $unwind$?SetLobPrefetchSize@Oracledb@@CAXV?$Local@VString@v8@@@v8@@V?$Local@VValue@v8@@@3@AEBV?$PropertyCallbackInfo@X@Nan@@@Z 000000018006a0f8     njsOracle.obj
 0002:00016118       $ip2state$?SetLobPrefetchSize@Oracledb@@CAXV?$Local@VString@v8@@@v8@@V?$Local@VValue@v8@@@3@AEBV?$PropertyCallbackInfo@X@Nan@@@Z 000000018006a118     njsOracle.obj
 0002:00016150       $unwind$?GetFetchAsString@Oracledb@@CAXV?$Local@VString@v8@@@v8@@AEBV?$PropertyCallbackInfo@VValue@v8@@@Nan@@@Z 000000018006a150     njsOracle.obj
 0002:00016170       $stateUnwindMap$?GetFetchAsBuffer@Oracledb@@CAXV?$Local@VString@v8@@@v8@@AEBV?$PropertyCallbackInfo@VValue@v8@@@Nan@@@Z 000000018006a170     njsOracle.obj
 0002:00016170       $stateUnwindMap$?GetFetchAsString@Oracledb@@CAXV?$Local@VString@v8@@@v8@@AEBV?$PropertyCallbackInfo@VValue@v8@@@Nan@@@Z 000000018006a170     njsOracle.obj
 0002:00016180       $ip2state$?GetFetchAsString@Oracledb@@CAXV?$Local@VString@v8@@@v8@@AEBV?$PropertyCallbackInfo@VValue@v8@@@Nan@@@Z 000000018006a180     njsOracle.obj
 0002:000161a8       $unwind$?SetFetchAsString@Oracledb@@CAXV?$Local@VString@v8@@@v8@@V?$Local@VValue@v8@@@3@AEBV?$PropertyCallbackInfo@X@Nan@@@Z 000000018006a1a8     njsOracle.obj
 0002:000161d4       $stateUnwindMap$?SetFetchAsString@Oracledb@@CAXV?$Local@VString@v8@@@v8@@V?$Local@VValue@v8@@@3@AEBV?$PropertyCallbackInfo@X@Nan@@@Z 000000018006a1d4     njsOracle.obj
 0002:000161d4       $stateUnwindMap$?SetFetchAsBuffer@Oracledb@@CAXV?$Local@VString@v8@@@v8@@V?$Local@VValue@v8@@@3@AEBV?$PropertyCallbackInfo@X@Nan@@@Z 000000018006a1d4     njsOracle.obj
 0002:000161f0       $ip2state$?SetFetchAsString@Oracledb@@CAXV?$Local@VString@v8@@@v8@@V?$Local@VValue@v8@@@3@AEBV?$PropertyCallbackInfo@X@Nan@@@Z 000000018006a1f0     njsOracle.obj
 0002:00016228       $unwind$?GetFetchAsBuffer@Oracledb@@CAXV?$Local@VString@v8@@@v8@@AEBV?$PropertyCallbackInfo@VValue@v8@@@Nan@@@Z 000000018006a228     njsOracle.obj
 0002:00016248       $ip2state$?GetFetchAsBuffer@Oracledb@@CAXV?$Local@VString@v8@@@v8@@AEBV?$PropertyCallbackInfo@VValue@v8@@@Nan@@@Z 000000018006a248     njsOracle.obj
 0002:00016270       $unwind$?SetFetchAsBuffer@Oracledb@@CAXV?$Local@VString@v8@@@v8@@V?$Local@VValue@v8@@@3@AEBV?$PropertyCallbackInfo@X@Nan@@@Z 000000018006a270     njsOracle.obj
 0002:000162a0       $ip2state$?SetFetchAsBuffer@Oracledb@@CAXV?$Local@VString@v8@@@v8@@V?$Local@VValue@v8@@@3@AEBV?$PropertyCallbackInfo@X@Nan@@@Z 000000018006a2a0     njsOracle.obj
 0002:000162d8       $unwind$?GetOracleClientVersion@Oracledb@@CAXV?$Local@VString@v8@@@v8@@AEBV?$PropertyCallbackInfo@VValue@v8@@@Nan@@@Z 000000018006a2d8     njsOracle.obj
 0002:000162f0       $ip2state$?GetOracleClientVersion@Oracledb@@CAXV?$Local@VString@v8@@@v8@@AEBV?$PropertyCallbackInfo@VValue@v8@@@Nan@@@Z 000000018006a2f0     njsOracle.obj
 0002:00016318       $unwind$?SetOracleClientVersion@Oracledb@@CAXV?$Local@VString@v8@@@v8@@V?$Local@VValue@v8@@@3@AEBV?$PropertyCallbackInfo@X@Nan@@@Z 000000018006a318     njsOracle.obj
 0002:00016330       $ip2state$?SetOracleClientVersion@Oracledb@@CAXV?$Local@VString@v8@@@v8@@V?$Local@VValue@v8@@@3@AEBV?$PropertyCallbackInfo@X@Nan@@@Z 000000018006a330     njsOracle.obj
 0002:00016348       $unwind$?GetPoolPingInterval@Oracledb@@CAXV?$Local@VString@v8@@@v8@@AEBV?$PropertyCallbackInfo@VValue@v8@@@Nan@@@Z 000000018006a348     njsOracle.obj
 0002:00016360       $ip2state$?GetPoolPingInterval@Oracledb@@CAXV?$Local@VString@v8@@@v8@@AEBV?$PropertyCallbackInfo@VValue@v8@@@Nan@@@Z 000000018006a360     njsOracle.obj
 0002:00016388       $unwind$?SetPoolPingInterval@Oracledb@@CAXV?$Local@VString@v8@@@v8@@V?$Local@VValue@v8@@@3@AEBV?$PropertyCallbackInfo@X@Nan@@@Z 000000018006a388     njsOracle.obj
 0002:000163a8       $ip2state$?SetPoolPingInterval@Oracledb@@CAXV?$Local@VString@v8@@@v8@@V?$Local@VValue@v8@@@3@AEBV?$PropertyCallbackInfo@X@Nan@@@Z 000000018006a3a8     njsOracle.obj
 0002:000163e0       $unwind$?GetConnection@Oracledb@@CAXAEBV?$FunctionCallbackInfo@VValue@v8@@@Nan@@@Z 000000018006a3e0     njsOracle.obj
 0002:0001640c       $stateUnwindMap$?GetConnection@Oracledb@@CAXAEBV?$FunctionCallbackInfo@VValue@v8@@@Nan@@@Z 000000018006a40c     njsOracle.obj
 0002:00016440       $ip2state$?GetConnection@Oracledb@@CAXAEBV?$FunctionCallbackInfo@VValue@v8@@@Nan@@@Z 000000018006a440     njsOracle.obj
 0002:000164b8       $unwind$?Async_GetConnection@Oracledb@@CAXPEAUuv_work_s@@@Z 000000018006a4b8     njsOracle.obj
 0002:000164e0       $stateUnwindMap$?Async_GetConnection@Oracledb@@CAXPEAUuv_work_s@@@Z 000000018006a4e0     njsOracle.obj
 0002:000164f8       $tryMap$?Async_GetConnection@Oracledb@@CAXPEAUuv_work_s@@@Z 000000018006a4f8     njsOracle.obj
 0002:0001650c       $handlerMap$0$?Async_GetConnection@Oracledb@@CAXPEAUuv_work_s@@@Z 000000018006a50c     njsOracle.obj
 0002:00016520       $ip2state$?Async_GetConnection@Oracledb@@CAXPEAUuv_work_s@@@Z 000000018006a520     njsOracle.obj
 0002:00016560       $unwind$?catch$2@?0??Async_GetConnection@Oracledb@@CAXPEAUuv_work_s@@@Z@4HA 000000018006a560     njsOracle.obj
 0002:00016570       $unwind$?Async_AfterGetConnection@Oracledb@@CAXPEAUuv_work_s@@@Z 000000018006a570     njsOracle.obj
 0002:0001658c       $stateUnwindMap$?Async_AfterGetConnection@Pool@@CAXPEAUuv_work_s@@@Z 000000018006a58c     njsPool.obj
 0002:0001658c       $stateUnwindMap$?Async_AfterGetConnection@Oracledb@@CAXPEAUuv_work_s@@@Z 000000018006a58c     njsOracle.obj
 0002:000165b0       $ip2state$?Async_AfterGetConnection@Oracledb@@CAXPEAUuv_work_s@@@Z 000000018006a5b0     njsOracle.obj
 0002:000165f8       $unwind$?CreatePool@Oracledb@@CAXAEBV?$FunctionCallbackInfo@VValue@v8@@@Nan@@@Z 000000018006a5f8     njsOracle.obj
 0002:00016624       $stateUnwindMap$?CreatePool@Oracledb@@CAXAEBV?$FunctionCallbackInfo@VValue@v8@@@Nan@@@Z 000000018006a624     njsOracle.obj
 0002:00016660       $ip2state$?CreatePool@Oracledb@@CAXAEBV?$FunctionCallbackInfo@VValue@v8@@@Nan@@@Z 000000018006a660     njsOracle.obj
 0002:000166e8       $unwind$?Async_CreatePool@Oracledb@@CAXPEAUuv_work_s@@@Z 000000018006a6e8     njsOracle.obj
 0002:00016710       $stateUnwindMap$?Async_CreatePool@Oracledb@@CAXPEAUuv_work_s@@@Z 000000018006a710     njsOracle.obj
 0002:00016728       $tryMap$?Async_CreatePool@Oracledb@@CAXPEAUuv_work_s@@@Z 000000018006a728     njsOracle.obj
 0002:0001673c       $handlerMap$0$?Async_CreatePool@Oracledb@@CAXPEAUuv_work_s@@@Z 000000018006a73c     njsOracle.obj
 0002:00016750       $ip2state$?Async_CreatePool@Oracledb@@CAXPEAUuv_work_s@@@Z 000000018006a750     njsOracle.obj
 0002:00016790       $unwind$?catch$2@?0??Async_CreatePool@Oracledb@@CAXPEAUuv_work_s@@@Z@4HA 000000018006a790     njsOracle.obj
 0002:000167a0       $unwind$?Async_AfterCreatePool@Oracledb@@CAXPEAUuv_work_s@@@Z 000000018006a7a0     njsOracle.obj
 0002:000167c0       $stateUnwindMap$?Async_AfterCreatePool@Oracledb@@CAXPEAUuv_work_s@@@Z 000000018006a7c0     njsOracle.obj
 0002:000167e0       $ip2state$?Async_AfterCreatePool@Oracledb@@CAXPEAUuv_work_s@@@Z 000000018006a7e0     njsOracle.obj
 0002:00016828       $unwind$??0?$basic_string@DU?$char_traits@D@std@@V?$allocator@D@2@@std@@QEAA@AEBV01@@Z 000000018006a828     njsOracle.obj
 0002:0001683c       $unwind$??0?$basic_stringstream@DU?$char_traits@D@std@@V?$allocator@D@2@@std@@QEAA@H@Z 000000018006a83c     njsOracle.obj
 0002:00016854       $stateUnwindMap$??0?$basic_stringstream@DU?$char_traits@D@std@@V?$allocator@D@2@@std@@QEAA@H@Z 000000018006a854     njsOracle.obj
 0002:00016870       $ip2state$??0?$basic_stringstream@DU?$char_traits@D@std@@V?$allocator@D@2@@std@@QEAA@H@Z 000000018006a870     njsOracle.obj
 0002:00016898       $unwind$?seekpos@?$basic_stringbuf@DU?$char_traits@D@std@@V?$allocator@D@2@@std@@MEAA?AV?$fpos@U_Mbstatet@@@2@V32@H@Z 000000018006a898     njsOracle.obj
 0002:00016898       $unwind$?DloadObtainSection@@YAPEAXPEAK0@Z 000000018006a898     DelayImp:delayhlp.obj
 0002:000168a4       $unwind$?seekoff@?$basic_stringbuf@DU?$char_traits@D@std@@V?$allocator@D@2@@std@@MEAA?AV?$fpos@U_Mbstatet@@@2@_JHH@Z 000000018006a8a4     njsOracle.obj
 0002:000168b4       $unwind$?overflow@?$basic_stringbuf@DU?$char_traits@D@std@@V?$allocator@D@2@@std@@MEAAHH@Z 000000018006a8b4     njsOracle.obj
 0002:000168b4       $unwind$__CxxCallCatchBlock$fin$1 000000018006a8b4     libvcruntime:frame.obj
 0002:000168c0       $chain$0$?overflow@?$basic_stringbuf@DU?$char_traits@D@std@@V?$allocator@D@2@@std@@MEAAHH@Z 000000018006a8c0     njsOracle.obj
 0002:000168d4       $chain$6$?overflow@?$basic_stringbuf@DU?$char_traits@D@std@@V?$allocator@D@2@@std@@MEAAHH@Z 000000018006a8d4     njsOracle.obj
 0002:000168f4       $chain$7$?overflow@?$basic_stringbuf@DU?$char_traits@D@std@@V?$allocator@D@2@@std@@MEAAHH@Z 000000018006a8f4     njsOracle.obj
 0002:0001690c       $chain$2$?overflow@?$basic_stringbuf@DU?$char_traits@D@std@@V?$allocator@D@2@@std@@MEAAHH@Z 000000018006a90c     njsOracle.obj
 0002:00016920       $unwind$??6?$basic_ostream@DU?$char_traits@D@std@@@std@@QEAAAEAV01@H@Z 000000018006a920     njsOracle.obj
 0002:00016940       $stateUnwindMap$??6?$basic_ostream@DU?$char_traits@D@std@@@std@@QEAAAEAV01@H@Z 000000018006a940     njsOracle.obj
 0002:00016960       $ip2state$??6?$basic_ostream@DU?$char_traits@D@std@@@std@@QEAAAEAV01@H@Z 000000018006a960     njsOracle.obj
 0002:000169a8       $unwind$?xsputn@?$basic_streambuf@DU?$char_traits@D@std@@@std@@MEAA_JPEBD_J@Z 000000018006a9a8     njsOracle.obj
 0002:000169bc       $chain$0$?xsputn@?$basic_streambuf@DU?$char_traits@D@std@@@std@@MEAA_JPEBD_J@Z 000000018006a9bc     njsOracle.obj
 0002:000169d0       $chain$1$?xsputn@?$basic_streambuf@DU?$char_traits@D@std@@@std@@MEAA_JPEBD_J@Z 000000018006a9d0     njsOracle.obj
 0002:000169e0       $unwind$?xsgetn@?$basic_streambuf@DU?$char_traits@D@std@@@std@@MEAA_JPEAD_J@Z 000000018006a9e0     njsOracle.obj
 0002:000169f0       $chain$1$?xsgetn@?$basic_streambuf@DU?$char_traits@D@std@@@std@@MEAA_JPEAD_J@Z 000000018006a9f0     njsOracle.obj
 0002:00016a08       $chain$2$?xsgetn@?$basic_streambuf@DU?$char_traits@D@std@@@std@@MEAA_JPEAD_J@Z 000000018006aa08     njsOracle.obj
 0002:00016a18       $chain$3$?xsgetn@?$basic_streambuf@DU?$char_traits@D@std@@@std@@MEAA_JPEAD_J@Z 000000018006aa18     njsOracle.obj
 0002:00016a30       $unwind$??0sentry@?$basic_ostream@DU?$char_traits@D@std@@@std@@QEAA@AEAV12@@Z 000000018006aa30     njsOracle.obj
 0002:00016a4c       $stateUnwindMap$??0sentry@?$basic_ostream@DU?$char_traits@D@std@@@std@@QEAA@AEAV12@@Z 000000018006aa4c     njsOracle.obj
 0002:00016a60       $ip2state$??0sentry@?$basic_ostream@DU?$char_traits@D@std@@@std@@QEAA@AEAV12@@Z 000000018006aa60     njsOracle.obj
 0002:00016a88       $unwind$?do_put@?$num_put@DV?$ostreambuf_iterator@DU?$char_traits@D@std@@@std@@@std@@MEBA?AV?$ostreambuf_iterator@DU?$char_traits@D@std@@@2@V32@AEAVios_base@2@DPEBX@Z 000000018006aa88     njsOracle.obj
 0002:00016aa0       $unwind$?do_put@?$num_put@DV?$ostreambuf_iterator@DU?$char_traits@D@std@@@std@@@std@@MEBA?AV?$ostreambuf_iterator@DU?$char_traits@D@std@@@2@V32@AEAVios_base@2@DO@Z 000000018006aaa0     njsOracle.obj
 0002:00016acc       $stateUnwindMap$?do_put@?$num_put@DV?$ostreambuf_iterator@DU?$char_traits@D@std@@@std@@@std@@MEBA?AV?$ostreambuf_iterator@DU?$char_traits@D@std@@@2@V32@AEAVios_base@2@DN@Z 000000018006aacc     njsOracle.obj
 0002:00016acc       $stateUnwindMap$?do_put@?$num_put@DV?$ostreambuf_iterator@DU?$char_traits@D@std@@@std@@@std@@MEBA?AV?$ostreambuf_iterator@DU?$char_traits@D@std@@@2@V32@AEAVios_base@2@DO@Z 000000018006aacc     njsOracle.obj
 0002:00016ad8       $ip2state$?do_put@?$num_put@DV?$ostreambuf_iterator@DU?$char_traits@D@std@@@std@@@std@@MEBA?AV?$ostreambuf_iterator@DU?$char_traits@D@std@@@2@V32@AEAVios_base@2@DO@Z 000000018006aad8     njsOracle.obj
 0002:00016af0       $unwind$?do_put@?$num_put@DV?$ostreambuf_iterator@DU?$char_traits@D@std@@@std@@@std@@MEBA?AV?$ostreambuf_iterator@DU?$char_traits@D@std@@@2@V32@AEAVios_base@2@DN@Z 000000018006aaf0     njsOracle.obj
 0002:00016b20       $ip2state$?do_put@?$num_put@DV?$ostreambuf_iterator@DU?$char_traits@D@std@@@std@@@std@@MEBA?AV?$ostreambuf_iterator@DU?$char_traits@D@std@@@2@V32@AEAVios_base@2@DN@Z 000000018006ab20     njsOracle.obj
 0002:00016b38       $unwind$?do_put@?$num_put@DV?$ostreambuf_iterator@DU?$char_traits@D@std@@@std@@@std@@MEBA?AV?$ostreambuf_iterator@DU?$char_traits@D@std@@@2@V32@AEAVios_base@2@DK@Z 000000018006ab38     njsOracle.obj
 0002:00016b38       $unwind$?do_put@?$num_put@DV?$ostreambuf_iterator@DU?$char_traits@D@std@@@std@@@std@@MEBA?AV?$ostreambuf_iterator@DU?$char_traits@D@std@@@2@V32@AEAVios_base@2@D_K@Z 000000018006ab38     njsOracle.obj
 0002:00016b38       $unwind$?do_put@?$num_put@DV?$ostreambuf_iterator@DU?$char_traits@D@std@@@std@@@std@@MEBA?AV?$ostreambuf_iterator@DU?$char_traits@D@std@@@2@V32@AEAVios_base@2@DJ@Z 000000018006ab38     njsOracle.obj
 0002:00016b38       $unwind$?do_put@?$num_put@DV?$ostreambuf_iterator@DU?$char_traits@D@std@@@std@@@std@@MEBA?AV?$ostreambuf_iterator@DU?$char_traits@D@std@@@2@V32@AEAVios_base@2@D_J@Z 000000018006ab38     njsOracle.obj
 0002:00016b50       $unwind$?do_put@?$num_put@DV?$ostreambuf_iterator@DU?$char_traits@D@std@@@std@@@std@@MEBA?AV?$ostreambuf_iterator@DU?$char_traits@D@std@@@2@V32@AEAVios_base@2@D_N@Z 000000018006ab50     njsOracle.obj
 0002:00016b74       $stateUnwindMap$?do_put@?$num_put@DV?$ostreambuf_iterator@DU?$char_traits@D@std@@@std@@@std@@MEBA?AV?$ostreambuf_iterator@DU?$char_traits@D@std@@@2@V32@AEAVios_base@2@D_N@Z 000000018006ab74     njsOracle.obj
 0002:00016b88       $ip2state$?do_put@?$num_put@DV?$ostreambuf_iterator@DU?$char_traits@D@std@@@std@@@std@@MEBA?AV?$ostreambuf_iterator@DU?$char_traits@D@std@@@2@V32@AEAVios_base@2@D_N@Z 000000018006ab88     njsOracle.obj
 0002:00016bb0       $unwind$?assign@?$basic_string@DU?$char_traits@D@std@@V?$allocator@D@2@@std@@QEAAAEAV12@_KD@Z 000000018006abb0     njsOracle.obj
 0002:00016bb0       $unwind$?assign@?$basic_string@DU?$char_traits@D@std@@V?$allocator@D@2@@std@@QEAAAEAV12@QEBD_K@Z 000000018006abb0     njsOracle.obj
 0002:00016bc4       $chain$1$?assign@?$basic_string@DU?$char_traits@D@std@@V?$allocator@D@2@@std@@QEAAAEAV12@_KD@Z 000000018006abc4     njsOracle.obj
 0002:00016bdc       $chain$2$?assign@?$basic_string@DU?$char_traits@D@std@@V?$allocator@D@2@@std@@QEAAAEAV12@_KD@Z 000000018006abdc     njsOracle.obj
 0002:00016bec       $chain$3$?assign@?$basic_string@DU?$char_traits@D@std@@V?$allocator@D@2@@std@@QEAAAEAV12@_KD@Z 000000018006abec     njsOracle.obj
 0002:00016c04       $chain$1$?assign@?$basic_string@DU?$char_traits@D@std@@V?$allocator@D@2@@std@@QEAAAEAV12@QEBD_K@Z 000000018006ac04     njsOracle.obj
 0002:00016c1c       $chain$2$?assign@?$basic_string@DU?$char_traits@D@std@@V?$allocator@D@2@@std@@QEAAAEAV12@QEBD_K@Z 000000018006ac1c     njsOracle.obj
 0002:00016c2c       $chain$3$?assign@?$basic_string@DU?$char_traits@D@std@@V?$allocator@D@2@@std@@QEAAAEAV12@QEBD_K@Z 000000018006ac2c     njsOracle.obj
 0002:00016c44       $unwind$?append@?$basic_string@DU?$char_traits@D@std@@V?$allocator@D@2@@std@@QEAAAEAV12@QEBD_K@Z 000000018006ac44     njsOracle.obj
 0002:00016c44       $unwind$?cleanup@StmtImpl@@AEAAXXZ 000000018006ac44     dpiStmtImpl.obj
 0002:00016c50       $chain$0$?append@?$basic_string@DU?$char_traits@D@std@@V?$allocator@D@2@@std@@QEAAAEAV12@QEBD_K@Z 000000018006ac50     njsOracle.obj
 0002:00016c64       $chain$1$?append@?$basic_string@DU?$char_traits@D@std@@V?$allocator@D@2@@std@@QEAAAEAV12@QEBD_K@Z 000000018006ac64     njsOracle.obj
 0002:00016c74       $unwind$??0?$basic_iostream@DU?$char_traits@D@std@@@std@@QEAA@PEAV?$basic_streambuf@DU?$char_traits@D@std@@@1@@Z 000000018006ac74     njsOracle.obj
 0002:00016c90       $stateUnwindMap$??0?$basic_iostream@DU?$char_traits@D@std@@@std@@QEAA@PEAV?$basic_streambuf@DU?$char_traits@D@std@@@1@@Z 000000018006ac90     njsOracle.obj
 0002:00016cb8       $ip2state$??0?$basic_iostream@DU?$char_traits@D@std@@@std@@QEAA@PEAV?$basic_streambuf@DU?$char_traits@D@std@@@1@@Z 000000018006acb8     njsOracle.obj
 0002:00016ce0       $unwind$?_Iput@?$num_put@DV?$ostreambuf_iterator@DU?$char_traits@D@std@@@std@@@std@@AEBA?AV?$ostreambuf_iterator@DU?$char_traits@D@std@@@2@V32@AEAVios_base@2@DPEAD_K@Z 000000018006ace0     njsOracle.obj
 0002:00016d08       $stateUnwindMap$?_Iput@?$num_put@DV?$ostreambuf_iterator@DU?$char_traits@D@std@@@std@@@std@@AEBA?AV?$ostreambuf_iterator@DU?$char_traits@D@std@@@2@V32@AEAVios_base@2@DPEAD_K@Z 000000018006ad08     njsOracle.obj
 0002:00016d30       $ip2state$?_Iput@?$num_put@DV?$ostreambuf_iterator@DU?$char_traits@D@std@@@std@@@std@@AEBA?AV?$ostreambuf_iterator@DU?$char_traits@D@std@@@2@V32@AEAVios_base@2@DPEAD_K@Z 000000018006ad30     njsOracle.obj
 0002:00016d78       $unwind$?_Fput@?$num_put@DV?$ostreambuf_iterator@DU?$char_traits@D@std@@@std@@@std@@AEBA?AV?$ostreambuf_iterator@DU?$char_traits@D@std@@@2@V32@AEAVios_base@2@DPEBD_K@Z 000000018006ad78     njsOracle.obj
 0002:00016da0       $stateUnwindMap$?_Fput@?$num_put@DV?$ostreambuf_iterator@DU?$char_traits@D@std@@@std@@@std@@AEBA?AV?$ostreambuf_iterator@DU?$char_traits@D@std@@@2@V32@AEAVios_base@2@DPEBD_K@Z 000000018006ada0     njsOracle.obj
 0002:00016dc0       $ip2state$?_Fput@?$num_put@DV?$ostreambuf_iterator@DU?$char_traits@D@std@@@std@@@std@@AEBA?AV?$ostreambuf_iterator@DU?$char_traits@D@std@@@2@V32@AEAVios_base@2@DPEBD_K@Z 000000018006adc0     njsOracle.obj
 0002:00016e08       $unwind$??$use_facet@V?$ctype@D@std@@@std@@YAAEBV?$ctype@D@0@AEBVlocale@0@@Z 000000018006ae08     njsOracle.obj
 0002:00016e20       $stateUnwindMap$??$use_facet@V?$ctype@D@std@@@std@@YAAEBV?$ctype@D@0@AEBVlocale@0@@Z 000000018006ae20     njsOracle.obj
 0002:00016e30       $ip2state$??$use_facet@V?$ctype@D@std@@@std@@YAAEBV?$ctype@D@0@AEBVlocale@0@@Z 000000018006ae30     njsOracle.obj
 0002:00016e58       $unwind$??$New@VString@v8@@V?$basic_string@DU?$char_traits@D@std@@V?$allocator@D@2@@std@@@Nan@@YA?AV?$MaybeLocal@VString@v8@@@v8@@V?$basic_string@DU?$char_traits@D@std@@V?$allocator@D@2@@std@@@Z 000000018006ae58     njsOracle.obj
 0002:00016e74       $stateUnwindMap$??$New@VString@v8@@V?$basic_string@DU?$char_traits@D@std@@V?$allocator@D@2@@std@@@Nan@@YA?AV?$MaybeLocal@VString@v8@@@v8@@V?$basic_string@DU?$char_traits@D@std@@V?$allocator@D@2@@std@@@Z 000000018006ae74     njsOracle.obj
 0002:00016e80       $ip2state$??$New@VString@v8@@V?$basic_string@DU?$char_traits@D@std@@V?$allocator@D@2@@std@@@Nan@@YA?AV?$MaybeLocal@VString@v8@@@v8@@V?$basic_string@DU?$char_traits@D@std@@V?$allocator@D@2@@std@@@Z 000000018006ae80     njsOracle.obj
 0002:00016e98       $unwind$??$?6U?$char_traits@D@std@@@std@@YAAEAV?$basic_ostream@DU?$char_traits@D@std@@@0@AEAV10@PEBD@Z 000000018006ae98     njsOracle.obj
 0002:00016eb8       $stateUnwindMap$??$?6U?$char_traits@D@std@@@std@@YAAEAV?$basic_ostream@DU?$char_traits@D@std@@@0@AEAV10@PEBD@Z 000000018006aeb8     njsOracle.obj
 0002:00016eb8       $stateUnwindMap$??$_Insert_string@DU?$char_traits@D@std@@_K@std@@YAAEAV?$basic_ostream@DU?$char_traits@D@std@@@0@AEAV10@QEBD_K@Z 000000018006aeb8     dpiExceptionImpl.obj
 0002:00016ec0       $ip2state$??$?6U?$char_traits@D@std@@@std@@YAAEAV?$basic_ostream@DU?$char_traits@D@std@@@0@AEAV10@PEBD@Z 000000018006aec0     njsOracle.obj
 0002:00016ed8       $unwind$??$To@I@Nan@@YA?AV?$Maybe@I@v8@@V?$Local@VValue@v8@@@2@@Z 000000018006aed8     njsOracle.obj
 0002:00016ef0       $stateUnwindMap$??$To@I@Nan@@YA?AV?$Maybe@I@v8@@V?$Local@VValue@v8@@@2@@Z 000000018006aef0     njsOracle.obj
 0002:00016ef0       $stateUnwindMap$??$To@H@Nan@@YA?AV?$Maybe@H@v8@@V?$Local@VValue@v8@@@2@@Z 000000018006aef0     njsOracle.obj
 0002:00016ef8       $ip2state$??$To@I@Nan@@YA?AV?$Maybe@I@v8@@V?$Local@VValue@v8@@@2@@Z 000000018006aef8     njsOracle.obj
 0002:00016f10       $unwind$??$To@H@Nan@@YA?AV?$Maybe@H@v8@@V?$Local@VValue@v8@@@2@@Z 000000018006af10     njsOracle.obj
 0002:00016f28       $ip2state$??$To@H@Nan@@YA?AV?$Maybe@H@v8@@V?$Local@VValue@v8@@@2@@Z 000000018006af28     njsOracle.obj
 0002:00016f40       $unwind$??$use_facet@V?$numpunct@D@std@@@std@@YAAEBV?$numpunct@D@0@AEBVlocale@0@@Z 000000018006af40     njsOracle.obj
 0002:00016f58       $stateUnwindMap$??$use_facet@V?$numpunct@D@std@@@std@@YAAEBV?$numpunct@D@0@AEBVlocale@0@@Z 000000018006af58     njsOracle.obj
 0002:00016f60       $ip2state$??$use_facet@V?$numpunct@D@std@@@std@@YAAEBV?$numpunct@D@0@AEBVlocale@0@@Z 000000018006af60     njsOracle.obj
 0002:00016f78       $unwind$??$_Reallocate_grow_by@V<lambda_e1befb086ad3257e3f042a63030725f7>@@_KD@?$basic_string@DU?$char_traits@D@std@@V?$allocator@D@2@@std@@QEAAAEAV01@_KV<lambda_e1befb086ad3257e3f042a63030725f7>@@_KD@Z 000000018006af78     njsOracle.obj
 0002:00016f88       $chain$3$??$_Reallocate_grow_by@V<lambda_e1befb086ad3257e3f042a63030725f7>@@_KD@?$basic_string@DU?$char_traits@D@std@@V?$allocator@D@2@@std@@QEAAAEAV01@_KV<lambda_e1befb086ad3257e3f042a63030725f7>@@_KD@Z 000000018006af88     njsOracle.obj
 0002:00016fa8       $chain$4$??$_Reallocate_grow_by@V<lambda_e1befb086ad3257e3f042a63030725f7>@@_KD@?$basic_string@DU?$char_traits@D@std@@V?$allocator@D@2@@std@@QEAAAEAV01@_KV<lambda_e1befb086ad3257e3f042a63030725f7>@@_KD@Z 000000018006afa8     njsOracle.obj
 0002:00016fb8       $chain$5$??$_Reallocate_grow_by@V<lambda_e1befb086ad3257e3f042a63030725f7>@@_KD@?$basic_string@DU?$char_traits@D@std@@V?$allocator@D@2@@std@@QEAAAEAV01@_KV<lambda_e1befb086ad3257e3f042a63030725f7>@@_KD@Z 000000018006afb8     njsOracle.obj
 0002:00016fd8       $unwind$??$_Reallocate_grow_by@V<lambda_65e615be2a453ca0576c979606f46740>@@PEBD_K@?$basic_string@DU?$char_traits@D@std@@V?$allocator@D@2@@std@@QEAAAEAV01@_KV<lambda_65e615be2a453ca0576c979606f46740>@@PEBD_K@Z 000000018006afd8     njsOracle.obj
 0002:00016fe8       $chain$3$??$_Reallocate_grow_by@V<lambda_65e615be2a453ca0576c979606f46740>@@PEBD_K@?$basic_string@DU?$char_traits@D@std@@V?$allocator@D@2@@std@@QEAAAEAV01@_KV<lambda_65e615be2a453ca0576c979606f46740>@@PEBD_K@Z 000000018006afe8     njsOracle.obj
 0002:00017008       $chain$4$??$_Reallocate_grow_by@V<lambda_65e615be2a453ca0576c979606f46740>@@PEBD_K@?$basic_string@DU?$char_traits@D@std@@V?$allocator@D@2@@std@@QEAAAEAV01@_KV<lambda_65e615be2a453ca0576c979606f46740>@@PEBD_K@Z 000000018006b008     njsOracle.obj
 0002:00017018       $chain$5$??$_Reallocate_grow_by@V<lambda_65e615be2a453ca0576c979606f46740>@@PEBD_K@?$basic_string@DU?$char_traits@D@std@@V?$allocator@D@2@@std@@QEAAAEAV01@_KV<lambda_65e615be2a453ca0576c979606f46740>@@PEBD_K@Z 000000018006b018     njsOracle.obj
 0002:00017038       $unwind$??$_Reallocate_grow_by@V<lambda_b986da8d428e4af07c64af60eec09b61>@@_K_KD@?$basic_string@DU?$char_traits@D@std@@V?$allocator@D@2@@std@@QEAAAEAV01@_KV<lambda_b986da8d428e4af07c64af60eec09b61>@@_K2D@Z 000000018006b038     njsOracle.obj
 0002:00017048       $chain$3$??$_Reallocate_grow_by@V<lambda_b986da8d428e4af07c64af60eec09b61>@@_K_KD@?$basic_string@DU?$char_traits@D@std@@V?$allocator@D@2@@std@@QEAAAEAV01@_KV<lambda_b986da8d428e4af07c64af60eec09b61>@@_K2D@Z 000000018006b048     njsOracle.obj
 0002:00017068       $chain$4$??$_Reallocate_grow_by@V<lambda_b986da8d428e4af07c64af60eec09b61>@@_K_KD@?$basic_string@DU?$char_traits@D@std@@V?$allocator@D@2@@std@@QEAAAEAV01@_KV<lambda_b986da8d428e4af07c64af60eec09b61>@@_K2D@Z 000000018006b068     njsOracle.obj
 0002:00017078       $chain$5$??$_Reallocate_grow_by@V<lambda_b986da8d428e4af07c64af60eec09b61>@@_K_KD@?$basic_string@DU?$char_traits@D@std@@V?$allocator@D@2@@std@@QEAAAEAV01@_KV<lambda_b986da8d428e4af07c64af60eec09b61>@@_K2D@Z 000000018006b078     njsOracle.obj
 0002:00017098       $unwind$?_Getcat@?$numpunct@D@std@@SA_KPEAPEBVfacet@locale@2@PEBV42@@Z 000000018006b098     njsOracle.obj
 0002:000170b4       $stateUnwindMap$?_Getcat@?$numpunct@D@std@@SA_KPEAPEBVfacet@locale@2@PEBV42@@Z 000000018006b0b4     njsOracle.obj
 0002:000170d8       $ip2state$?_Getcat@?$numpunct@D@std@@SA_KPEAPEBVfacet@locale@2@PEBV42@@Z 000000018006b0d8     njsOracle.obj
 0002:00017108       $unwind$?sputn@?$basic_streambuf@DU?$char_traits@D@std@@@std@@QEAA_JPEBD_J@Z 000000018006b108     njsOracle.obj
 0002:00017118       $chain$0$?sputn@?$basic_streambuf@DU?$char_traits@D@std@@@std@@QEAA_JPEBD_J@Z 000000018006b118     njsOracle.obj
 0002:0001712c       $chain$1$?sputn@?$basic_streambuf@DU?$char_traits@D@std@@@std@@QEAA_JPEBD_J@Z 000000018006b12c     njsOracle.obj
 0002:00017140       $chain$2$?sputn@?$basic_streambuf@DU?$char_traits@D@std@@@std@@QEAA_JPEBD_J@Z 000000018006b140     njsOracle.obj
 0002:00017150       $chain$3$?sputn@?$basic_streambuf@DU?$char_traits@D@std@@@std@@QEAA_JPEBD_J@Z 000000018006b150     njsOracle.obj
 0002:00017160       $unwind$??0poolBaton@@QEAA@V?$Local@VFunction@v8@@@v8@@V?$Local@VObject@v8@@@2@@Z 000000018006b160     njsPool.obj
 0002:0001717c       $stateUnwindMap$??0poolBaton@@QEAA@V?$Local@VFunction@v8@@@v8@@V?$Local@VObject@v8@@@2@@Z 000000018006b17c     njsPool.obj
 0002:000171a0       $ip2state$??0poolBaton@@QEAA@V?$Local@VFunction@v8@@@v8@@V?$Local@VObject@v8@@@2@@Z 000000018006b1a0     njsPool.obj
 0002:000171d0       $unwind$??__F?poolTemplate_s@Pool@@2V?$Persistent@VFunctionTemplate@v8@@V?$NonCopyablePersistentTraits@VFunctionTemplate@v8@@@2@@Nan@@A@@YAXXZ 000000018006b1d0     njsPool.obj
 0002:000171e0       $ip2state$??__F?poolTemplate_s@Pool@@2V?$Persistent@VFunctionTemplate@v8@@V?$NonCopyablePersistentTraits@VFunctionTemplate@v8@@@2@@Nan@@A@@YAXXZ 000000018006b1e0     njsPool.obj
 0002:000171e8       $unwind$??_GPool@@EEAAPEAXI@Z 000000018006b1e8     njsPool.obj
 0002:00017200       $ip2state$??_GPool@@EEAAPEAXI@Z 000000018006b200     njsPool.obj
 0002:00017218       $unwind$?Init@Pool@@SAXV?$Local@VObject@v8@@@v8@@@Z 000000018006b218     njsPool.obj
 0002:00017230       $ip2state$?Init@Pool@@SAXV?$Local@VObject@v8@@@v8@@@Z 000000018006b230     njsPool.obj
 0002:00017258       $unwind$?getPoolProperty@Pool@@CA?AV?$Local@VPrimitive@v8@@@v8@@PEAV1@I@Z 000000018006b258     njsPool.obj
 0002:00017278       $stateUnwindMap$?getPoolProperty@Pool@@CA?AV?$Local@VPrimitive@v8@@@v8@@PEAV1@H@Z 000000018006b278     njsPool.obj
 0002:00017278       $stateUnwindMap$?getPoolProperty@Pool@@CA?AV?$Local@VPrimitive@v8@@@v8@@PEAV1@I@Z 000000018006b278     njsPool.obj
 0002:00017290       $ip2state$?getPoolProperty@Pool@@CA?AV?$Local@VPrimitive@v8@@@v8@@PEAV1@I@Z 000000018006b290     njsPool.obj
 0002:000172c8       $unwind$?getPoolProperty@Pool@@CA?AV?$Local@VPrimitive@v8@@@v8@@PEAV1@H@Z 000000018006b2c8     njsPool.obj
 0002:000172e8       $ip2state$?getPoolProperty@Pool@@CA?AV?$Local@VPrimitive@v8@@@v8@@PEAV1@H@Z 000000018006b2e8     njsPool.obj
 0002:00017320       $unwind$?GetPoolMin@Pool@@CAXV?$Local@VString@v8@@@v8@@AEBV?$PropertyCallbackInfo@VValue@v8@@@Nan@@@Z 000000018006b320     njsPool.obj
 0002:00017338       $ip2state$?GetPoolMin@Pool@@CAXV?$Local@VString@v8@@@v8@@AEBV?$PropertyCallbackInfo@VValue@v8@@@Nan@@@Z 000000018006b338     njsPool.obj
 0002:00017350       $unwind$?GetPoolMax@Pool@@CAXV?$Local@VString@v8@@@v8@@AEBV?$PropertyCallbackInfo@VValue@v8@@@Nan@@@Z 000000018006b350     njsPool.obj
 0002:00017368       $ip2state$?GetPoolMax@Pool@@CAXV?$Local@VString@v8@@@v8@@AEBV?$PropertyCallbackInfo@VValue@v8@@@Nan@@@Z 000000018006b368     njsPool.obj
 0002:00017380       $unwind$?GetPoolIncrement@Pool@@CAXV?$Local@VString@v8@@@v8@@AEBV?$PropertyCallbackInfo@VValue@v8@@@Nan@@@Z 000000018006b380     njsPool.obj
 0002:00017398       $ip2state$?GetPoolIncrement@Pool@@CAXV?$Local@VString@v8@@@v8@@AEBV?$PropertyCallbackInfo@VValue@v8@@@Nan@@@Z 000000018006b398     njsPool.obj
 0002:000173b0       $unwind$?GetPoolTimeout@Pool@@CAXV?$Local@VString@v8@@@v8@@AEBV?$PropertyCallbackInfo@VValue@v8@@@Nan@@@Z 000000018006b3b0     njsPool.obj
 0002:000173c8       $ip2state$?GetPoolTimeout@Pool@@CAXV?$Local@VString@v8@@@v8@@AEBV?$PropertyCallbackInfo@VValue@v8@@@Nan@@@Z 000000018006b3c8     njsPool.obj
 0002:000173e0       $unwind$?GetConnectionsOpen@Pool@@CAXV?$Local@VString@v8@@@v8@@AEBV?$PropertyCallbackInfo@VValue@v8@@@Nan@@@Z 000000018006b3e0     njsPool.obj
 0002:000173f8       $stateUnwindMap$?GetConnectionsOpen@Pool@@CAXV?$Local@VString@v8@@@v8@@AEBV?$PropertyCallbackInfo@VValue@v8@@@Nan@@@Z 000000018006b3f8     njsPool.obj
 0002:00017418       $tryMap$?GetConnectionsOpen@Pool@@CAXV?$Local@VString@v8@@@v8@@AEBV?$PropertyCallbackInfo@VValue@v8@@@Nan@@@Z 000000018006b418     njsPool.obj
 0002:0001742c       $handlerMap$0$?GetConnectionsOpen@Pool@@CAXV?$Local@VString@v8@@@v8@@AEBV?$PropertyCallbackInfo@VValue@v8@@@Nan@@@Z 000000018006b42c     njsPool.obj
 0002:00017440       $ip2state$?GetConnectionsOpen@Pool@@CAXV?$Local@VString@v8@@@v8@@AEBV?$PropertyCallbackInfo@VValue@v8@@@Nan@@@Z 000000018006b440     njsPool.obj
 0002:00017498       $unwind$?catch$2@?0??GetConnectionsOpen@Pool@@CAXV?$Local@VString@v8@@@v8@@AEBV?$PropertyCallbackInfo@VValue@v8@@@Nan@@@Z@4HA 000000018006b498     njsPool.obj
 0002:000174a8       $unwind$?GetConnectionsInUse@Pool@@CAXV?$Local@VString@v8@@@v8@@AEBV?$PropertyCallbackInfo@VValue@v8@@@Nan@@@Z 000000018006b4a8     njsPool.obj
 0002:000174c0       $stateUnwindMap$?GetConnectionsInUse@Pool@@CAXV?$Local@VString@v8@@@v8@@AEBV?$PropertyCallbackInfo@VValue@v8@@@Nan@@@Z 000000018006b4c0     njsPool.obj
 0002:000174e0       $tryMap$?GetConnectionsInUse@Pool@@CAXV?$Local@VString@v8@@@v8@@AEBV?$PropertyCallbackInfo@VValue@v8@@@Nan@@@Z 000000018006b4e0     njsPool.obj
 0002:000174f4       $handlerMap$0$?GetConnectionsInUse@Pool@@CAXV?$Local@VString@v8@@@v8@@AEBV?$PropertyCallbackInfo@VValue@v8@@@Nan@@@Z 000000018006b4f4     njsPool.obj
 0002:00017510       $ip2state$?GetConnectionsInUse@Pool@@CAXV?$Local@VString@v8@@@v8@@AEBV?$PropertyCallbackInfo@VValue@v8@@@Nan@@@Z 000000018006b510     njsPool.obj
 0002:00017568       $unwind$?catch$2@?0??GetConnectionsInUse@Pool@@CAXV?$Local@VString@v8@@@v8@@AEBV?$PropertyCallbackInfo@VValue@v8@@@Nan@@@Z@4HA 000000018006b568     njsPool.obj
 0002:00017578       $unwind$?GetStmtCacheSize@Pool@@CAXV?$Local@VString@v8@@@v8@@AEBV?$PropertyCallbackInfo@VValue@v8@@@Nan@@@Z 000000018006b578     njsPool.obj
 0002:00017590       $ip2state$?GetStmtCacheSize@Pool@@CAXV?$Local@VString@v8@@@v8@@AEBV?$PropertyCallbackInfo@VValue@v8@@@Nan@@@Z 000000018006b590     njsPool.obj
 0002:000175a8       $unwind$?GetPoolPingInterval@Pool@@CAXV?$Local@VString@v8@@@v8@@AEBV?$PropertyCallbackInfo@VValue@v8@@@Nan@@@Z 000000018006b5a8     njsPool.obj
 0002:000175c0       $ip2state$?GetPoolPingInterval@Pool@@CAXV?$Local@VString@v8@@@v8@@AEBV?$PropertyCallbackInfo@VValue@v8@@@Nan@@@Z 000000018006b5c0     njsPool.obj
 0002:000175d8       $unwind$?setPoolProperty@Pool@@CAXPEAV1@V?$basic_string@DU?$char_traits@D@std@@V?$allocator@D@2@@std@@@Z 000000018006b5d8     njsPool.obj
 0002:000175f8       $stateUnwindMap$?setPoolProperty@Pool@@CAXPEAV1@V?$basic_string@DU?$char_traits@D@std@@V?$allocator@D@2@@std@@@Z 000000018006b5f8     njsPool.obj
 0002:00017620       $ip2state$?setPoolProperty@Pool@@CAXPEAV1@V?$basic_string@DU?$char_traits@D@std@@V?$allocator@D@2@@std@@@Z 000000018006b620     njsPool.obj
 0002:00017668       $unwind$?SetPoolMin@Pool@@CAXV?$Local@VString@v8@@@v8@@V?$Local@VValue@v8@@@3@AEBV?$PropertyCallbackInfo@X@Nan@@@Z 000000018006b668     njsPool.obj
 0002:00017678       $stateUnwindMap$?SetConnectionsInUse@Pool@@CAXV?$Local@VString@v8@@@v8@@V?$Local@VValue@v8@@@3@AEBV?$PropertyCallbackInfo@X@Nan@@@Z 000000018006b678     njsPool.obj
 0002:00017678       $stateUnwindMap$?SetStmtCacheSize@Pool@@CAXV?$Local@VString@v8@@@v8@@V?$Local@VValue@v8@@@3@AEBV?$PropertyCallbackInfo@X@Nan@@@Z 000000018006b678     njsPool.obj
 0002:00017678       $stateUnwindMap$?SetPoolMin@Pool@@CAXV?$Local@VString@v8@@@v8@@V?$Local@VValue@v8@@@3@AEBV?$PropertyCallbackInfo@X@Nan@@@Z 000000018006b678     njsPool.obj
 0002:00017678       $stateUnwindMap$?SetPoolMax@Pool@@CAXV?$Local@VString@v8@@@v8@@V?$Local@VValue@v8@@@3@AEBV?$PropertyCallbackInfo@X@Nan@@@Z 000000018006b678     njsPool.obj
 0002:00017678       $stateUnwindMap$?SetPoolPingInterval@Pool@@CAXV?$Local@VString@v8@@@v8@@V?$Local@VValue@v8@@@3@AEBV?$PropertyCallbackInfo@X@Nan@@@Z 000000018006b678     njsPool.obj
 0002:00017678       $stateUnwindMap$?SetPoolIncrement@Pool@@CAXV?$Local@VString@v8@@@v8@@V?$Local@VValue@v8@@@3@AEBV?$PropertyCallbackInfo@X@Nan@@@Z 000000018006b678     njsPool.obj
 0002:00017678       $stateUnwindMap$?SetPoolTimeout@Pool@@CAXV?$Local@VString@v8@@@v8@@V?$Local@VValue@v8@@@3@AEBV?$PropertyCallbackInfo@X@Nan@@@Z 000000018006b678     njsPool.obj
 0002:00017678       $stateUnwindMap$?SetConnectionsOpen@Pool@@CAXV?$Local@VString@v8@@@v8@@V?$Local@VValue@v8@@@3@AEBV?$PropertyCallbackInfo@X@Nan@@@Z 000000018006b678     njsPool.obj
 0002:00017680       $ip2state$?SetPoolMin@Pool@@CAXV?$Local@VString@v8@@@v8@@V?$Local@VValue@v8@@@3@AEBV?$PropertyCallbackInfo@X@Nan@@@Z 000000018006b680     njsPool.obj
 0002:00017698       $unwind$?SetPoolMax@Pool@@CAXV?$Local@VString@v8@@@v8@@V?$Local@VValue@v8@@@3@AEBV?$PropertyCallbackInfo@X@Nan@@@Z 000000018006b698     njsPool.obj
 0002:000176a8       $ip2state$?SetPoolMax@Pool@@CAXV?$Local@VString@v8@@@v8@@V?$Local@VValue@v8@@@3@AEBV?$PropertyCallbackInfo@X@Nan@@@Z 000000018006b6a8     njsPool.obj
 0002:000176c0       $unwind$?SetPoolIncrement@Pool@@CAXV?$Local@VString@v8@@@v8@@V?$Local@VValue@v8@@@3@AEBV?$PropertyCallbackInfo@X@Nan@@@Z 000000018006b6c0     njsPool.obj
 0002:000176d0       $ip2state$?SetPoolIncrement@Pool@@CAXV?$Local@VString@v8@@@v8@@V?$Local@VValue@v8@@@3@AEBV?$PropertyCallbackInfo@X@Nan@@@Z 000000018006b6d0     njsPool.obj
 0002:000176e8       $unwind$?SetPoolTimeout@Pool@@CAXV?$Local@VString@v8@@@v8@@V?$Local@VValue@v8@@@3@AEBV?$PropertyCallbackInfo@X@Nan@@@Z 000000018006b6e8     njsPool.obj
 0002:000176f8       $ip2state$?SetPoolTimeout@Pool@@CAXV?$Local@VString@v8@@@v8@@V?$Local@VValue@v8@@@3@AEBV?$PropertyCallbackInfo@X@Nan@@@Z 000000018006b6f8     njsPool.obj
 0002:00017710       $unwind$?SetConnectionsOpen@Pool@@CAXV?$Local@VString@v8@@@v8@@V?$Local@VValue@v8@@@3@AEBV?$PropertyCallbackInfo@X@Nan@@@Z 000000018006b710     njsPool.obj
 0002:00017720       $ip2state$?SetConnectionsOpen@Pool@@CAXV?$Local@VString@v8@@@v8@@V?$Local@VValue@v8@@@3@AEBV?$PropertyCallbackInfo@X@Nan@@@Z 000000018006b720     njsPool.obj
 0002:00017738       $unwind$?SetConnectionsInUse@Pool@@CAXV?$Local@VString@v8@@@v8@@V?$Local@VValue@v8@@@3@AEBV?$PropertyCallbackInfo@X@Nan@@@Z 000000018006b738     njsPool.obj
 0002:00017748       $ip2state$?SetConnectionsInUse@Pool@@CAXV?$Local@VString@v8@@@v8@@V?$Local@VValue@v8@@@3@AEBV?$PropertyCallbackInfo@X@Nan@@@Z 000000018006b748     njsPool.obj
 0002:00017760       $unwind$?SetStmtCacheSize@Pool@@CAXV?$Local@VString@v8@@@v8@@V?$Local@VValue@v8@@@3@AEBV?$PropertyCallbackInfo@X@Nan@@@Z 000000018006b760     njsPool.obj
 0002:00017770       $ip2state$?SetStmtCacheSize@Pool@@CAXV?$Local@VString@v8@@@v8@@V?$Local@VValue@v8@@@3@AEBV?$PropertyCallbackInfo@X@Nan@@@Z 000000018006b770     njsPool.obj
 0002:00017788       $unwind$?SetPoolPingInterval@Pool@@CAXV?$Local@VString@v8@@@v8@@V?$Local@VValue@v8@@@3@AEBV?$PropertyCallbackInfo@X@Nan@@@Z 000000018006b788     njsPool.obj
 0002:00017798       $ip2state$?SetPoolPingInterval@Pool@@CAXV?$Local@VString@v8@@@v8@@V?$Local@VValue@v8@@@3@AEBV?$PropertyCallbackInfo@X@Nan@@@Z 000000018006b798     njsPool.obj
 0002:000177b0       $unwind$?GetConnection@Pool@@CAXAEBV?$FunctionCallbackInfo@VValue@v8@@@Nan@@@Z 000000018006b7b0     njsPool.obj
 0002:000177d4       $stateUnwindMap$?GetConnection@Pool@@CAXAEBV?$FunctionCallbackInfo@VValue@v8@@@Nan@@@Z 000000018006b7d4     njsPool.obj
 0002:000177d4       $stateUnwindMap$?Terminate@Pool@@CAXAEBV?$FunctionCallbackInfo@VValue@v8@@@Nan@@@Z 000000018006b7d4     njsPool.obj
 0002:000177f0       $ip2state$?GetConnection@Pool@@CAXAEBV?$FunctionCallbackInfo@VValue@v8@@@Nan@@@Z 000000018006b7f0     njsPool.obj
 0002:00017838       $unwind$??_GpoolBaton@@QEAAPEAXI@Z 000000018006b838     njsPool.obj
 0002:0001784c       $stateUnwindMap$??_GpoolBaton@@QEAAPEAXI@Z 000000018006b84c     njsPool.obj
 0002:00017868       $ip2state$??_GpoolBaton@@QEAAPEAXI@Z 000000018006b868     njsPool.obj
 0002:00017880       $unwind$?Async_GetConnection@Pool@@CAXPEAUuv_work_s@@@Z 000000018006b880     njsPool.obj
 0002:000178a4       $stateUnwindMap$?Async_GetConnection@Pool@@CAXPEAUuv_work_s@@@Z 000000018006b8a4     njsPool.obj
 0002:000178d4       $tryMap$?Async_GetConnection@Pool@@CAXPEAUuv_work_s@@@Z 000000018006b8d4     njsPool.obj
 0002:000178e8       $handlerMap$0$?Async_GetConnection@Pool@@CAXPEAUuv_work_s@@@Z 000000018006b8e8     njsPool.obj
 0002:00017900       $ip2state$?Async_GetConnection@Pool@@CAXPEAUuv_work_s@@@Z 000000018006b900     njsPool.obj
 0002:00017970       $unwind$?catch$5@?0??Async_GetConnection@Pool@@CAXPEAUuv_work_s@@@Z@4HA 000000018006b970     njsPool.obj
 0002:00017980       $unwind$?Async_AfterGetConnection@Pool@@CAXPEAUuv_work_s@@@Z 000000018006b980     njsPool.obj
 0002:000179a0       $ip2state$?Async_AfterGetConnection@Pool@@CAXPEAUuv_work_s@@@Z 000000018006b9a0     njsPool.obj
 0002:000179e8       $unwind$?Terminate@Pool@@CAXAEBV?$FunctionCallbackInfo@VValue@v8@@@Nan@@@Z 000000018006b9e8     njsPool.obj
 0002:00017a10       $ip2state$?Terminate@Pool@@CAXAEBV?$FunctionCallbackInfo@VValue@v8@@@Nan@@@Z 000000018006ba10     njsPool.obj
 0002:00017a58       $unwind$?Async_Terminate@Pool@@CAXPEAUuv_work_s@@@Z 000000018006ba58     njsPool.obj
 0002:00017a70       $stateUnwindMap$?Async_Break@Connection@@CAXPEAUuv_work_s@@@Z 000000018006ba70     njsConnection.obj
 0002:00017a70       $stateUnwindMap$??0ProtoILob@@QEAA@PEAUeBaton@@PEAUDescriptor@dpi@@G@Z 000000018006ba70     njsIntLob.obj
 0002:00017a70       $stateUnwindMap$?Async_CreateLob@Connection@@CAXPEAUuv_work_s@@@Z 000000018006ba70     njsConnection.obj
 0002:00017a70       $stateUnwindMap$?Async_Terminate@Pool@@CAXPEAUuv_work_s@@@Z 000000018006ba70     njsPool.obj
 0002:00017a70       $stateUnwindMap$?Async_Close@ResultSet@@CAXPEAUuv_work_s@@@Z 000000018006ba70     njsResultSet.obj
 0002:00017a70       $stateUnwindMap$?Async_GetRows@ResultSet@@CAXPEAUuv_work_s@@@Z 000000018006ba70     njsResultSet.obj
 0002:00017a70       $stateUnwindMap$?setILob@ILob@@QEAAXPEAUeBaton@@PEAVProtoILob@@_N@Z 000000018006ba70     njsIntLob.obj
 0002:00017a70       $stateUnwindMap$?Async_Rollback@Connection@@CAXPEAUuv_work_s@@@Z 000000018006ba70     njsConnection.obj
 0002:00017a70       $stateUnwindMap$?Async_Commit@Connection@@CAXPEAUuv_work_s@@@Z 000000018006ba70     njsConnection.obj
 0002:00017a70       $stateUnwindMap$?Async_Read@ILob@@CAXPEAUuv_work_s@@@Z 000000018006ba70     njsIntLob.obj
 0002:00017a70       $stateUnwindMap$?Async_Write@ILob@@CAXPEAUuv_work_s@@@Z 000000018006ba70     njsIntLob.obj
 0002:00017a80       $tryMap$?Async_Terminate@Pool@@CAXPEAUuv_work_s@@@Z 000000018006ba80     njsPool.obj
 0002:00017a94       $handlerMap$0$?Async_Terminate@Pool@@CAXPEAUuv_work_s@@@Z 000000018006ba94     njsPool.obj
 0002:00017aa8       $ip2state$?Async_Terminate@Pool@@CAXPEAUuv_work_s@@@Z 000000018006baa8     njsPool.obj
 0002:00017ad8       $unwind$?catch$1@?0??Async_Terminate@Pool@@CAXPEAUuv_work_s@@@Z@4HA 000000018006bad8     njsPool.obj
 0002:00017ae8       $unwind$?Async_AfterTerminate@Pool@@CAXPEAUuv_work_s@@@Z 000000018006bae8     njsPool.obj
 0002:00017b00       $stateUnwindMap$?Async_AfterWrite@ILob@@CAXPEAUuv_work_s@@@Z 000000018006bb00     njsIntLob.obj
 0002:00017b00       $stateUnwindMap$?Async_AfterClose@ILob@@CAXPEAUuv_work_s@@@Z 000000018006bb00     njsIntLob.obj
 0002:00017b00       $stateUnwindMap$?Async_AfterClose@ResultSet@@CAXPEAUuv_work_s@@@Z 000000018006bb00     njsResultSet.obj
 0002:00017b00       $stateUnwindMap$?Async_AfterRollback@Connection@@CAXPEAUuv_work_s@@@Z 000000018006bb00     njsConnection.obj
 0002:00017b00       $stateUnwindMap$?Async_AfterBreak@Connection@@CAXPEAUuv_work_s@@@Z 000000018006bb00     njsConnection.obj
 0002:00017b00       $stateUnwindMap$?Async_AfterTerminate@Pool@@CAXPEAUuv_work_s@@@Z 000000018006bb00     njsPool.obj
 0002:00017b00       $stateUnwindMap$?Async_AfterCommit@Connection@@CAXPEAUuv_work_s@@@Z 000000018006bb00     njsConnection.obj
 0002:00017b10       $ip2state$?Async_AfterTerminate@Pool@@CAXPEAUuv_work_s@@@Z 000000018006bb10     njsPool.obj
 0002:00017b38       $unwind$?ForceSet@Nan@@YA?AV?$Maybe@_N@v8@@V?$Local@VObject@v8@@@3@V?$Local@VValue@v8@@@3@1W4PropertyAttribute@3@@Z 000000018006bb38     njsConnection.obj
 0002:00017b54       $stateUnwindMap$?ForceSet@Nan@@YA?AV?$Maybe@_N@v8@@V?$Local@VObject@v8@@@3@V?$Local@VValue@v8@@@3@1W4PropertyAttribute@3@@Z 000000018006bb54     njsConnection.obj
 0002:00017b60       $ip2state$?ForceSet@Nan@@YA?AV?$Maybe@_N@v8@@V?$Local@VObject@v8@@@3@V?$Local@VValue@v8@@@3@1W4PropertyAttribute@3@@Z 000000018006bb60     njsConnection.obj
 0002:00017b78       $unwind$??0eBaton@@QEAA@AEAIV?$Local@VFunction@v8@@@v8@@V?$Local@VObject@v8@@@2@@Z 000000018006bb78     njsConnection.obj
 0002:00017b94       $stateUnwindMap$??0eBaton@@QEAA@AEAIV?$Local@VFunction@v8@@@v8@@V?$Local@VObject@v8@@@2@@Z 000000018006bb94     njsConnection.obj
 0002:00017be0       $ip2state$??0eBaton@@QEAA@AEAIV?$Local@VFunction@v8@@@v8@@V?$Local@VObject@v8@@@2@@Z 000000018006bbe0     njsConnection.obj
 0002:00017c38       $unwind$??1eBaton@@QEAA@XZ 000000018006bc38     njsConnection.obj
 0002:00017c60       $ip2state$??1eBaton@@QEAA@XZ 000000018006bc60     njsConnection.obj
 0002:00017c98       $unwind$??_EMetaInfo@@QEAAPEAXI@Z 000000018006bc98     njsConnection.obj
 0002:00017ca8       $ip2state$??_EMetaInfo@@QEAAPEAXI@Z 000000018006bca8     njsConnection.obj
 0002:00017cb0       $unwind$??_EfetchInfo@@QEAAPEAXI@Z 000000018006bcb0     njsConnection.obj
 0002:00017cc0       $ip2state$??_EfetchInfo@@QEAAPEAXI@Z 000000018006bcc0     njsConnection.obj
 0002:00017cc8       $unwind$??__F?connectionTemplate_s@Connection@@2V?$Persistent@VFunctionTemplate@v8@@V?$NonCopyablePersistentTraits@VFunctionTemplate@v8@@@2@@Nan@@A@@YAXXZ 000000018006bcc8     njsConnection.obj
 0002:00017cd8       $ip2state$??__F?connectionTemplate_s@Connection@@2V?$Persistent@VFunctionTemplate@v8@@V?$NonCopyablePersistentTraits@VFunctionTemplate@v8@@@2@@Nan@@A@@YAXXZ 000000018006bcd8     njsConnection.obj
 0002:00017ce0       $unwind$??_GConnection@@EEAAPEAXI@Z 000000018006bce0     njsConnection.obj
 0002:00017cf8       $ip2state$??_GConnection@@EEAAPEAXI@Z 000000018006bcf8     njsConnection.obj
 0002:00017d10       $unwind$__acrt_free_locale 000000018006bd10     libucrt:locale_refcounting.obj
 0002:00017d10       $unwind$_wassert           000000018006bd10     libucrt:assert.obj
 0002:00017d10       $unwind$?setSBCS@@YAXPEAU__crt_multibyte_data@@@Z 000000018006bd10     libucrt:mbctype.obj
 0002:00017d10       $unwind$__vcrt_InitializeCriticalSectionEx 000000018006bd10     libvcruntime:winapi_downlevel.obj
 0002:00017d10       $unwind$?_Change_array@?$vector@PEAUExtDefine@@V?$allocator@PEAUExtDefine@@@std@@@std@@AEAAXQEAPEAUExtDefine@@_K1@Z 000000018006bd10     njsConnection.obj
 0002:00017d10       $unwind$?_Change_array@?$vector@PEAUExtBind@@V?$allocator@PEAUExtBind@@@std@@@std@@AEAAXQEAPEAUExtBind@@_K1@Z 000000018006bd10     njsConnection.obj
 0002:00017d10       $unwind$?process@?$output_processor@DV?$string_output_adapter@D@__crt_stdio_output@@V?$format_validation_base@DV?$string_output_adapter@D@__crt_stdio_output@@@2@@__crt_stdio_output@@QEAAHXZ 000000018006bd10     libucrt:output.obj
 0002:00017d10       $unwind$__acrt_show_wide_message_box 000000018006bd10     libucrt:crtmbox.obj
 0002:00017d10       $unwind$??$ensure_buffer_is_big_enough@D@formatting_buffer@__crt_stdio_output@@QEAA_N_K@Z 000000018006bd10     libucrt:output.obj
 0002:00017d10       $unwind$_recalloc_base     000000018006bd10     libucrt:recalloc.obj
 0002:00017d10       $unwind$__scrt_dllmain_exception_filter 000000018006bd10     LIBCMT:utility.obj
 0002:00017d10       $unwind$?dllmain_raw@@YAHQEAUHINSTANCE__@@KQEAX@Z 000000018006bd10     LIBCMT:dll_dllmain.obj
 0002:00017d10       $unwind$_seh_filter_exe    000000018006bd10     libucrt:exception_filter.obj
 0002:00017d10       $unwind$__crtInitializeCriticalSectionEx 000000018006bd10     libcpmt:winapisupp.obj
 0002:00017d10       $unwind$?setConnection@Connection@@QEAAXPEAVConn@dpi@@PEAVOracledb@@V?$Local@VObject@v8@@@v8@@@Z 000000018006bd10     njsConnection.obj
 0002:00017d10       $unwind$?_ExecutionInCatch@@YAHPEAU_xDISPATCHER_CONTEXT@@PEBU_s_FuncInfo@@@Z 000000018006bd10     libvcruntime:risctrnsctrl.obj
 0002:00017d10       $unwind$__acrt_lowio_create_handle_array 000000018006bd10     libucrt:osfinfo.obj
 0002:00017d10       $unwind$_initterm          000000018006bd10     libucrt:initterm.obj
 0002:00017d24       $unwind$?Init@Connection@@SAXV?$Local@VObject@v8@@@v8@@@Z 000000018006bd24     njsConnection.obj
 0002:00017d40       $ip2state$?Init@Connection@@SAXV?$Local@VObject@v8@@@v8@@@Z 000000018006bd40     njsConnection.obj
 0002:00017d68       $unwind$?connectionPropertyException@Connection@@CAXPEAV1@W4NJSErrorType@@V?$basic_string@DU?$char_traits@D@std@@V?$allocator@D@2@@std@@@Z 000000018006bd68     njsConnection.obj
 0002:00017d88       $stateUnwindMap$?connectionPropertyException@Connection@@CAXPEAV1@W4NJSErrorType@@V?$basic_string@DU?$char_traits@D@std@@V?$allocator@D@2@@std@@@Z 000000018006bd88     njsConnection.obj
 0002:00017d88       $stateUnwindMap$?lobPropertyException@ILob@@CAXPEAV1@W4NJSErrorType@@V?$basic_string@DU?$char_traits@D@std@@V?$allocator@D@2@@std@@@Z 000000018006bd88     njsIntLob.obj
 0002:00017da0       $ip2state$?connectionPropertyException@Connection@@CAXPEAV1@W4NJSErrorType@@V?$basic_string@DU?$char_traits@D@std@@V?$allocator@D@2@@std@@@Z 000000018006bda0     njsConnection.obj
 0002:00017dd8       $unwind$?GetStmtCacheSize@Connection@@CAXV?$Local@VString@v8@@@v8@@AEBV?$PropertyCallbackInfo@VValue@v8@@@Nan@@@Z 000000018006bdd8     njsConnection.obj
 0002:00017df0       $stateUnwindMap$?GetStmtCacheSize@Connection@@CAXV?$Local@VString@v8@@@v8@@AEBV?$PropertyCallbackInfo@VValue@v8@@@Nan@@@Z 000000018006bdf0     njsConnection.obj
 0002:00017e10       $tryMap$?GetStmtCacheSize@Connection@@CAXV?$Local@VString@v8@@@v8@@AEBV?$PropertyCallbackInfo@VValue@v8@@@Nan@@@Z 000000018006be10     njsConnection.obj
 0002:00017e24       $handlerMap$0$?GetStmtCacheSize@Connection@@CAXV?$Local@VString@v8@@@v8@@AEBV?$PropertyCallbackInfo@VValue@v8@@@Nan@@@Z 000000018006be24     njsConnection.obj
 0002:00017e40       $ip2state$?GetStmtCacheSize@Connection@@CAXV?$Local@VString@v8@@@v8@@AEBV?$PropertyCallbackInfo@VValue@v8@@@Nan@@@Z 000000018006be40     njsConnection.obj
 0002:00017e98       $unwind$?catch$2@?0??GetStmtCacheSize@Connection@@CAXV?$Local@VString@v8@@@v8@@AEBV?$PropertyCallbackInfo@VValue@v8@@@Nan@@@Z@4HA 000000018006be98     njsConnection.obj
 0002:00017eac       $unwind$?SetStmtCacheSize@Connection@@CAXV?$Local@VString@v8@@@v8@@V?$Local@VValue@v8@@@3@AEBV?$PropertyCallbackInfo@X@Nan@@@Z 000000018006beac     njsConnection.obj
 0002:00017ec0       $ip2state$?SetStmtCacheSize@Connection@@CAXV?$Local@VString@v8@@@v8@@V?$Local@VValue@v8@@@3@AEBV?$PropertyCallbackInfo@X@Nan@@@Z 000000018006bec0     njsConnection.obj
 0002:00017ed8       $unwind$?SetClientId@Connection@@CAXV?$Local@VString@v8@@@v8@@V?$Local@VValue@v8@@@3@AEBV?$PropertyCallbackInfo@X@Nan@@@Z 000000018006bed8     njsConnection.obj
 0002:00017ef4       $stateUnwindMap$?SetClientId@Connection@@CAXV?$Local@VString@v8@@@v8@@V?$Local@VValue@v8@@@3@AEBV?$PropertyCallbackInfo@X@Nan@@@Z 000000018006bef4     njsConnection.obj
 0002:00017f2c       $tryMap$?SetClientId@Connection@@CAXV?$Local@VString@v8@@@v8@@V?$Local@VValue@v8@@@3@AEBV?$PropertyCallbackInfo@X@Nan@@@Z 000000018006bf2c     njsConnection.obj
 0002:00017f40       $handlerMap$0$?SetClientId@Connection@@CAXV?$Local@VString@v8@@@v8@@V?$Local@VValue@v8@@@3@AEBV?$PropertyCallbackInfo@X@Nan@@@Z 000000018006bf40     njsConnection.obj
 0002:00017f60       $ip2state$?SetClientId@Connection@@CAXV?$Local@VString@v8@@@v8@@V?$Local@VValue@v8@@@3@AEBV?$PropertyCallbackInfo@X@Nan@@@Z 000000018006bf60     njsConnection.obj
 0002:00017fd8       $unwind$?catch$7@?0??SetClientId@Connection@@CAXV?$Local@VString@v8@@@v8@@V?$Local@VValue@v8@@@3@AEBV?$PropertyCallbackInfo@X@Nan@@@Z@4HA 000000018006bfd8     njsConnection.obj
 0002:00017fec       $unwind$?SetModule@Connection@@CAXV?$Local@VString@v8@@@v8@@V?$Local@VValue@v8@@@3@AEBV?$PropertyCallbackInfo@X@Nan@@@Z 000000018006bfec     njsConnection.obj
 0002:00018008       $stateUnwindMap$?SetModule@Connection@@CAXV?$Local@VString@v8@@@v8@@V?$Local@VValue@v8@@@3@AEBV?$PropertyCallbackInfo@X@Nan@@@Z 000000018006c008     njsConnection.obj
 0002:00018040       $tryMap$?SetModule@Connection@@CAXV?$Local@VString@v8@@@v8@@V?$Local@VValue@v8@@@3@AEBV?$PropertyCallbackInfo@X@Nan@@@Z 000000018006c040     njsConnection.obj
 0002:00018054       $handlerMap$0$?SetModule@Connection@@CAXV?$Local@VString@v8@@@v8@@V?$Local@VValue@v8@@@3@AEBV?$PropertyCallbackInfo@X@Nan@@@Z 000000018006c054     njsConnection.obj
 0002:00018070       $ip2state$?SetModule@Connection@@CAXV?$Local@VString@v8@@@v8@@V?$Local@VValue@v8@@@3@AEBV?$PropertyCallbackInfo@X@Nan@@@Z 000000018006c070     njsConnection.obj
 0002:000180e8       $unwind$?catch$7@?0??SetModule@Connection@@CAXV?$Local@VString@v8@@@v8@@V?$Local@VValue@v8@@@3@AEBV?$PropertyCallbackInfo@X@Nan@@@Z@4HA 000000018006c0e8     njsConnection.obj
 0002:000180fc       $unwind$?SetAction@Connection@@CAXV?$Local@VString@v8@@@v8@@V?$Local@VValue@v8@@@3@AEBV?$PropertyCallbackInfo@X@Nan@@@Z 000000018006c0fc     njsConnection.obj
 0002:00018118       $stateUnwindMap$?SetAction@Connection@@CAXV?$Local@VString@v8@@@v8@@V?$Local@VValue@v8@@@3@AEBV?$PropertyCallbackInfo@X@Nan@@@Z 000000018006c118     njsConnection.obj
 0002:00018150       $tryMap$?SetAction@Connection@@CAXV?$Local@VString@v8@@@v8@@V?$Local@VValue@v8@@@3@AEBV?$PropertyCallbackInfo@X@Nan@@@Z 000000018006c150     njsConnection.obj
 0002:00018164       $handlerMap$0$?SetAction@Connection@@CAXV?$Local@VString@v8@@@v8@@V?$Local@VValue@v8@@@3@AEBV?$PropertyCallbackInfo@X@Nan@@@Z 000000018006c164     njsConnection.obj
 0002:00018180       $ip2state$?SetAction@Connection@@CAXV?$Local@VString@v8@@@v8@@V?$Local@VValue@v8@@@3@AEBV?$PropertyCallbackInfo@X@Nan@@@Z 000000018006c180     njsConnection.obj
 0002:000181f8       $unwind$?catch$7@?0??SetAction@Connection@@CAXV?$Local@VString@v8@@@v8@@V?$Local@VValue@v8@@@3@AEBV?$PropertyCallbackInfo@X@Nan@@@Z@4HA 000000018006c1f8     njsConnection.obj
 0002:0001820c       $unwind$?GetOracleServerVersion@Connection@@CAXV?$Local@VString@v8@@@v8@@AEBV?$PropertyCallbackInfo@VValue@v8@@@Nan@@@Z 000000018006c20c     njsConnection.obj
 0002:0001822c       $stateUnwindMap$?GetOracleServerVersion@Connection@@CAXV?$Local@VString@v8@@@v8@@AEBV?$PropertyCallbackInfo@VValue@v8@@@Nan@@@Z 000000018006c22c     njsConnection.obj
 0002:00018254       $tryMap$?GetOracleServerVersion@Connection@@CAXV?$Local@VString@v8@@@v8@@AEBV?$PropertyCallbackInfo@VValue@v8@@@Nan@@@Z 000000018006c254     njsConnection.obj
 0002:00018268       $handlerMap$0$?GetOracleServerVersion@Connection@@CAXV?$Local@VString@v8@@@v8@@AEBV?$PropertyCallbackInfo@VValue@v8@@@Nan@@@Z 000000018006c268     njsConnection.obj
 0002:00018280       $ip2state$?GetOracleServerVersion@Connection@@CAXV?$Local@VString@v8@@@v8@@AEBV?$PropertyCallbackInfo@VValue@v8@@@Nan@@@Z 000000018006c280     njsConnection.obj
 0002:000182e0       $unwind$?catch$4@?0??GetOracleServerVersion@Connection@@CAXV?$Local@VString@v8@@@v8@@AEBV?$PropertyCallbackInfo@VValue@v8@@@Nan@@@Z@4HA 000000018006c2e0     njsConnection.obj
 0002:000182f4       $unwind$?SetOracleServerVersion@Connection@@CAXV?$Local@VString@v8@@@v8@@V?$Local@VValue@v8@@@3@AEBV?$PropertyCallbackInfo@X@Nan@@@Z 000000018006c2f4     njsConnection.obj
 0002:00018308       $ip2state$?SetOracleServerVersion@Connection@@CAXV?$Local@VString@v8@@@v8@@V?$Local@VValue@v8@@@3@AEBV?$PropertyCallbackInfo@X@Nan@@@Z 000000018006c308     njsConnection.obj
 0002:00018320       $unwind$?Execute@Connection@@CAXAEBV?$FunctionCallbackInfo@VValue@v8@@@Nan@@@Z 000000018006c320     njsConnection.obj
 0002:00018348       $stateUnwindMap$?Execute@Connection@@CAXAEBV?$FunctionCallbackInfo@VValue@v8@@@Nan@@@Z 000000018006c348     njsConnection.obj
 0002:00018370       $ip2state$?Execute@Connection@@CAXAEBV?$FunctionCallbackInfo@VValue@v8@@@Nan@@@Z 000000018006c370     njsConnection.obj
 0002:000183d8       $unwind$?ProcessBinds@Connection@@CAXAEBV?$FunctionCallbackInfo@VValue@v8@@@Nan@@IPEAUeBaton@@@Z 000000018006c3d8     njsConnection.obj
 0002:000183f8       $stateUnwindMap$?ProcessBinds@Connection@@CAXAEBV?$FunctionCallbackInfo@VValue@v8@@@Nan@@IPEAUeBaton@@@Z 000000018006c3f8     njsConnection.obj
 0002:00018410       $ip2state$?ProcessBinds@Connection@@CAXAEBV?$FunctionCallbackInfo@VValue@v8@@@Nan@@IPEAUeBaton@@@Z 000000018006c410     njsConnection.obj
 0002:00018448       $unwind$?ProcessOptions@Connection@@CAXAEBV?$FunctionCallbackInfo@VValue@v8@@@Nan@@IPEAUeBaton@@@Z 000000018006c448     njsConnection.obj
 0002:00018474       $stateUnwindMap$?ProcessOptions@Connection@@CAXAEBV?$FunctionCallbackInfo@VValue@v8@@@Nan@@IPEAUeBaton@@@Z 000000018006c474     njsConnection.obj
 0002:000184a0       $ip2state$?ProcessOptions@Connection@@CAXAEBV?$FunctionCallbackInfo@VValue@v8@@@Nan@@IPEAUeBaton@@@Z 000000018006c4a0     njsConnection.obj
 0002:000184f8       $unwind$?GetBinds@Connection@@CAXV?$Local@VObject@v8@@@v8@@PEAUeBaton@@@Z 000000018006c4f8     njsConnection.obj
 0002:00018524       $stateUnwindMap$?GetBinds@Connection@@CAXV?$Local@VObject@v8@@@v8@@PEAUeBaton@@@Z 000000018006c524     njsConnection.obj
 0002:00018550       $ip2state$?GetBinds@Connection@@CAXV?$Local@VObject@v8@@@v8@@PEAUeBaton@@@Z 000000018006c550     njsConnection.obj
 0002:000185c8       $unwind$?GetBindUnit@Connection@@CAXV?$Local@VValue@v8@@@v8@@PEAUBind@@_NPEAUeBaton@@@Z 000000018006c5c8     njsConnection.obj
 0002:000185f0       $stateUnwindMap$?GetBindUnit@Connection@@CAXV?$Local@VValue@v8@@@v8@@PEAUBind@@_NPEAUeBaton@@@Z 000000018006c5f0     njsConnection.obj
 0002:00018608       $ip2state$?GetBindUnit@Connection@@CAXV?$Local@VValue@v8@@@v8@@PEAUBind@@_NPEAUeBaton@@@Z 000000018006c608     njsConnection.obj
 0002:00018640       $unwind$?GetOutBindParams@Connection@@CAXGPEAUBind@@PEAUeBaton@@@Z 000000018006c640     njsConnection.obj
 0002:0001865c       $stateUnwindMap$?GetOutBindParams@Connection@@CAXGPEAUBind@@PEAUeBaton@@@Z 000000018006c65c     njsConnection.obj
 0002:00018668       $ip2state$?GetOutBindParams@Connection@@CAXGPEAUBind@@PEAUeBaton@@@Z 000000018006c668     njsConnection.obj
 0002:00018688       $unwind$?GetInBindParams@Connection@@CAXV?$Local@VValue@v8@@@v8@@PEAUBind@@PEAUeBaton@@@Z 000000018006c688     njsConnection.obj
 0002:000186a0       $stateUnwindMap$?GetInBindParams@Connection@@CAXV?$Local@VValue@v8@@@v8@@PEAUBind@@PEAUeBaton@@@Z 000000018006c6a0     njsConnection.obj
 0002:000186a0       $stateUnwindMap$?GetOutBinds@Connection@@CA?AV?$Local@VValue@v8@@@v8@@PEAUeBaton@@@Z 000000018006c6a0     njsConnection.obj
 0002:000186a8       $ip2state$?GetInBindParams@Connection@@CAXV?$Local@VValue@v8@@@v8@@PEAUBind@@PEAUeBaton@@@Z 000000018006c6a8     njsConnection.obj
 0002:000186c0       $unwind$?GetInBindParamsScalar@Connection@@CAXV?$Local@VValue@v8@@@v8@@PEAUBind@@PEAUeBaton@@@Z 000000018006c6c0     njsConnection.obj
 0002:000186e8       $stateUnwindMap$?GetInBindParamsScalar@Connection@@CAXV?$Local@VValue@v8@@@v8@@PEAUBind@@PEAUeBaton@@@Z 000000018006c6e8     njsConnection.obj
 0002:00018710       $ip2state$?GetInBindParamsScalar@Connection@@CAXV?$Local@VValue@v8@@@v8@@PEAUBind@@PEAUeBaton@@@Z 000000018006c710     njsConnection.obj
 0002:00018770       $unwind$?GetInBindParamsArray@Connection@@CAXV?$Local@VArray@v8@@@v8@@PEAUBind@@PEAUeBaton@@@Z 000000018006c770     njsConnection.obj
 0002:00018798       $stateUnwindMap$?GetInBindParamsArray@Connection@@CAXV?$Local@VArray@v8@@@v8@@PEAUBind@@PEAUeBaton@@@Z 000000018006c798     njsConnection.obj
 0002:000187a0       $ip2state$?GetInBindParamsArray@Connection@@CAXV?$Local@VArray@v8@@@v8@@PEAUBind@@PEAUeBaton@@@Z 000000018006c7a0     njsConnection.obj
 0002:000187b8       $unwind$?AllocateBindArray@Connection@@CA_NGPEAUBind@@PEAUeBaton@@PEA_K@Z 000000018006c7b8     njsConnection.obj
 0002:000187d0       $unwind$?Async_Execute@Connection@@CAXPEAUuv_work_s@@@Z 000000018006c7d0     njsConnection.obj
 0002:000187f8       $stateUnwindMap$?Async_Execute@Connection@@CAXPEAUuv_work_s@@@Z 000000018006c7f8     njsConnection.obj
 0002:00018818       $tryMap$?Async_Execute@Connection@@CAXPEAUuv_work_s@@@Z 000000018006c818     njsConnection.obj
 0002:0001882c       $handlerMap$0$?Async_Execute@Connection@@CAXPEAUuv_work_s@@@Z 000000018006c82c     njsConnection.obj
 0002:00018840       $ip2state$?Async_Execute@Connection@@CAXPEAUuv_work_s@@@Z 000000018006c840     njsConnection.obj
 0002:00018940       $unwind$?catch$12@?0??Async_Execute@Connection@@CAXPEAUuv_work_s@@@Z@4HA 000000018006c940     njsConnection.obj
 0002:00018954       $unwind$?LOB2StringOrBuffer@Connection@@CAXPEAUeBaton@@I_K1@Z 000000018006c954     njsConnection.obj
 0002:00018974       $chain$0$?LOB2StringOrBuffer@Connection@@CAXPEAUeBaton@@I_K1@Z 000000018006c974     njsConnection.obj
 0002:00018988       $chain$1$?LOB2StringOrBuffer@Connection@@CAXPEAUeBaton@@I_K1@Z 000000018006c988     njsConnection.obj
 0002:00018998       $chain$2$?LOB2StringOrBuffer@Connection@@CAXPEAUeBaton@@I_K1@Z 000000018006c998     njsConnection.obj
 0002:000189ac       $unwind$?StringOrBuffer2LOB@Connection@@CAXPEAUeBaton@@IE@Z 000000018006c9ac     njsConnection.obj
 0002:000189c4       $unwind$?Descr2StringOrBuffer@Connection@@CAXPEAUeBaton@@@Z 000000018006c9c4     njsConnection.obj
 0002:000189cc       $chain$1$?Descr2StringOrBuffer@Connection@@CAXPEAUeBaton@@@Z 000000018006c9cc     njsConnection.obj
 0002:000189e4       $chain$6$?Descr2StringOrBuffer@Connection@@CAXPEAUeBaton@@@Z 000000018006c9e4     njsConnection.obj
 0002:00018a08       $chain$7$?Descr2StringOrBuffer@Connection@@CAXPEAUeBaton@@@Z 000000018006ca08     njsConnection.obj
 0002:00018a18       $chain$8$?Descr2StringOrBuffer@Connection@@CAXPEAUeBaton@@@Z 000000018006ca18     njsConnection.obj
 0002:00018a28       $chain$9$?Descr2StringOrBuffer@Connection@@CAXPEAUeBaton@@@Z 000000018006ca28     njsConnection.obj
 0002:00018a54       $unwind$?PrepareAndBind@Connection@@CAXPEAUeBaton@@@Z 000000018006ca54     njsConnection.obj
 0002:00018a80       $stateUnwindMap$?PrepareAndBind@Connection@@CAXPEAUeBaton@@@Z 000000018006ca80     njsConnection.obj
 0002:00018a88       $ip2state$?PrepareAndBind@Connection@@CAXPEAUeBaton@@@Z 000000018006ca88     njsConnection.obj
 0002:00018aa0       $unwind$?CopyMetaData@Connection@@SAXPEAUMetaInfo@@PEAUeBaton@@PEBUMetaData@dpi@@I@Z 000000018006caa0     njsConnection.obj
 0002:00018ac4       $unwind$?GetTargetType@Connection@@CAGPEAUeBaton@@AEAV?$basic_string@DU?$char_traits@D@std@@V?$allocator@D@2@@std@@G@Z 000000018006cac4     njsConnection.obj
 0002:00018adc       $unwind$?DoDefines@Connection@@SAXPEAUeBaton@@@Z 000000018006cadc     njsConnection.obj
 0002:00018afc       $chain$1$?DoDefines@Connection@@SAXPEAUeBaton@@@Z 000000018006cafc     njsConnection.obj
 0002:00018b14       $chain$2$?DoDefines@Connection@@SAXPEAUeBaton@@@Z 000000018006cb14     njsConnection.obj
 0002:00018b24       $chain$3$?DoDefines@Connection@@SAXPEAUeBaton@@@Z 000000018006cb24     njsConnection.obj
 0002:00018b3c       $unwind$?DoFetch@Connection@@SAXPEAUeBaton@@@Z 000000018006cb3c     njsConnection.obj
 0002:00018b60       $unwind$?Descr2protoILob@Connection@@CAXPEAUeBaton@@II@Z 000000018006cb60     njsConnection.obj
 0002:00018b80       $stateUnwindMap$?Descr2protoILob@Connection@@CAXPEAUeBaton@@II@Z 000000018006cb80     njsConnection.obj
 0002:00018b98       $ip2state$?Descr2protoILob@Connection@@CAXPEAUeBaton@@II@Z 000000018006cb98     njsConnection.obj
 0002:00018bd0       $unwind$?Async_AfterExecute@Connection@@CAXPEAUuv_work_s@@@Z 000000018006cbd0     njsConnection.obj
 0002:00018bf0       $stateUnwindMap$?Async_AfterExecute@Connection@@CAXPEAUuv_work_s@@@Z 000000018006cbf0     njsConnection.obj
 0002:00018ca0       $ip2state$?Async_AfterExecute@Connection@@CAXPEAUuv_work_s@@@Z 000000018006cca0     njsConnection.obj
 0002:00018df8       $unwind$?GetMetaData@Connection@@SA?AV?$Local@VValue@v8@@@v8@@PEBUMetaInfo@@I_N@Z 000000018006cdf8     njsConnection.obj
 0002:00018e20       $stateUnwindMap$?GetMetaData@Connection@@SA?AV?$Local@VValue@v8@@@v8@@PEBUMetaInfo@@I_N@Z 000000018006ce20     njsConnection.obj
 0002:00018e70       $ip2state$?GetMetaData@Connection@@SA?AV?$Local@VValue@v8@@@v8@@PEBUMetaInfo@@I_N@Z 000000018006ce70     njsConnection.obj
 0002:00018f20       $unwind$?GetRows@Connection@@SA?AV?$Local@VValue@v8@@@v8@@PEAUeBaton@@@Z 000000018006cf20     njsConnection.obj
 0002:00018f48       $stateUnwindMap$?GetRows@Connection@@SA?AV?$Local@VValue@v8@@@v8@@PEAUeBaton@@@Z 000000018006cf48     njsConnection.obj
 0002:00018f90       $ip2state$?GetRows@Connection@@SA?AV?$Local@VValue@v8@@@v8@@PEAUeBaton@@@Z 000000018006cf90     njsConnection.obj
 0002:00019008       $unwind$?ToV8Value@Connection@@CA?AV?$Local@VValue@v8@@@v8@@PEAUeBaton@@_NII@Z 000000018006d008     njsConnection.obj
 0002:00019028       $stateUnwindMap$?ToV8Value@Connection@@CA?AV?$Local@VValue@v8@@@v8@@PEAUeBaton@@_NII@Z 000000018006d028     njsConnection.obj
 0002:00019038       $ip2state$?ToV8Value@Connection@@CA?AV?$Local@VValue@v8@@@v8@@PEAUeBaton@@_NII@Z 000000018006d038     njsConnection.obj
 0002:00019060       $unwind$?Bind2V8Value@Connection@@CA?AV?$Local@VValue@v8@@@v8@@PEAUeBaton@@PEAUBind@@I@Z 000000018006d060     njsConnection.obj
 0002:00019080       $stateUnwindMap$?Bind2V8Value@Connection@@CA?AV?$Local@VValue@v8@@@v8@@PEAUeBaton@@PEAUBind@@I@Z 000000018006d080     njsConnection.obj
 0002:00019090       $ip2state$?Bind2V8Value@Connection@@CA?AV?$Local@VValue@v8@@@v8@@PEAUeBaton@@PEAUBind@@I@Z 000000018006d090     njsConnection.obj
 0002:000190b8       $unwind$?Define2V8Value@Connection@@CA?AV?$Local@VValue@v8@@@v8@@PEAUeBaton@@IIPEAUDefine@@PEAUExtDefine@@@Z 000000018006d0b8     njsConnection.obj
 0002:000190dc       $stateUnwindMap$?Define2V8Value@Connection@@CA?AV?$Local@VValue@v8@@@v8@@PEAUeBaton@@IIPEAUDefine@@PEAUExtDefine@@@Z 000000018006d0dc     njsConnection.obj
 0002:000190f0       $ip2state$?Define2V8Value@Connection@@CA?AV?$Local@VValue@v8@@@v8@@PEAUeBaton@@IIPEAUDefine@@PEAUExtDefine@@@Z 000000018006d0f0     njsConnection.obj
 0002:00019120       $unwind$?RefCursor2V8Value@Connection@@CA?AV?$Local@VValue@v8@@@v8@@PEAUeBaton@@PEAUBind@@PEAUExtBind@@@Z 000000018006d120     njsConnection.obj
 0002:00019144       $stateUnwindMap$?RefCursor2V8Value@Connection@@CA?AV?$Local@VValue@v8@@@v8@@PEAUeBaton@@PEAUBind@@PEAUExtBind@@@Z 000000018006d144     njsConnection.obj
 0002:00019160       $ip2state$?RefCursor2V8Value@Connection@@CA?AV?$Local@VValue@v8@@@v8@@PEAUeBaton@@PEAUBind@@PEAUExtBind@@@Z 000000018006d160     njsConnection.obj
 0002:00019198       $unwind$?ToV8ArrayValue@Connection@@CA?AV?$Local@VValue@v8@@@v8@@PEAUeBaton@@PEAUBind@@K@Z 000000018006d198     njsConnection.obj
 0002:000191c0       $stateUnwindMap$?ToV8ArrayValue@Connection@@CA?AV?$Local@VValue@v8@@@v8@@PEAUeBaton@@PEAUBind@@K@Z 000000018006d1c0     njsConnection.obj
 0002:00019210       $ip2state$?ToV8ArrayValue@Connection@@CA?AV?$Local@VValue@v8@@@v8@@PEAUeBaton@@PEAUBind@@K@Z 000000018006d210     njsConnection.obj
 0002:000192b0       $unwind$?GetOutBinds@Connection@@CA?AV?$Local@VValue@v8@@@v8@@PEAUeBaton@@@Z 000000018006d2b0     njsConnection.obj
 0002:000192c8       $ip2state$?GetOutBinds@Connection@@CA?AV?$Local@VValue@v8@@@v8@@PEAUeBaton@@@Z 000000018006d2c8     njsConnection.obj
 0002:000192e0       $unwind$?GetOutBindArray@Connection@@CA?AV?$Local@VValue@v8@@@v8@@PEAUeBaton@@@Z 000000018006d2e0     njsConnection.obj
 0002:00019300       $stateUnwindMap$?GetOutBindArray@Connection@@CA?AV?$Local@VValue@v8@@@v8@@PEAUeBaton@@@Z 000000018006d300     njsConnection.obj
 0002:00019318       $ip2state$?GetOutBindArray@Connection@@CA?AV?$Local@VValue@v8@@@v8@@PEAUeBaton@@@Z 000000018006d318     njsConnection.obj
 0002:00019350       $unwind$?GetOutBindObject@Connection@@CA?AV?$Local@VValue@v8@@@v8@@PEAUeBaton@@@Z 000000018006d350     njsConnection.obj
 0002:00019370       $stateUnwindMap$?GetOutBindObject@Connection@@CA?AV?$Local@VValue@v8@@@v8@@PEAUeBaton@@@Z 000000018006d370     njsConnection.obj
 0002:00019388       $ip2state$?GetOutBindObject@Connection@@CA?AV?$Local@VValue@v8@@@v8@@PEAUeBaton@@@Z 000000018006d388     njsConnection.obj
 0002:000193c0       $unwind$?Release@Connection@@CAXAEBV?$FunctionCallbackInfo@VValue@v8@@@Nan@@@Z 000000018006d3c0     njsConnection.obj
 0002:000193e8       $stateUnwindMap$?Release@Connection@@CAXAEBV?$FunctionCallbackInfo@VValue@v8@@@Nan@@@Z 000000018006d3e8     njsConnection.obj
 0002:00019410       $ip2state$?Release@Connection@@CAXAEBV?$FunctionCallbackInfo@VValue@v8@@@Nan@@@Z 000000018006d410     njsConnection.obj
 0002:00019478       $unwind$?Async_Release@Connection@@CAXPEAUuv_work_s@@@Z 000000018006d478     njsConnection.obj
 0002:00019498       $stateUnwindMap$?Async_Release@Connection@@CAXPEAUuv_work_s@@@Z 000000018006d498     njsConnection.obj
 0002:000194b0       $tryMap$?Async_Release@Connection@@CAXPEAUuv_work_s@@@Z 000000018006d4b0     njsConnection.obj
 0002:000194c4       $handlerMap$0$?Async_Release@Connection@@CAXPEAUuv_work_s@@@Z 000000018006d4c4     njsConnection.obj
 0002:000194e0       $ip2state$?Async_Release@Connection@@CAXPEAUuv_work_s@@@Z 000000018006d4e0     njsConnection.obj
 0002:00019520       $unwind$?catch$2@?0??Async_Release@Connection@@CAXPEAUuv_work_s@@@Z@4HA 000000018006d520     njsConnection.obj
 0002:00019534       $unwind$?Async_AfterRelease@Connection@@CAXPEAUuv_work_s@@@Z 000000018006d534     njsConnection.obj
 0002:00019558       $stateUnwindMap$?Async_AfterRelease@Connection@@CAXPEAUuv_work_s@@@Z 000000018006d558     njsConnection.obj
 0002:00019568       $ip2state$?Async_AfterRelease@Connection@@CAXPEAUuv_work_s@@@Z 000000018006d568     njsConnection.obj
 0002:00019590       $unwind$?Commit@Connection@@CAXAEBV?$FunctionCallbackInfo@VValue@v8@@@Nan@@@Z 000000018006d590     njsConnection.obj
 0002:000195b4       $stateUnwindMap$?Rollback@Connection@@CAXAEBV?$FunctionCallbackInfo@VValue@v8@@@Nan@@@Z 000000018006d5b4     njsConnection.obj
 0002:000195b4       $stateUnwindMap$?Commit@Connection@@CAXAEBV?$FunctionCallbackInfo@VValue@v8@@@Nan@@@Z 000000018006d5b4     njsConnection.obj
 0002:000195b4       $stateUnwindMap$?Break@Connection@@CAXAEBV?$FunctionCallbackInfo@VValue@v8@@@Nan@@@Z 000000018006d5b4     njsConnection.obj
 0002:000195e0       $ip2state$?Commit@Connection@@CAXAEBV?$FunctionCallbackInfo@VValue@v8@@@Nan@@@Z 000000018006d5e0     njsConnection.obj
 0002:00019638       $unwind$?Async_Commit@Connection@@CAXPEAUuv_work_s@@@Z 000000018006d638     njsConnection.obj
 0002:0001964c       $tryMap$?Async_Commit@Connection@@CAXPEAUuv_work_s@@@Z 000000018006d64c     njsConnection.obj
 0002:00019660       $handlerMap$0$?Async_Commit@Connection@@CAXPEAUuv_work_s@@@Z 000000018006d660     njsConnection.obj
 0002:00019678       $ip2state$?Async_Commit@Connection@@CAXPEAUuv_work_s@@@Z 000000018006d678     njsConnection.obj
 0002:000196a8       $unwind$?catch$1@?0??Async_Commit@Connection@@CAXPEAUuv_work_s@@@Z@4HA 000000018006d6a8     njsConnection.obj
 0002:000196bc       $unwind$?Async_AfterBreak@Connection@@CAXPEAUuv_work_s@@@Z 000000018006d6bc     njsConnection.obj
 0002:000196bc       $unwind$?Async_AfterRollback@Connection@@CAXPEAUuv_work_s@@@Z 000000018006d6bc     njsConnection.obj
 0002:000196bc       $unwind$?Async_AfterCommit@Connection@@CAXPEAUuv_work_s@@@Z 000000018006d6bc     njsConnection.obj
 0002:000196d8       $ip2state$?Async_AfterCommit@Connection@@CAXPEAUuv_work_s@@@Z 000000018006d6d8     njsConnection.obj
 0002:000196d8       $ip2state$?Async_AfterRollback@Connection@@CAXPEAUuv_work_s@@@Z 000000018006d6d8     njsConnection.obj
 0002:000196d8       $ip2state$?Async_AfterBreak@Connection@@CAXPEAUuv_work_s@@@Z 000000018006d6d8     njsConnection.obj
 0002:00019700       $unwind$?Rollback@Connection@@CAXAEBV?$FunctionCallbackInfo@VValue@v8@@@Nan@@@Z 000000018006d700     njsConnection.obj
 0002:00019730       $ip2state$?Rollback@Connection@@CAXAEBV?$FunctionCallbackInfo@VValue@v8@@@Nan@@@Z 000000018006d730     njsConnection.obj
 0002:00019788       $unwind$?Async_Rollback@Connection@@CAXPEAUuv_work_s@@@Z 000000018006d788     njsConnection.obj
 0002:0001979c       $tryMap$?Async_Rollback@Connection@@CAXPEAUuv_work_s@@@Z 000000018006d79c     njsConnection.obj
 0002:000197b0       $handlerMap$0$?Async_Rollback@Connection@@CAXPEAUuv_work_s@@@Z 000000018006d7b0     njsConnection.obj
 0002:000197c8       $ip2state$?Async_Rollback@Connection@@CAXPEAUuv_work_s@@@Z 000000018006d7c8     njsConnection.obj
 0002:000197f8       $unwind$?catch$1@?0??Async_Rollback@Connection@@CAXPEAUuv_work_s@@@Z@4HA 000000018006d7f8     njsConnection.obj
 0002:0001980c       $unwind$?Break@Connection@@CAXAEBV?$FunctionCallbackInfo@VValue@v8@@@Nan@@@Z 000000018006d80c     njsConnection.obj
 0002:00019830       $ip2state$?Break@Connection@@CAXAEBV?$FunctionCallbackInfo@VValue@v8@@@Nan@@@Z 000000018006d830     njsConnection.obj
 0002:00019888       $unwind$?Async_Break@Connection@@CAXPEAUuv_work_s@@@Z 000000018006d888     njsConnection.obj
 0002:0001989c       $tryMap$?Async_Break@Connection@@CAXPEAUuv_work_s@@@Z 000000018006d89c     njsConnection.obj
 0002:000198b0       $handlerMap$0$?Async_Break@Connection@@CAXPEAUuv_work_s@@@Z 000000018006d8b0     njsConnection.obj
 0002:000198c8       $ip2state$?Async_Break@Connection@@CAXPEAUuv_work_s@@@Z 000000018006d8c8     njsConnection.obj
 0002:000198f8       $unwind$?catch$1@?0??Async_Break@Connection@@CAXPEAUuv_work_s@@@Z@4HA 000000018006d8f8     njsConnection.obj
 0002:0001990c       $unwind$?CreateLob@Connection@@CAXAEBV?$FunctionCallbackInfo@VValue@v8@@@Nan@@@Z 000000018006d90c     njsConnection.obj
 0002:00019930       $stateUnwindMap$?CreateLob@Connection@@CAXAEBV?$FunctionCallbackInfo@VValue@v8@@@Nan@@@Z 000000018006d930     njsConnection.obj
 0002:00019950       $ip2state$?CreateLob@Connection@@CAXAEBV?$FunctionCallbackInfo@VValue@v8@@@Nan@@@Z 000000018006d950     njsConnection.obj
 0002:000199a8       $unwind$?Async_CreateLob@Connection@@CAXPEAUuv_work_s@@@Z 000000018006d9a8     njsConnection.obj
 0002:000199c8       $tryMap$?Async_CreateLob@Connection@@CAXPEAUuv_work_s@@@Z 000000018006d9c8     njsConnection.obj
 0002:000199dc       $handlerMap$0$?Async_CreateLob@Connection@@CAXPEAUuv_work_s@@@Z 000000018006d9dc     njsConnection.obj
 0002:000199f0       $ip2state$?Async_CreateLob@Connection@@CAXPEAUuv_work_s@@@Z 000000018006d9f0     njsConnection.obj
 0002:00019a20       $unwind$?catch$1@?0??Async_CreateLob@Connection@@CAXPEAUuv_work_s@@@Z@4HA 000000018006da20     njsConnection.obj
 0002:00019a34       $unwind$?Async_AfterCreateLob@Connection@@CAXPEAUuv_work_s@@@Z 000000018006da34     njsConnection.obj
 0002:00019a4c       $stateUnwindMap$?Async_AfterCreateLob@Connection@@CAXPEAUuv_work_s@@@Z 000000018006da4c     njsConnection.obj
 0002:00019a68       $ip2state$?Async_AfterCreateLob@Connection@@CAXPEAUuv_work_s@@@Z 000000018006da68     njsConnection.obj
 0002:00019aa0       $unwind$?UpdateDateValue@Connection@@CAXPEAUeBaton@@PEAUBind@@I@Z 000000018006daa0     njsConnection.obj
 0002:00019ab8       $chain$1$?UpdateDateValue@Connection@@CAXPEAUeBaton@@PEAUBind@@I@Z 000000018006dab8     njsConnection.obj
 0002:00019ad0       $chain$2$?UpdateDateValue@Connection@@CAXPEAUeBaton@@PEAUBind@@I@Z 000000018006dad0     njsConnection.obj
 0002:00019ae4       $chain$10$?UpdateDateValue@Connection@@CAXPEAUeBaton@@PEAUBind@@I@Z 000000018006dae4     njsConnection.obj
 0002:00019b14       $chain$11$?UpdateDateValue@Connection@@CAXPEAUeBaton@@PEAUBind@@I@Z 000000018006db14     njsConnection.obj
 0002:00019b24       $chain$12$?UpdateDateValue@Connection@@CAXPEAUeBaton@@PEAUBind@@I@Z 000000018006db24     njsConnection.obj
 0002:00019b34       $chain$13$?UpdateDateValue@Connection@@CAXPEAUeBaton@@PEAUBind@@I@Z 000000018006db34     njsConnection.obj
 0002:00019b44       $chain$14$?UpdateDateValue@Connection@@CAXPEAUeBaton@@PEAUBind@@I@Z 000000018006db44     njsConnection.obj
 0002:00019b5c       $chain$15$?UpdateDateValue@Connection@@CAXPEAUeBaton@@PEAUBind@@I@Z 000000018006db5c     njsConnection.obj
 0002:00019b98       $unwind$?cbDynBufferAllocate@Connection@@CAXPEAX_NII@Z 000000018006db98     njsConnection.obj
 0002:00019bb8       $ip2state$?cbDynBufferAllocate@Connection@@CAXPEAX_NII@Z 000000018006dbb8     njsConnection.obj
 0002:00019be8       $unwind$?cbDynDefine@Connection@@CAHPEAXIPEAPEAXPEAPEAI1PEAPEAG@Z 000000018006dbe8     njsConnection.obj
 0002:00019be8       $unwind$?try_get_function@@YAPEAXW4function_id@?A0x2db55455@@QEBDQEBW4module_id@2@2@Z 000000018006dbe8     libvcruntime:winapi_downlevel.obj
 0002:00019be8       $unwind$?try_get_function@@YAPEAXW4function_id@?A0x391cf84c@@QEBDQEBW4module_id@2@2@Z 000000018006dbe8     libucrt:winapi_thunks.obj
 0002:00019be8       $unwind$?IsInExceptionSpec@@YAEPEAUEHExceptionRecord@@PEBU_s_ESTypeList@@@Z 000000018006dbe8     libvcruntime:frame.obj
 0002:00019be8       $unwind$??R<lambda_f03950bc5685219e0bcd2087efbe011e>@@QEBAHXZ 000000018006dbe8     libucrt:onexit.obj
 0002:00019c04       $unwind$?NewLob@Connection@@CA?AV?$Local@VValue@v8@@@v8@@PEAUeBaton@@PEAVProtoILob@@_N@Z 000000018006dc04     njsConnection.obj
 0002:00019c28       $stateUnwindMap$?NewLob@Connection@@CA?AV?$Local@VValue@v8@@@v8@@PEAUeBaton@@PEAVProtoILob@@_N@Z 000000018006dc28     njsConnection.obj
 0002:00019c40       $ip2state$?NewLob@Connection@@CA?AV?$Local@VValue@v8@@@v8@@PEAUeBaton@@PEAVProtoILob@@_N@Z 000000018006dc40     njsConnection.obj
 0002:00019c78       $unwind$??$emplace_back@AEBQEAV?$Persistent@VObject@v8@@V?$NonCopyablePersistentTraits@VObject@v8@@@2@@Nan@@@?$vector@PEAV?$Persistent@VObject@v8@@V?$NonCopyablePersistentTraits@VObject@v8@@@2@@Nan@@V?$allocator@PEAV?$Persistent@VObject@v8@@V?$NonCopyablePersistentTraits@VObject@v8@@@2@@Nan@@@std@@@std@@QEAAXAEBQEAV?$Persistent@VObject@v8@@V?$NonCopyablePersistentTraits@VObject@v8@@@2@@Nan@@@Z 000000018006dc78     njsConnection.obj
 0002:00019c78       $unwind$?push_back@?$vector@PEAUBind@@V?$allocator@PEAUBind@@@std@@@std@@QEAAXAEBQEAUBind@@@Z 000000018006dc78     njsConnection.obj
 0002:00019c84       $chain$3$??$emplace_back@AEBQEAV?$Persistent@VObject@v8@@V?$NonCopyablePersistentTraits@VObject@v8@@@2@@Nan@@@?$vector@PEAV?$Persistent@VObject@v8@@V?$NonCopyablePersistentTraits@VObject@v8@@@2@@Nan@@V?$allocator@PEAV?$Persistent@VObject@v8@@V?$NonCopyablePersistentTraits@VObject@v8@@@2@@Nan@@@std@@@std@@QEAAXAEBQEAV?$Persistent@VObject@v8@@V?$NonCopyablePersistentTraits@VObject@v8@@@2@@Nan@@@Z 000000018006dc84     njsConnection.obj
 0002:00019ca4       $chain$5$??$emplace_back@AEBQEAV?$Persistent@VObject@v8@@V?$NonCopyablePersistentTraits@VObject@v8@@@2@@Nan@@@?$vector@PEAV?$Persistent@VObject@v8@@V?$NonCopyablePersistentTraits@VObject@v8@@@2@@Nan@@V?$allocator@PEAV?$Persistent@VObject@v8@@V?$NonCopyablePersistentTraits@VObject@v8@@@2@@Nan@@@std@@@std@@QEAAXAEBQEAV?$Persistent@VObject@v8@@V?$NonCopyablePersistentTraits@VObject@v8@@@2@@Nan@@@Z 000000018006dca4     njsConnection.obj
 0002:00019cb8       $chain$6$??$emplace_back@AEBQEAV?$Persistent@VObject@v8@@V?$NonCopyablePersistentTraits@VObject@v8@@@2@@Nan@@@?$vector@PEAV?$Persistent@VObject@v8@@V?$NonCopyablePersistentTraits@VObject@v8@@@2@@Nan@@V?$allocator@PEAV?$Persistent@VObject@v8@@V?$NonCopyablePersistentTraits@VObject@v8@@@2@@Nan@@@std@@@std@@QEAAXAEBQEAV?$Persistent@VObject@v8@@V?$NonCopyablePersistentTraits@VObject@v8@@@2@@Nan@@@Z 000000018006dcb8     njsConnection.obj
 0002:00019cd8       $unwind$?resize@?$vector@PEAUExtDefine@@V?$allocator@PEAUExtDefine@@@std@@@std@@QEAAX_KAEBQEAUExtDefine@@@Z 000000018006dcd8     njsConnection.obj
 0002:00019ce8       $chain$1$?resize@?$vector@PEAUExtDefine@@V?$allocator@PEAUExtDefine@@@std@@@std@@QEAAX_KAEBQEAUExtDefine@@@Z 000000018006dce8     njsConnection.obj
 0002:00019d00       $chain$2$?resize@?$vector@PEAUExtDefine@@V?$allocator@PEAUExtDefine@@@std@@@std@@QEAAX_KAEBQEAUExtDefine@@@Z 000000018006dd00     njsConnection.obj
 0002:00019d10       $unwind$?push_back@?$vector@PEAUExtBind@@V?$allocator@PEAUExtBind@@@std@@@std@@QEAAX$$QEAPEAUExtBind@@@Z 000000018006dd10     njsConnection.obj
 0002:00019d1c       $chain$2$?push_back@?$vector@PEAUExtBind@@V?$allocator@PEAUExtBind@@@std@@@std@@QEAAX$$QEAPEAUExtBind@@@Z 000000018006dd1c     njsConnection.obj
 0002:00019d38       $chain$3$?push_back@?$vector@PEAUExtBind@@V?$allocator@PEAUExtBind@@@std@@@std@@QEAAX$$QEAPEAUExtBind@@@Z 000000018006dd38     njsConnection.obj
 0002:00019d48       $chain$3$?push_back@?$vector@PEAUBind@@V?$allocator@PEAUBind@@@std@@@std@@QEAAXAEBQEAUBind@@@Z 000000018006dd48     njsConnection.obj
 0002:00019d68       $chain$5$?push_back@?$vector@PEAUBind@@V?$allocator@PEAUBind@@@std@@@std@@QEAAXAEBQEAUBind@@@Z 000000018006dd68     njsConnection.obj
 0002:00019d7c       $chain$6$?push_back@?$vector@PEAUBind@@V?$allocator@PEAUBind@@@std@@@std@@QEAAXAEBQEAUBind@@@Z 000000018006dd7c     njsConnection.obj
 0002:00019d9c       $unwind$??$New@VDate@v8@@O@Nan@@YA?AV?$MaybeLocal@VDate@v8@@@v8@@O@Z 000000018006dd9c     njsConnection.obj
 0002:00019db4       $stateUnwindMap$??$New@VDate@v8@@O@Nan@@YA?AV?$MaybeLocal@VDate@v8@@@v8@@O@Z 000000018006ddb4     njsConnection.obj
 0002:00019dc0       $ip2state$??$New@VDate@v8@@O@Nan@@YA?AV?$MaybeLocal@VDate@v8@@@v8@@O@Z 000000018006ddc0     njsConnection.obj
 0002:00019dd8       $unwind$??$_Reallocate_grow_by@V<lambda_f3a66ab6a0570788f31503db83886f49>@@_KPEBD_K@?$basic_string@DU?$char_traits@D@std@@V?$allocator@D@2@@std@@QEAAAEAV01@_KV<lambda_f3a66ab6a0570788f31503db83886f49>@@_KPEBD2@Z 000000018006ddd8     njsConnection.obj
 0002:00019de4       $chain$3$??$_Reallocate_grow_by@V<lambda_f3a66ab6a0570788f31503db83886f49>@@_KPEBD_K@?$basic_string@DU?$char_traits@D@std@@V?$allocator@D@2@@std@@QEAAAEAV01@_KV<lambda_f3a66ab6a0570788f31503db83886f49>@@_KPEBD2@Z 000000018006dde4     njsConnection.obj
 0002:00019e04       $chain$4$??$_Reallocate_grow_by@V<lambda_f3a66ab6a0570788f31503db83886f49>@@_KPEBD_K@?$basic_string@DU?$char_traits@D@std@@V?$allocator@D@2@@std@@QEAAAEAV01@_KV<lambda_f3a66ab6a0570788f31503db83886f49>@@_KPEBD2@Z 000000018006de04     njsConnection.obj
 0002:00019e14       $chain$5$??$_Reallocate_grow_by@V<lambda_f3a66ab6a0570788f31503db83886f49>@@_KPEBD_K@?$basic_string@DU?$char_traits@D@std@@V?$allocator@D@2@@std@@QEAAAEAV01@_KV<lambda_f3a66ab6a0570788f31503db83886f49>@@_KPEBD2@Z 000000018006de14     njsConnection.obj
 0002:00019e34       $unwind$??0rsBaton@@QEAA@AEAIV?$Local@VFunction@v8@@@v8@@V?$Local@VObject@v8@@@2@2@Z 000000018006de34     njsResultSet.obj
 0002:00019e50       $stateUnwindMap$??0rsBaton@@QEAA@AEAIV?$Local@VFunction@v8@@@v8@@V?$Local@VObject@v8@@@2@2@Z 000000018006de50     njsResultSet.obj
 0002:00019e68       $ip2state$??0rsBaton@@QEAA@AEAIV?$Local@VFunction@v8@@@v8@@V?$Local@VObject@v8@@@2@2@Z 000000018006de68     njsResultSet.obj
 0002:00019e98       $unwind$??_GResultSet@@UEAAPEAXI@Z 000000018006de98     njsResultSet.obj
 0002:00019eb0       $ip2state$??_GResultSet@@UEAAPEAXI@Z 000000018006deb0     njsResultSet.obj
 0002:00019ec8       $unwind$??__F?resultSetTemplate_s@ResultSet@@2V?$Persistent@VFunctionTemplate@v8@@V?$NonCopyablePersistentTraits@VFunctionTemplate@v8@@@2@@Nan@@A@@YAXXZ 000000018006dec8     njsResultSet.obj
 0002:00019ed8       $ip2state$??__F?resultSetTemplate_s@ResultSet@@2V?$Persistent@VFunctionTemplate@v8@@V?$NonCopyablePersistentTraits@VFunctionTemplate@v8@@@2@@Nan@@A@@YAXXZ 000000018006ded8     njsResultSet.obj
 0002:00019ee0       $unwind$?setResultSet@ResultSet@@QEAAXPEAVStmt@dpi@@PEAUeBaton@@IPEBUMetaInfo@@@Z 000000018006dee0     njsResultSet.obj
 0002:00019f04       $stateUnwindMap$?setResultSet@ResultSet@@QEAAXPEAVStmt@dpi@@PEAUeBaton@@IPEBUMetaInfo@@@Z 000000018006df04     njsResultSet.obj
 0002:00019f18       $ip2state$?setResultSet@ResultSet@@QEAAXPEAVStmt@dpi@@PEAUeBaton@@IPEBUMetaInfo@@@Z 000000018006df18     njsResultSet.obj
 0002:00019f40       $unwind$?Init@ResultSet@@SAXV?$Local@VObject@v8@@@v8@@@Z 000000018006df40     njsResultSet.obj
 0002:00019f58       $ip2state$?Init@ResultSet@@SAXV?$Local@VObject@v8@@@v8@@@Z 000000018006df58     njsResultSet.obj
 0002:00019f80       $unwind$?GetMetaData@ResultSet@@CAXV?$Local@VString@v8@@@v8@@AEBV?$PropertyCallbackInfo@VValue@v8@@@Nan@@@Z 000000018006df80     njsResultSet.obj
 0002:00019f9c       $stateUnwindMap$?GetMetaData@ResultSet@@CAXV?$Local@VString@v8@@@v8@@AEBV?$PropertyCallbackInfo@VValue@v8@@@Nan@@@Z 000000018006df9c     njsResultSet.obj
 0002:00019fb0       $ip2state$?GetMetaData@ResultSet@@CAXV?$Local@VString@v8@@@v8@@AEBV?$PropertyCallbackInfo@VValue@v8@@@Nan@@@Z 000000018006dfb0     njsResultSet.obj
 0002:00019fd8       $unwind$?SetMetaData@ResultSet@@CAXV?$Local@VString@v8@@@v8@@V?$Local@VValue@v8@@@3@AEBV?$PropertyCallbackInfo@X@Nan@@@Z 000000018006dfd8     njsResultSet.obj
 0002:00019ff0       $stateUnwindMap$?SetMetaData@ResultSet@@CAXV?$Local@VString@v8@@@v8@@V?$Local@VValue@v8@@@3@AEBV?$PropertyCallbackInfo@X@Nan@@@Z 000000018006dff0     njsResultSet.obj
 0002:00019ff0       $stateUnwindMap$?Release@ILob@@CAXAEBV?$FunctionCallbackInfo@VValue@v8@@@Nan@@@Z 000000018006dff0     njsIntLob.obj
 0002:0001a000       $ip2state$?SetMetaData@ResultSet@@CAXV?$Local@VString@v8@@@v8@@V?$Local@VValue@v8@@@3@AEBV?$PropertyCallbackInfo@X@Nan@@@Z 000000018006e000     njsResultSet.obj
 0002:0001a028       $unwind$?GetRow@ResultSet@@CAXAEBV?$FunctionCallbackInfo@VValue@v8@@@Nan@@@Z 000000018006e028     njsResultSet.obj
 0002:0001a050       $stateUnwindMap$?GetRow@ResultSet@@CAXAEBV?$FunctionCallbackInfo@VValue@v8@@@Nan@@@Z 000000018006e050     njsResultSet.obj
 0002:0001a070       $ip2state$?GetRow@ResultSet@@CAXAEBV?$FunctionCallbackInfo@VValue@v8@@@Nan@@@Z 000000018006e070     njsResultSet.obj
 0002:0001a0b8       $unwind$?GetRows@ResultSet@@CAXAEBV?$FunctionCallbackInfo@VValue@v8@@@Nan@@@Z 000000018006e0b8     njsResultSet.obj
 0002:0001a0e0       $stateUnwindMap$?GetRows@ResultSet@@CAXAEBV?$FunctionCallbackInfo@VValue@v8@@@Nan@@@Z 000000018006e0e0     njsResultSet.obj
 0002:0001a100       $ip2state$?GetRows@ResultSet@@CAXAEBV?$FunctionCallbackInfo@VValue@v8@@@Nan@@@Z 000000018006e100     njsResultSet.obj
 0002:0001a148       $unwind$?GetRowsCommon@ResultSet@@CAXPEAUrsBaton@@@Z 000000018006e148     njsResultSet.obj
 0002:0001a168       $ip2state$?GetRowsCommon@ResultSet@@CAXPEAUrsBaton@@@Z 000000018006e168     njsResultSet.obj
 0002:0001a180       $unwind$??_GrsBaton@@QEAAPEAXI@Z 000000018006e180     njsResultSet.obj
 0002:0001a198       $ip2state$??_GrsBaton@@QEAAPEAXI@Z 000000018006e198     njsResultSet.obj
 0002:0001a1b0       $unwind$?Async_GetRows@ResultSet@@CAXPEAUuv_work_s@@@Z 000000018006e1b0     njsResultSet.obj
 0002:0001a1d4       $tryMap$?Async_GetRows@ResultSet@@CAXPEAUuv_work_s@@@Z 000000018006e1d4     njsResultSet.obj
 0002:0001a1e8       $handlerMap$0$?Async_GetRows@ResultSet@@CAXPEAUuv_work_s@@@Z 000000018006e1e8     njsResultSet.obj
 0002:0001a200       $ip2state$?Async_GetRows@ResultSet@@CAXPEAUuv_work_s@@@Z 000000018006e200     njsResultSet.obj
 0002:0001a250       $unwind$?catch$1@?0??Async_GetRows@ResultSet@@CAXPEAUuv_work_s@@@Z@4HA 000000018006e250     njsResultSet.obj
 0002:0001a264       $unwind$?Async_AfterGetRows@ResultSet@@CAXPEAUuv_work_s@@@Z 000000018006e264     njsResultSet.obj
 0002:0001a280       $stateUnwindMap$?Async_AfterGetRows@ResultSet@@CAXPEAUuv_work_s@@@Z 000000018006e280     njsResultSet.obj
 0002:0001a290       $ip2state$?Async_AfterGetRows@ResultSet@@CAXPEAUuv_work_s@@@Z 000000018006e290     njsResultSet.obj
 0002:0001a2b8       $unwind$?Close@ResultSet@@CAXAEBV?$FunctionCallbackInfo@VValue@v8@@@Nan@@@Z 000000018006e2b8     njsResultSet.obj
 0002:0001a2e0       $stateUnwindMap$?Close@ResultSet@@CAXAEBV?$FunctionCallbackInfo@VValue@v8@@@Nan@@@Z 000000018006e2e0     njsResultSet.obj
 0002:0001a300       $ip2state$?Close@ResultSet@@CAXAEBV?$FunctionCallbackInfo@VValue@v8@@@Nan@@@Z 000000018006e300     njsResultSet.obj
 0002:0001a358       $unwind$?Async_Close@ResultSet@@CAXPEAUuv_work_s@@@Z 000000018006e358     njsResultSet.obj
 0002:0001a36c       $tryMap$?Async_Close@ResultSet@@CAXPEAUuv_work_s@@@Z 000000018006e36c     njsResultSet.obj
 0002:0001a380       $handlerMap$0$?Async_Close@ResultSet@@CAXPEAUuv_work_s@@@Z 000000018006e380     njsResultSet.obj
 0002:0001a398       $ip2state$?Async_Close@ResultSet@@CAXPEAUuv_work_s@@@Z 000000018006e398     njsResultSet.obj
 0002:0001a3c8       $unwind$?catch$1@?0??Async_Close@ResultSet@@CAXPEAUuv_work_s@@@Z@4HA 000000018006e3c8     njsResultSet.obj
 0002:0001a3e0       $unwind$?Async_AfterClose@ResultSet@@CAXPEAUuv_work_s@@@Z 000000018006e3e0     njsResultSet.obj
 0002:0001a3f8       $ip2state$?Async_AfterClose@ResultSet@@CAXPEAUuv_work_s@@@Z 000000018006e3f8     njsResultSet.obj
 0002:0001a420       $unwind$?clearFetchBuffer@ResultSet@@AEAAXI@Z 000000018006e420     njsResultSet.obj
 0002:0001a430       $chain$3$?clearFetchBuffer@ResultSet@@AEAAXI@Z 000000018006e430     njsResultSet.obj
 0002:0001a450       $chain$4$?clearFetchBuffer@ResultSet@@AEAAXI@Z 000000018006e450     njsResultSet.obj
 0002:0001a460       $chain$5$?clearFetchBuffer@ResultSet@@AEAAXI@Z 000000018006e460     njsResultSet.obj
 0002:0001a480       $unwind$?getErrorMsg@NJSMessages@@SA?AV?$basic_string@DU?$char_traits@D@std@@V?$allocator@D@2@@std@@W4NJSErrorType@@ZZ 000000018006e480     njsMessages.obj
 0002:0001a49c       $stateUnwindMap$?getErrorMsg@NJSMessages@@SA?AV?$basic_string@DU?$char_traits@D@std@@V?$allocator@D@2@@std@@W4NJSErrorType@@ZZ 000000018006e49c     njsMessages.obj
 0002:0001a4a8       $ip2state$?getErrorMsg@NJSMessages@@SA?AV?$basic_string@DU?$char_traits@D@std@@V?$allocator@D@2@@std@@W4NJSErrorType@@ZZ 000000018006e4a8     njsMessages.obj
 0002:0001a4b8       $unwind$??0LobBaton@@QEAA@AEAIV?$Local@VFunction@v8@@@v8@@V?$Local@VObject@v8@@@2@@Z 000000018006e4b8     njsIntLob.obj
 0002:0001a4d4       $stateUnwindMap$??0LobBaton@@QEAA@AEAIV?$Local@VFunction@v8@@@v8@@V?$Local@VObject@v8@@@2@@Z 000000018006e4d4     njsIntLob.obj
 0002:0001a500       $ip2state$??0LobBaton@@QEAA@AEAIV?$Local@VFunction@v8@@@v8@@V?$Local@VObject@v8@@@2@@Z 000000018006e500     njsIntLob.obj
 0002:0001a538       $unwind$??__F?iLobTemplate_s@ILob@@2V?$Persistent@VFunctionTemplate@v8@@V?$NonCopyablePersistentTraits@VFunctionTemplate@v8@@@2@@Nan@@A@@YAXXZ 000000018006e538     njsIntLob.obj
 0002:0001a548       $ip2state$??__F?iLobTemplate_s@ILob@@2V?$Persistent@VFunctionTemplate@v8@@V?$NonCopyablePersistentTraits@VFunctionTemplate@v8@@@2@@Nan@@A@@YAXXZ 000000018006e548     njsIntLob.obj
 0002:0001a550       $unwind$??_GILob@@EEAAPEAXI@Z 000000018006e550     njsIntLob.obj
 0002:0001a568       $stateUnwindMap$??_GILob@@EEAAPEAXI@Z 000000018006e568     njsIntLob.obj
 0002:0001a588       $ip2state$??_GILob@@EEAAPEAXI@Z 000000018006e588     njsIntLob.obj
 0002:0001a5a8       $unwind$?cleanupDPI@ILob@@QEAAXXZ 000000018006e5a8     njsIntLob.obj
 0002:0001a5bc       $stateUnwindMap$?cleanupDPI@ILob@@QEAAXXZ 000000018006e5bc     njsIntLob.obj
 0002:0001a5ec       $tryMap$?cleanupDPI@ILob@@QEAAXXZ 000000018006e5ec     njsIntLob.obj
 0002:0001a600       $handlerMap$0$?cleanupDPI@ILob@@QEAAXXZ 000000018006e600     njsIntLob.obj
 0002:0001a618       $ip2state$?cleanupDPI@ILob@@QEAAXXZ 000000018006e618     njsIntLob.obj
 0002:0001a638       $unwind$?catch$0@?0??cleanupDPI@ILob@@QEAAXXZ@4HA 000000018006e638     njsIntLob.obj
 0002:0001a648       $unwind$?setILob@ILob@@QEAAXPEAUeBaton@@PEAVProtoILob@@_N@Z 000000018006e648     njsIntLob.obj
 0002:0001a664       $tryMap$?setILob@ILob@@QEAAXPEAUeBaton@@PEAVProtoILob@@_N@Z 000000018006e664     njsIntLob.obj
 0002:0001a678       $handlerMap$0$?setILob@ILob@@QEAAXPEAUeBaton@@PEAVProtoILob@@_N@Z 000000018006e678     njsIntLob.obj
 0002:0001a690       $ip2state$?setILob@ILob@@QEAAXPEAUeBaton@@PEAVProtoILob@@_N@Z 000000018006e690     njsIntLob.obj
 0002:0001a6c0       $unwind$?catch$1@?0??setILob@ILob@@QEAAXPEAUeBaton@@PEAVProtoILob@@_N@Z@4HA 000000018006e6c0     njsIntLob.obj
 0002:0001a6d4       $unwind$?hasILobInstance@ILob@@SA_NV?$Local@VObject@v8@@@v8@@@Z 000000018006e6d4     njsIntLob.obj
 0002:0001a6e8       $ip2state$?hasILobInstance@ILob@@SA_NV?$Local@VObject@v8@@@v8@@@Z 000000018006e6e8     njsIntLob.obj
 0002:0001a700       $unwind$?Init@ILob@@SAXV?$Local@VObject@v8@@@v8@@@Z 000000018006e700     njsIntLob.obj
 0002:0001a718       $ip2state$?Init@ILob@@SAXV?$Local@VObject@v8@@@v8@@@Z 000000018006e718     njsIntLob.obj
 0002:0001a740       $unwind$?Release@ILob@@CAXAEBV?$FunctionCallbackInfo@VValue@v8@@@Nan@@@Z 000000018006e740     njsIntLob.obj
 0002:0001a760       $ip2state$?Release@ILob@@CAXAEBV?$FunctionCallbackInfo@VValue@v8@@@Nan@@@Z 000000018006e760     njsIntLob.obj
 0002:0001a788       $unwind$?Close@ILob@@CAXAEBV?$FunctionCallbackInfo@VValue@v8@@@Nan@@@Z 000000018006e788     njsIntLob.obj
 0002:0001a7b0       $stateUnwindMap$?Close@ILob@@CAXAEBV?$FunctionCallbackInfo@VValue@v8@@@Nan@@@Z 000000018006e7b0     njsIntLob.obj
 0002:0001a7e0       $ip2state$?Close@ILob@@CAXAEBV?$FunctionCallbackInfo@VValue@v8@@@Nan@@@Z 000000018006e7e0     njsIntLob.obj
 0002:0001a848       $unwind$??_GLobBaton@@QEAAPEAXI@Z 000000018006e848     njsIntLob.obj
 0002:0001a85c       $stateUnwindMap$??_GLobBaton@@QEAAPEAXI@Z 000000018006e85c     njsIntLob.obj
 0002:0001a880       $ip2state$??_GLobBaton@@QEAAPEAXI@Z 000000018006e880     njsIntLob.obj
 0002:0001a898       $unwind$?Async_AfterClose@ILob@@CAXPEAUuv_work_s@@@Z 000000018006e898     njsIntLob.obj
 0002:0001a8b0       $ip2state$?Async_AfterClose@ILob@@CAXPEAUuv_work_s@@@Z 000000018006e8b0     njsIntLob.obj
 0002:0001a8d8       $unwind$?lobPropertyException@ILob@@CAXPEAV1@W4NJSErrorType@@V?$basic_string@DU?$char_traits@D@std@@V?$allocator@D@2@@std@@@Z 000000018006e8d8     njsIntLob.obj
 0002:0001a8f8       $ip2state$?lobPropertyException@ILob@@CAXPEAV1@W4NJSErrorType@@V?$basic_string@DU?$char_traits@D@std@@V?$allocator@D@2@@std@@@Z 000000018006e8f8     njsIntLob.obj
 0002:0001a930       $unwind$?GetChunkSize@ILob@@CAXV?$Local@VString@v8@@@v8@@AEBV?$PropertyCallbackInfo@VValue@v8@@@Nan@@@Z 000000018006e930     njsIntLob.obj
 0002:0001a94c       $stateUnwindMap$?GetChunkSize@ILob@@CAXV?$Local@VString@v8@@@v8@@AEBV?$PropertyCallbackInfo@VValue@v8@@@Nan@@@Z 000000018006e94c     njsIntLob.obj
 0002:0001a96c       $tryMap$?GetChunkSize@ILob@@CAXV?$Local@VString@v8@@@v8@@AEBV?$PropertyCallbackInfo@VValue@v8@@@Nan@@@Z 000000018006e96c     njsIntLob.obj
 0002:0001a980       $handlerMap$0$?GetChunkSize@ILob@@CAXV?$Local@VString@v8@@@v8@@AEBV?$PropertyCallbackInfo@VValue@v8@@@Nan@@@Z 000000018006e980     njsIntLob.obj
 0002:0001a9a0       $ip2state$?GetChunkSize@ILob@@CAXV?$Local@VString@v8@@@v8@@AEBV?$PropertyCallbackInfo@VValue@v8@@@Nan@@@Z 000000018006e9a0     njsIntLob.obj
 0002:0001aa10       $unwind$?catch$3@?0??GetChunkSize@ILob@@CAXV?$Local@VString@v8@@@v8@@AEBV?$PropertyCallbackInfo@VValue@v8@@@Nan@@@Z@4HA 000000018006ea10     njsIntLob.obj
 0002:0001aa24       $unwind$?SetChunkSize@ILob@@CAXV?$Local@VString@v8@@@v8@@V?$Local@VValue@v8@@@3@AEBV?$PropertyCallbackInfo@X@Nan@@@Z 000000018006ea24     njsIntLob.obj
 0002:0001aa38       $ip2state$?SetChunkSize@ILob@@CAXV?$Local@VString@v8@@@v8@@V?$Local@VValue@v8@@@3@AEBV?$PropertyCallbackInfo@X@Nan@@@Z 000000018006ea38     njsIntLob.obj
 0002:0001aa50       $unwind$?GetLength@ILob@@CAXV?$Local@VString@v8@@@v8@@AEBV?$PropertyCallbackInfo@VValue@v8@@@Nan@@@Z 000000018006ea50     njsIntLob.obj
 0002:0001aa6c       $stateUnwindMap$?GetLength@ILob@@CAXV?$Local@VString@v8@@@v8@@AEBV?$PropertyCallbackInfo@VValue@v8@@@Nan@@@Z 000000018006ea6c     njsIntLob.obj
 0002:0001aa8c       $tryMap$?GetLength@ILob@@CAXV?$Local@VString@v8@@@v8@@AEBV?$PropertyCallbackInfo@VValue@v8@@@Nan@@@Z 000000018006ea8c     njsIntLob.obj
 0002:0001aaa0       $handlerMap$0$?GetLength@ILob@@CAXV?$Local@VString@v8@@@v8@@AEBV?$PropertyCallbackInfo@VValue@v8@@@Nan@@@Z 000000018006eaa0     njsIntLob.obj
 0002:0001aac0       $ip2state$?GetLength@ILob@@CAXV?$Local@VString@v8@@@v8@@AEBV?$PropertyCallbackInfo@VValue@v8@@@Nan@@@Z 000000018006eac0     njsIntLob.obj
 0002:0001ab30       $unwind$?catch$3@?0??GetLength@ILob@@CAXV?$Local@VString@v8@@@v8@@AEBV?$PropertyCallbackInfo@VValue@v8@@@Nan@@@Z@4HA 000000018006eb30     njsIntLob.obj
 0002:0001ab44       $unwind$?SetLength@ILob@@CAXV?$Local@VString@v8@@@v8@@V?$Local@VValue@v8@@@3@AEBV?$PropertyCallbackInfo@X@Nan@@@Z 000000018006eb44     njsIntLob.obj
 0002:0001ab58       $ip2state$?SetLength@ILob@@CAXV?$Local@VString@v8@@@v8@@V?$Local@VValue@v8@@@3@AEBV?$PropertyCallbackInfo@X@Nan@@@Z 000000018006eb58     njsIntLob.obj
 0002:0001ab70       $unwind$?GetPieceSize@ILob@@CAXV?$Local@VString@v8@@@v8@@AEBV?$PropertyCallbackInfo@VValue@v8@@@Nan@@@Z 000000018006eb70     njsIntLob.obj
 0002:0001ab8c       $stateUnwindMap$?GetPieceSize@ILob@@CAXV?$Local@VString@v8@@@v8@@AEBV?$PropertyCallbackInfo@VValue@v8@@@Nan@@@Z 000000018006eb8c     njsIntLob.obj
 0002:0001abac       $tryMap$?GetPieceSize@ILob@@CAXV?$Local@VString@v8@@@v8@@AEBV?$PropertyCallbackInfo@VValue@v8@@@Nan@@@Z 000000018006ebac     njsIntLob.obj
 0002:0001abc0       $handlerMap$0$?GetPieceSize@ILob@@CAXV?$Local@VString@v8@@@v8@@AEBV?$PropertyCallbackInfo@VValue@v8@@@Nan@@@Z 000000018006ebc0     njsIntLob.obj
 0002:0001abe0       $ip2state$?GetPieceSize@ILob@@CAXV?$Local@VString@v8@@@v8@@AEBV?$PropertyCallbackInfo@VValue@v8@@@Nan@@@Z 000000018006ebe0     njsIntLob.obj
 0002:0001ac50       $unwind$?catch$3@?0??GetPieceSize@ILob@@CAXV?$Local@VString@v8@@@v8@@AEBV?$PropertyCallbackInfo@VValue@v8@@@Nan@@@Z@4HA 000000018006ec50     njsIntLob.obj
 0002:0001ac64       $unwind$?SetPieceSize@ILob@@CAXV?$Local@VString@v8@@@v8@@V?$Local@VValue@v8@@@3@AEBV?$PropertyCallbackInfo@X@Nan@@@Z 000000018006ec64     njsIntLob.obj
 0002:0001ac84       $stateUnwindMap$?SetPieceSize@ILob@@CAXV?$Local@VString@v8@@@v8@@V?$Local@VValue@v8@@@3@AEBV?$PropertyCallbackInfo@X@Nan@@@Z 000000018006ec84     njsIntLob.obj
 0002:0001acb4       $tryMap$?SetPieceSize@ILob@@CAXV?$Local@VString@v8@@@v8@@V?$Local@VValue@v8@@@3@AEBV?$PropertyCallbackInfo@X@Nan@@@Z 000000018006ecb4     njsIntLob.obj
 0002:0001acc8       $handlerMap$0$?SetPieceSize@ILob@@CAXV?$Local@VString@v8@@@v8@@V?$Local@VValue@v8@@@3@AEBV?$PropertyCallbackInfo@X@Nan@@@Z 000000018006ecc8     njsIntLob.obj
 0002:0001ace0       $ip2state$?SetPieceSize@ILob@@CAXV?$Local@VString@v8@@@v8@@V?$Local@VValue@v8@@@3@AEBV?$PropertyCallbackInfo@X@Nan@@@Z 000000018006ece0     njsIntLob.obj
 0002:0001ad80       $unwind$?catch$7@?0??SetPieceSize@ILob@@CAXV?$Local@VString@v8@@@v8@@V?$Local@VValue@v8@@@3@AEBV?$PropertyCallbackInfo@X@Nan@@@Z@4HA 000000018006ed80     njsIntLob.obj
 0002:0001ad94       $unwind$?GetOffset@ILob@@CAXV?$Local@VString@v8@@@v8@@AEBV?$PropertyCallbackInfo@VValue@v8@@@Nan@@@Z 000000018006ed94     njsIntLob.obj
 0002:0001adb0       $stateUnwindMap$?GetOffset@ILob@@CAXV?$Local@VString@v8@@@v8@@AEBV?$PropertyCallbackInfo@VValue@v8@@@Nan@@@Z 000000018006edb0     njsIntLob.obj
 0002:0001add0       $tryMap$?GetOffset@ILob@@CAXV?$Local@VString@v8@@@v8@@AEBV?$PropertyCallbackInfo@VValue@v8@@@Nan@@@Z 000000018006edd0     njsIntLob.obj
 0002:0001ade4       $handlerMap$0$?GetOffset@ILob@@CAXV?$Local@VString@v8@@@v8@@AEBV?$PropertyCallbackInfo@VValue@v8@@@Nan@@@Z 000000018006ede4     njsIntLob.obj
 0002:0001ae00       $ip2state$?GetOffset@ILob@@CAXV?$Local@VString@v8@@@v8@@AEBV?$PropertyCallbackInfo@VValue@v8@@@Nan@@@Z 000000018006ee00     njsIntLob.obj
 0002:0001ae70       $unwind$?catch$3@?0??GetOffset@ILob@@CAXV?$Local@VString@v8@@@v8@@AEBV?$PropertyCallbackInfo@VValue@v8@@@Nan@@@Z@4HA 000000018006ee70     njsIntLob.obj
 0002:0001ae84       $unwind$?SetOffset@ILob@@CAXV?$Local@VString@v8@@@v8@@V?$Local@VValue@v8@@@3@AEBV?$PropertyCallbackInfo@X@Nan@@@Z 000000018006ee84     njsIntLob.obj
 0002:0001aeac       $stateUnwindMap$?SetOffset@ILob@@CAXV?$Local@VString@v8@@@v8@@V?$Local@VValue@v8@@@3@AEBV?$PropertyCallbackInfo@X@Nan@@@Z 000000018006eeac     njsIntLob.obj
 0002:0001aee0       $ip2state$?SetOffset@ILob@@CAXV?$Local@VString@v8@@@v8@@V?$Local@VValue@v8@@@3@AEBV?$PropertyCallbackInfo@X@Nan@@@Z 000000018006eee0     njsIntLob.obj
 0002:0001af38       $unwind$?GetType@ILob@@CAXV?$Local@VString@v8@@@v8@@AEBV?$PropertyCallbackInfo@VValue@v8@@@Nan@@@Z 000000018006ef38     njsIntLob.obj
 0002:0001af50       $stateUnwindMap$?GetType@ILob@@CAXV?$Local@VString@v8@@@v8@@AEBV?$PropertyCallbackInfo@VValue@v8@@@Nan@@@Z 000000018006ef50     njsIntLob.obj
 0002:0001af68       $tryMap$?GetType@ILob@@CAXV?$Local@VString@v8@@@v8@@AEBV?$PropertyCallbackInfo@VValue@v8@@@Nan@@@Z 000000018006ef68     njsIntLob.obj
 0002:0001af7c       $handlerMap$0$?GetType@ILob@@CAXV?$Local@VString@v8@@@v8@@AEBV?$PropertyCallbackInfo@VValue@v8@@@Nan@@@Z 000000018006ef7c     njsIntLob.obj
 0002:0001af90       $ip2state$?GetType@ILob@@CAXV?$Local@VString@v8@@@v8@@AEBV?$PropertyCallbackInfo@VValue@v8@@@Nan@@@Z 000000018006ef90     njsIntLob.obj
 0002:0001afd8       $unwind$?catch$1@?0??GetType@ILob@@CAXV?$Local@VString@v8@@@v8@@AEBV?$PropertyCallbackInfo@VValue@v8@@@Nan@@@Z@4HA 000000018006efd8     njsIntLob.obj
 0002:0001afe8       $unwind$?SetType@ILob@@CAXV?$Local@VString@v8@@@v8@@V?$Local@VValue@v8@@@3@AEBV?$PropertyCallbackInfo@X@Nan@@@Z 000000018006efe8     njsIntLob.obj
 0002:0001b000       $ip2state$?SetType@ILob@@CAXV?$Local@VString@v8@@@v8@@V?$Local@VValue@v8@@@3@AEBV?$PropertyCallbackInfo@X@Nan@@@Z 000000018006f000     njsIntLob.obj
 0002:0001b018       $unwind$?GetIsAutoCloseLob@ILob@@CAXV?$Local@VString@v8@@@v8@@AEBV?$PropertyCallbackInfo@VValue@v8@@@Nan@@@Z 000000018006f018     njsIntLob.obj
 0002:0001b030       $ip2state$?GetIsAutoCloseLob@ILob@@CAXV?$Local@VString@v8@@@v8@@AEBV?$PropertyCallbackInfo@VValue@v8@@@Nan@@@Z 000000018006f030     njsIntLob.obj
 0002:0001b048       $unwind$?SetIsAutoCloseLob@ILob@@CAXV?$Local@VString@v8@@@v8@@V?$Local@VValue@v8@@@3@AEBV?$PropertyCallbackInfo@X@Nan@@@Z 000000018006f048     njsIntLob.obj
 0002:0001b060       $ip2state$?SetIsAutoCloseLob@ILob@@CAXV?$Local@VString@v8@@@v8@@V?$Local@VValue@v8@@@3@AEBV?$PropertyCallbackInfo@X@Nan@@@Z 000000018006f060     njsIntLob.obj
 0002:0001b078       $unwind$?GetIsValid@ILob@@CAXV?$Local@VString@v8@@@v8@@AEBV?$PropertyCallbackInfo@VValue@v8@@@Nan@@@Z 000000018006f078     njsIntLob.obj
 0002:0001b090       $ip2state$?GetIsValid@ILob@@CAXV?$Local@VString@v8@@@v8@@AEBV?$PropertyCallbackInfo@VValue@v8@@@Nan@@@Z 000000018006f090     njsIntLob.obj
 0002:0001b0a8       $unwind$?SetIsValid@ILob@@CAXV?$Local@VString@v8@@@v8@@V?$Local@VValue@v8@@@3@AEBV?$PropertyCallbackInfo@X@Nan@@@Z 000000018006f0a8     njsIntLob.obj
 0002:0001b0c0       $ip2state$?SetIsValid@ILob@@CAXV?$Local@VString@v8@@@v8@@V?$Local@VValue@v8@@@3@AEBV?$PropertyCallbackInfo@X@Nan@@@Z 000000018006f0c0     njsIntLob.obj
 0002:0001b0d8       $unwind$?Read@ILob@@CAXAEBV?$FunctionCallbackInfo@VValue@v8@@@Nan@@@Z 000000018006f0d8     njsIntLob.obj
 0002:0001b0fc       $stateUnwindMap$?Read@ILob@@CAXAEBV?$FunctionCallbackInfo@VValue@v8@@@Nan@@@Z 000000018006f0fc     njsIntLob.obj
 0002:0001b120       $ip2state$?Read@ILob@@CAXAEBV?$FunctionCallbackInfo@VValue@v8@@@Nan@@@Z 000000018006f120     njsIntLob.obj
 0002:0001b178       $unwind$?Async_Read@ILob@@CAXPEAUuv_work_s@@@Z 000000018006f178     njsIntLob.obj
 0002:0001b198       $tryMap$?Async_Read@ILob@@CAXPEAUuv_work_s@@@Z 000000018006f198     njsIntLob.obj
 0002:0001b1ac       $handlerMap$0$?Async_Read@ILob@@CAXPEAUuv_work_s@@@Z 000000018006f1ac     njsIntLob.obj
 0002:0001b1c0       $ip2state$?Async_Read@ILob@@CAXPEAUuv_work_s@@@Z 000000018006f1c0     njsIntLob.obj
 0002:0001b1f0       $unwind$?catch$1@?0??Async_Read@ILob@@CAXPEAUuv_work_s@@@Z@4HA 000000018006f1f0     njsIntLob.obj
 0002:0001b204       $unwind$?Async_AfterRead@ILob@@CAXPEAUuv_work_s@@@Z 000000018006f204     njsIntLob.obj
 0002:0001b224       $stateUnwindMap$?Async_AfterRead@ILob@@CAXPEAUuv_work_s@@@Z 000000018006f224     njsIntLob.obj
 0002:0001b238       $ip2state$?Async_AfterRead@ILob@@CAXPEAUuv_work_s@@@Z 000000018006f238     njsIntLob.obj
 0002:0001b260       $unwind$?Write@ILob@@CAXAEBV?$FunctionCallbackInfo@VValue@v8@@@Nan@@@Z 000000018006f260     njsIntLob.obj
 0002:0001b288       $stateUnwindMap$?Write@ILob@@CAXAEBV?$FunctionCallbackInfo@VValue@v8@@@Nan@@@Z 000000018006f288     njsIntLob.obj
 0002:0001b2d0       $ip2state$?Write@ILob@@CAXAEBV?$FunctionCallbackInfo@VValue@v8@@@Nan@@@Z 000000018006f2d0     njsIntLob.obj
 0002:0001b350       $unwind$?Async_Write@ILob@@CAXPEAUuv_work_s@@@Z 000000018006f350     njsIntLob.obj
 0002:0001b370       $tryMap$?Async_Write@ILob@@CAXPEAUuv_work_s@@@Z 000000018006f370     njsIntLob.obj
 0002:0001b384       $handlerMap$0$?Async_Write@ILob@@CAXPEAUuv_work_s@@@Z 000000018006f384     njsIntLob.obj
 0002:0001b398       $ip2state$?Async_Write@ILob@@CAXPEAUuv_work_s@@@Z 000000018006f398     njsIntLob.obj
 0002:0001b3c8       $unwind$?catch$1@?0??Async_Write@ILob@@CAXPEAUuv_work_s@@@Z@4HA 000000018006f3c8     njsIntLob.obj
 0002:0001b3dc       $unwind$?Async_AfterWrite@ILob@@CAXPEAUuv_work_s@@@Z 000000018006f3dc     njsIntLob.obj
 0002:0001b3f8       $ip2state$?Async_AfterWrite@ILob@@CAXPEAUuv_work_s@@@Z 000000018006f3f8     njsIntLob.obj
 0002:0001b420       $unwind$??0ProtoILob@@QEAA@PEAUeBaton@@PEAUDescriptor@dpi@@G@Z 000000018006f420     njsIntLob.obj
 0002:0001b440       $tryMap$??0ProtoILob@@QEAA@PEAUeBaton@@PEAUDescriptor@dpi@@G@Z 000000018006f440     njsIntLob.obj
 0002:0001b454       $handlerMap$0$??0ProtoILob@@QEAA@PEAUeBaton@@PEAUDescriptor@dpi@@G@Z 000000018006f454     njsIntLob.obj
 0002:0001b468       $ip2state$??0ProtoILob@@QEAA@PEAUeBaton@@PEAUDescriptor@dpi@@G@Z 000000018006f468     njsIntLob.obj
 0002:0001b490       $unwind$?catch$1@?0???0ProtoILob@@QEAA@PEAUeBaton@@PEAUDescriptor@dpi@@G@Z@4HA 000000018006f490     njsIntLob.obj
 0002:0001b4a4       $unwind$??0EnvImpl@@QEAA@AEBV?$basic_string@DU?$char_traits@D@std@@V?$allocator@D@2@@std@@II@Z 000000018006f4a4     dpiEnvImpl.obj
 0002:0001b4c4       $stateUnwindMap$??0EnvImpl@@QEAA@AEBV?$basic_string@DU?$char_traits@D@std@@V?$allocator@D@2@@std@@II@Z 000000018006f4c4     dpiEnvImpl.obj
 0002:0001b4e4       $tryMap$??0EnvImpl@@QEAA@AEBV?$basic_string@DU?$char_traits@D@std@@V?$allocator@D@2@@std@@II@Z 000000018006f4e4     dpiEnvImpl.obj
 0002:0001b4f8       $handlerMap$0$??0EnvImpl@@QEAA@AEBV?$basic_string@DU?$char_traits@D@std@@V?$allocator@D@2@@std@@II@Z 000000018006f4f8     dpiEnvImpl.obj
 0002:0001b510       $ip2state$??0EnvImpl@@QEAA@AEBV?$basic_string@DU?$char_traits@D@std@@V?$allocator@D@2@@std@@II@Z 000000018006f510     dpiEnvImpl.obj
 0002:0001b540       $unwind$?catch$2@?0???0EnvImpl@@QEAA@AEBV?$basic_string@DU?$char_traits@D@std@@V?$allocator@D@2@@std@@II@Z@4HA 000000018006f540     dpiEnvImpl.obj
 0002:0001b550       $unwind$??0ExceptionImpl@@QEAA@AEBV0@@Z 000000018006f550     dpiEnvImpl.obj
 0002:0001b564       $stateUnwindMap$??0ExceptionImpl@@QEAA@PEBDH0@Z 000000018006f564     dpiExceptionImpl.obj
 0002:0001b564       $stateUnwindMap$??0ExceptionImpl@@QEAA@AEBV0@@Z 000000018006f564     dpiEnvImpl.obj
 0002:0001b578       $ip2state$??0ExceptionImpl@@QEAA@AEBV0@@Z 000000018006f578     dpiEnvImpl.obj
 0002:0001b598       $unwind$?createPool@EnvImpl@@UEAAPEAVSPool@dpi@@AEBV?$basic_string@DU?$char_traits@D@std@@V?$allocator@D@2@@std@@00HHHHH_N1H@Z 000000018006f598     dpiEnvImpl.obj
 0002:0001b5b4       $stateUnwindMap$?createPool@EnvImpl@@UEAAPEAVSPool@dpi@@AEBV?$basic_string@DU?$char_traits@D@std@@V?$allocator@D@2@@std@@00HHHHH_N1H@Z 000000018006f5b4     dpiEnvImpl.obj
 0002:0001b5c0       $ip2state$?createPool@EnvImpl@@UEAAPEAVSPool@dpi@@AEBV?$basic_string@DU?$char_traits@D@std@@V?$allocator@D@2@@std@@00HHHHH_N1H@Z 000000018006f5c0     dpiEnvImpl.obj
 0002:0001b5d8       $unwind$?getConnection@EnvImpl@@UEAAPEAVConn@dpi@@AEBV?$basic_string@DU?$char_traits@D@std@@V?$allocator@D@2@@std@@00H0_NW4DBPrivileges@3@@Z 000000018006f5d8     dpiEnvImpl.obj
 0002:0001b5f4       $stateUnwindMap$?getConnection@EnvImpl@@UEAAPEAVConn@dpi@@AEBV?$basic_string@DU?$char_traits@D@std@@V?$allocator@D@2@@std@@00H0_NW4DBPrivileges@3@@Z 000000018006f5f4     dpiEnvImpl.obj
 0002:0001b600       $ip2state$?getConnection@EnvImpl@@UEAAPEAVConn@dpi@@AEBV?$basic_string@DU?$char_traits@D@std@@V?$allocator@D@2@@std@@00H0_NW4DBPrivileges@3@@Z 000000018006f600     dpiEnvImpl.obj
 0002:0001b618       $unwind$??0ExceptionImpl@@QEAA@W4DpiError@dpi@@@Z 000000018006f618     dpiExceptionImpl.obj
 0002:0001b644       $stateUnwindMap$??0ExceptionImpl@@QEAA@W4DpiError@dpi@@@Z 000000018006f644     dpiExceptionImpl.obj
 0002:0001b668       $ip2state$??0ExceptionImpl@@QEAA@W4DpiError@dpi@@@Z 000000018006f668     dpiExceptionImpl.obj
 0002:0001b6a0       $unwind$??0ExceptionImpl@@QEAA@PEBDH0@Z 000000018006f6a0     dpiExceptionImpl.obj
 0002:0001b6b8       $ip2state$??0ExceptionImpl@@QEAA@PEBDH0@Z 000000018006f6b8     dpiExceptionImpl.obj
 0002:0001b6d8       $unwind$??$_Insert_string@DU?$char_traits@D@std@@_K@std@@YAAEAV?$basic_ostream@DU?$char_traits@D@std@@@0@AEAV10@QEBD_K@Z 000000018006f6d8     dpiExceptionImpl.obj
 0002:0001b6f8       $ip2state$??$_Insert_string@DU?$char_traits@D@std@@_K@std@@YAAEAV?$basic_ostream@DU?$char_traits@D@std@@@0@AEAV10@QEBD_K@Z 000000018006f6f8     dpiExceptionImpl.obj
 0002:0001b710       $unwind$??0ConnImpl@@QEAA@PEAVEnvImpl@@PEAUOCIEnv@@_NIAEBV?$basic_string@DU?$char_traits@D@std@@V?$allocator@D@2@@std@@333W4DBPrivileges@dpi@@@Z 000000018006f710     dpiConnImpl.obj
 0002:0001b738       $stateUnwindMap$??0ConnImpl@@QEAA@PEAVEnvImpl@@PEAUOCIEnv@@_NIAEBV?$basic_string@DU?$char_traits@D@std@@V?$allocator@D@2@@std@@333W4DBPrivileges@dpi@@@Z 000000018006f738     dpiConnImpl.obj
 0002:0001b770       $tryMap$??0ConnImpl@@QEAA@PEAVEnvImpl@@PEAUOCIEnv@@_NIAEBV?$basic_string@DU?$char_traits@D@std@@V?$allocator@D@2@@std@@333W4DBPrivileges@dpi@@@Z 000000018006f770     dpiConnImpl.obj
 0002:0001b784       $handlerMap$0$??0ConnImpl@@QEAA@PEAVEnvImpl@@PEAUOCIEnv@@_NIAEBV?$basic_string@DU?$char_traits@D@std@@V?$allocator@D@2@@std@@333W4DBPrivileges@dpi@@@Z 000000018006f784     dpiConnImpl.obj
 0002:0001b7a0       $ip2state$??0ConnImpl@@QEAA@PEAVEnvImpl@@PEAUOCIEnv@@_NIAEBV?$basic_string@DU?$char_traits@D@std@@V?$allocator@D@2@@std@@333W4DBPrivileges@dpi@@@Z 000000018006f7a0     dpiConnImpl.obj
 0002:0001b7f0       $unwind$?catch$5@?0???0ConnImpl@@QEAA@PEAVEnvImpl@@PEAUOCIEnv@@_NIAEBV?$basic_string@DU?$char_traits@D@std@@V?$allocator@D@2@@std@@333W4DBPrivileges@dpi@@@Z@4HA 000000018006f7f0     dpiConnImpl.obj
 0002:0001b800       $unwind$??0ConnImpl@@QEAA@PEAVPoolImpl@@PEAUOCIEnv@@_NPEAEIAEBV?$basic_string@DU?$char_traits@D@std@@V?$allocator@D@2@@std@@444HW4DBPrivileges@dpi@@H@Z 000000018006f800     dpiConnImpl.obj
 0002:0001b818       $stateUnwindMap$??0ConnImpl@@QEAA@PEAVPoolImpl@@PEAUOCIEnv@@_NPEAEIAEBV?$basic_string@DU?$char_traits@D@std@@V?$allocator@D@2@@std@@444HW4DBPrivileges@dpi@@H@Z 000000018006f818     dpiConnImpl.obj
 0002:0001b848       $tryMap$??0ConnImpl@@QEAA@PEAVPoolImpl@@PEAUOCIEnv@@_NPEAEIAEBV?$basic_string@DU?$char_traits@D@std@@V?$allocator@D@2@@std@@444HW4DBPrivileges@dpi@@H@Z 000000018006f848     dpiConnImpl.obj
 0002:0001b85c       $handlerMap$0$??0ConnImpl@@QEAA@PEAVPoolImpl@@PEAUOCIEnv@@_NPEAEIAEBV?$basic_string@DU?$char_traits@D@std@@V?$allocator@D@2@@std@@444HW4DBPrivileges@dpi@@H@Z 000000018006f85c     dpiConnImpl.obj
 0002:0001b870       $ip2state$??0ConnImpl@@QEAA@PEAVPoolImpl@@PEAUOCIEnv@@_NPEAEIAEBV?$basic_string@DU?$char_traits@D@std@@V?$allocator@D@2@@std@@444HW4DBPrivileges@dpi@@H@Z 000000018006f870     dpiConnImpl.obj
 0002:0001b8b0       $unwind$?catch$4@?0???0ConnImpl@@QEAA@PEAVPoolImpl@@PEAUOCIEnv@@_NPEAEIAEBV?$basic_string@DU?$char_traits@D@std@@V?$allocator@D@2@@std@@444HW4DBPrivileges@dpi@@H@Z@4HA 000000018006f8b0     dpiConnImpl.obj
 0002:0001b8c0       $unwind$??_GConnImpl@@UEAAPEAXI@Z 000000018006f8c0     dpiConnImpl.obj
 0002:0001b8d8       $ip2state$??_GConnImpl@@UEAAPEAXI@Z 000000018006f8d8     dpiConnImpl.obj
 0002:0001b8f0       $unwind$?release@ConnImpl@@UEAAXAEBV?$basic_string@DU?$char_traits@D@std@@V?$allocator@D@2@@std@@H@Z 000000018006f8f0     dpiConnImpl.obj
 0002:0001b908       $unwind$?prefetchRows@StmtImpl@@UEAAXI@Z 000000018006f908     dpiStmtImpl.obj
 0002:0001b908       $unwind$?poolTimeout@PoolImpl@@UEAAXI@Z 000000018006f908     dpiPoolImpl.obj
 0002:0001b908       $unwind$?stmtCacheSize@PoolImpl@@UEAAXI@Z 000000018006f908     dpiPoolImpl.obj
 0002:0001b908       $unwind$?stmtCacheSize@ConnImpl@@UEAAXI@Z 000000018006f908     dpiConnImpl.obj
 0002:0001b910       $unwind$?getStmt@ConnImpl@@UEAAPEAVStmt@dpi@@AEBV?$basic_string@DU?$char_traits@D@std@@V?$allocator@D@2@@std@@@Z 000000018006f910     dpiConnImpl.obj
 0002:0001b924       $stateUnwindMap$?getStmt@ConnImpl@@UEAAPEAVStmt@dpi@@AEBV?$basic_string@DU?$char_traits@D@std@@V?$allocator@D@2@@std@@@Z 000000018006f924     dpiConnImpl.obj
 0002:0001b930       $ip2state$?getStmt@ConnImpl@@UEAAPEAVStmt@dpi@@AEBV?$basic_string@DU?$char_traits@D@std@@V?$allocator@D@2@@std@@@Z 000000018006f930     dpiConnImpl.obj
 0002:0001b948       $chain$0$?breakExecution@ConnImpl@@UEAAXXZ 000000018006f948     dpiConnImpl.obj
 0002:0001b95c       $chain$1$?breakExecution@ConnImpl@@UEAAXXZ 000000018006f95c     dpiConnImpl.obj
 0002:0001b96c       $unwind$?getServerVersion@ConnImpl@@UEAAIXZ 000000018006f96c     dpiConnImpl.obj
 0002:0001b980       $unwind$?initConnImpl@ConnImpl@@AEAAX_N0AEBV?$basic_string@DU?$char_traits@D@std@@V?$allocator@D@2@@std@@PEAEI111HAEAV23@AEAHW4DBPrivileges@dpi@@@Z 000000018006f980     dpiConnImpl.obj
 0002:0001b9a4       $unwind$?cleanup@ConnImpl@@AEAAXXZ 000000018006f9a4     dpiConnImpl.obj
 0002:0001b9a4       $unwind$?stmtType@StmtImpl@@UEBA?AW4DpiStmtType@dpi@@XZ 000000018006f9a4     dpiStmtImpl.obj
 0002:0001b9a4       $unwind$?getState@StmtImpl@@UEAAIXZ 000000018006f9a4     dpiStmtImpl.obj
 0002:0001b9a4       $unwind$?isReturning@StmtImpl@@UEAA_NXZ 000000018006f9a4     dpiStmtImpl.obj
 0002:0001b9a4       $unwind$?numCols@StmtImpl@@UEAAIXZ 000000018006f9a4     dpiStmtImpl.obj
 0002:0001b9ac       $chain$0$?cleanup@ConnImpl@@AEAAXXZ 000000018006f9ac     dpiConnImpl.obj
 0002:0001b9c0       $chain$1$?cleanup@ConnImpl@@AEAAXXZ 000000018006f9c0     dpiConnImpl.obj
 0002:0001b9d4       $chain$2$?cleanup@ConnImpl@@AEAAXXZ 000000018006f9d4     dpiConnImpl.obj
 0002:0001b9e4       $chain$3$?cleanup@ConnImpl@@AEAAXXZ 000000018006f9e4     dpiConnImpl.obj
 0002:0001b9f4       $unwind$??_GDateTimeArrayImpl@dpi@@UEAAPEAXI@Z 000000018006f9f4     dpiDateTimeArrayImpl.obj
 0002:0001ba08       $ip2state$??_GDateTimeArrayImpl@dpi@@UEAAPEAXI@Z 000000018006fa08     dpiDateTimeArrayImpl.obj
 0002:0001ba20       $unwind$?init@DateTimeArrayImpl@dpi@@UEAAPEAXH@Z 000000018006fa20     dpiDateTimeArrayImpl.obj
 0002:0001ba38       $unwind$?getDateTime@DateTimeArrayImpl@dpi@@UEAAOH@Z 000000018006fa38     dpiDateTimeArrayImpl.obj
 0002:0001ba54       $unwind$?setDateTime@DateTimeArrayImpl@dpi@@UEAAXHO@Z 000000018006fa54     dpiDateTimeArrayImpl.obj
 0002:0001ba6c       $chain$3$?setDateTime@DateTimeArrayImpl@dpi@@UEAAXHO@Z 000000018006fa6c     dpiDateTimeArrayImpl.obj
 0002:0001ba8c       $chain$4$?setDateTime@DateTimeArrayImpl@dpi@@UEAAXHO@Z 000000018006fa8c     dpiDateTimeArrayImpl.obj
 0002:0001baa0       $chain$5$?setDateTime@DateTimeArrayImpl@dpi@@UEAAXHO@Z 000000018006faa0     dpiDateTimeArrayImpl.obj
 0002:0001bab0       $chain$7$?setDateTime@DateTimeArrayImpl@dpi@@UEAAXHO@Z 000000018006fab0     dpiDateTimeArrayImpl.obj
 0002:0001bad0       $chain$8$?setDateTime@DateTimeArrayImpl@dpi@@UEAAXHO@Z 000000018006fad0     dpiDateTimeArrayImpl.obj
 0002:0001bae0       $unwind$??0PoolImpl@@QEAA@PEAVEnvImpl@@PEAUOCIEnv@@AEBV?$basic_string@DU?$char_traits@D@std@@V?$allocator@D@2@@std@@22HHHH_NH3H@Z 000000018006fae0     dpiPoolImpl.obj
 0002:0001bb08       $stateUnwindMap$??0PoolImpl@@QEAA@PEAVEnvImpl@@PEAUOCIEnv@@AEBV?$basic_string@DU?$char_traits@D@std@@V?$allocator@D@2@@std@@22HHHH_NH3H@Z 000000018006fb08     dpiPoolImpl.obj
 0002:0001bb20       $tryMap$??0PoolImpl@@QEAA@PEAVEnvImpl@@PEAUOCIEnv@@AEBV?$basic_string@DU?$char_traits@D@std@@V?$allocator@D@2@@std@@22HHHH_NH3H@Z 000000018006fb20     dpiPoolImpl.obj
 0002:0001bb34       $handlerMap$0$??0PoolImpl@@QEAA@PEAVEnvImpl@@PEAUOCIEnv@@AEBV?$basic_string@DU?$char_traits@D@std@@V?$allocator@D@2@@std@@22HHHH_NH3H@Z 000000018006fb34     dpiPoolImpl.obj
 0002:0001bb48       $ip2state$??0PoolImpl@@QEAA@PEAVEnvImpl@@PEAUOCIEnv@@AEBV?$basic_string@DU?$char_traits@D@std@@V?$allocator@D@2@@std@@22HHHH_NH3H@Z 000000018006fb48     dpiPoolImpl.obj
 0002:0001bb70       $unwind$?catch$1@?0???0PoolImpl@@QEAA@PEAVEnvImpl@@PEAUOCIEnv@@AEBV?$basic_string@DU?$char_traits@D@std@@V?$allocator@D@2@@std@@22HHHH_NH3H@Z@4HA 000000018006fb70     dpiPoolImpl.obj
 0002:0001bb80       $unwind$?terminate@PoolImpl@@UEAAXXZ 000000018006fb80     dpiPoolImpl.obj
 0002:0001bb88       $chain$0$?terminate@PoolImpl@@UEAAXXZ 000000018006fb88     dpiPoolImpl.obj
 0002:0001bb9c       $chain$1$?terminate@PoolImpl@@UEAAXXZ 000000018006fb9c     dpiPoolImpl.obj
 0002:0001bbac       $unwind$?getConnection@PoolImpl@@UEAAPEAVConn@dpi@@AEBV?$basic_string@DU?$char_traits@D@std@@V?$allocator@D@2@@std@@000HW4DBPrivileges@3@@Z 000000018006fbac     dpiPoolImpl.obj
 0002:0001bbc8       $stateUnwindMap$?getConnection@PoolImpl@@UEAAPEAVConn@dpi@@AEBV?$basic_string@DU?$char_traits@D@std@@V?$allocator@D@2@@std@@000HW4DBPrivileges@3@@Z 000000018006fbc8     dpiPoolImpl.obj
 0002:0001bbd0       $ip2state$?getConnection@PoolImpl@@UEAAPEAVConn@dpi@@AEBV?$basic_string@DU?$char_traits@D@std@@V?$allocator@D@2@@std@@000HW4DBPrivileges@3@@Z 000000018006fbd0     dpiPoolImpl.obj
 0002:0001bbe8       $unwind$??0StmtImpl@@QEAA@PEAUOCIEnv@@PEAVConnImpl@@PEAUOCISvcCtx@@AEBV?$basic_string@DU?$char_traits@D@std@@V?$allocator@D@2@@std@@@Z 000000018006fbe8     dpiStmtImpl.obj
 0002:0001bc00       $stateUnwindMap$??0StmtImpl@@QEAA@PEAUOCIEnv@@PEAVConnImpl@@PEAUOCISvcCtx@@AEBV?$basic_string@DU?$char_traits@D@std@@V?$allocator@D@2@@std@@@Z 000000018006fc00     dpiStmtImpl.obj
 0002:0001bc18       $tryMap$??0StmtImpl@@QEAA@PEAUOCIEnv@@PEAVConnImpl@@PEAUOCISvcCtx@@AEBV?$basic_string@DU?$char_traits@D@std@@V?$allocator@D@2@@std@@@Z 000000018006fc18     dpiStmtImpl.obj
 0002:0001bc2c       $handlerMap$0$??0StmtImpl@@QEAA@PEAUOCIEnv@@PEAVConnImpl@@PEAUOCISvcCtx@@AEBV?$basic_string@DU?$char_traits@D@std@@V?$allocator@D@2@@std@@@Z 000000018006fc2c     dpiStmtImpl.obj
 0002:0001bc40       $ip2state$??0StmtImpl@@QEAA@PEAUOCIEnv@@PEAVConnImpl@@PEAUOCISvcCtx@@AEBV?$basic_string@DU?$char_traits@D@std@@V?$allocator@D@2@@std@@@Z 000000018006fc40     dpiStmtImpl.obj
 0002:0001bc68       $unwind$?catch$1@?0???0StmtImpl@@QEAA@PEAUOCIEnv@@PEAVConnImpl@@PEAUOCISvcCtx@@AEBV?$basic_string@DU?$char_traits@D@std@@V?$allocator@D@2@@std@@@Z@4HA 000000018006fc68     dpiStmtImpl.obj
 0002:0001bc78       $unwind$??_GStmtImpl@@UEAAPEAXI@Z 000000018006fc78     dpiStmtImpl.obj
 0002:0001bc90       $ip2state$??_GStmtImpl@@UEAAPEAXI@Z 000000018006fc90     dpiStmtImpl.obj
 0002:0001bca8       $chain$0$?stmtType@StmtImpl@@UEBA?AW4DpiStmtType@dpi@@XZ 000000018006fca8     dpiStmtImpl.obj
 0002:0001bcbc       $chain$1$?stmtType@StmtImpl@@UEBA?AW4DpiStmtType@dpi@@XZ 000000018006fcbc     dpiStmtImpl.obj
 0002:0001bccc       $chain$0$?numCols@StmtImpl@@UEAAIXZ 000000018006fccc     dpiStmtImpl.obj
 0002:0001bce0       $chain$1$?numCols@StmtImpl@@UEAAIXZ 000000018006fce0     dpiStmtImpl.obj
 0002:0001bcf0       $unwind$?bind@StmtImpl@@UEAAXIGPEAX_JPEAFPEAII3PEAUDpiBindCallbackCtx@dpi@@@Z 000000018006fcf0     dpiStmtImpl.obj
 0002:0001bd04       $unwind$?bind@StmtImpl@@UEAAXPEBEHIGPEAX_JPEAFPEAII4PEAUDpiBindCallbackCtx@dpi@@@Z 000000018006fd04     dpiStmtImpl.obj
 0002:0001bd1c       $unwind$islower            000000018006fd1c     libucrt:_ctype.obj
 0002:0001bd1c       $unwind$isdigit            000000018006fd1c     libucrt:_ctype.obj
 0002:0001bd1c       $unwind$?execute@StmtImpl@@UEAAXH_N@Z 000000018006fd1c     dpiStmtImpl.obj
 0002:0001bd1c       $unwind$_isleadbyte_l      000000018006fd1c     libucrt:_wctype.obj
 0002:0001bd1c       $unwind$isupper            000000018006fd1c     libucrt:_ctype.obj
 0002:0001bd1c       $unwind$?getSystemCP@@YAHH@Z 000000018006fd1c     libucrt:mbctype.obj
 0002:0001bd1c       $unwind$__dcrt_lowio_ensure_console_output_initialized 000000018006fd1c     libucrt:initcon.obj
 0002:0001bd24       $unwind$?define@StmtImpl@@UEAAXIGPEAX_JPEAFPEAIPEAUDpiDefineCallbackCtx@dpi@@@Z 000000018006fd24     dpiStmtImpl.obj
 0002:0001bd34       $unwind$?getMetaData@StmtImpl@@UEAAPEBUMetaData@dpi@@_N@Z 000000018006fd34     dpiStmtImpl.obj
 0002:0001bd50       $chain$0$?getMetaData@StmtImpl@@UEAAPEBUMetaData@dpi@@_N@Z 000000018006fd50     dpiStmtImpl.obj
 0002:0001bd64       $chain$1$?getMetaData@StmtImpl@@UEAAPEBUMetaData@dpi@@_N@Z 000000018006fd64     dpiStmtImpl.obj
 0002:0001bd74       $chain$0$?cleanup@StmtImpl@@AEAAXXZ 000000018006fd74     dpiStmtImpl.obj
 0002:0001bd88       $chain$1$?cleanup@StmtImpl@@AEAAXXZ 000000018006fd88     dpiStmtImpl.obj
 0002:0001bd98       $unwind$?outbindCallback@StmtImpl@@SAHPEAXPEAUOCIBind@@IIPEAPEAXPEAPEAIPEAE2PEAPEAG@Z 000000018006fd98     dpiStmtImpl.obj
 0002:0001bda8       $chain$0$?outbindCallback@StmtImpl@@SAHPEAXPEAUOCIBind@@IIPEAPEAXPEAPEAIPEAE2PEAPEAG@Z 000000018006fda8     dpiStmtImpl.obj
 0002:0001bdbc       $chain$1$?outbindCallback@StmtImpl@@SAHPEAXPEAUOCIBind@@IIPEAPEAXPEAPEAIPEAE2PEAPEAG@Z 000000018006fdbc     dpiStmtImpl.obj
 0002:0001bdd0       $chain$2$?outbindCallback@StmtImpl@@SAHPEAXPEAUOCIBind@@IIPEAPEAXPEAPEAIPEAE2PEAPEAG@Z 000000018006fdd0     dpiStmtImpl.obj
 0002:0001bde0       $chain$3$?outbindCallback@StmtImpl@@SAHPEAXPEAUOCIBind@@IIPEAPEAXPEAPEAIPEAE2PEAPEAG@Z 000000018006fde0     dpiStmtImpl.obj
 0002:0001bdf0       $unwind$?defineCallback@StmtImpl@@SAHPEAXPEAUOCIDefine@@IPEAPEAXPEAPEAIPEAE2PEAPEAG@Z 000000018006fdf0     dpiStmtImpl.obj
 0002:0001bdfc       $chain$0$?isReturning@StmtImpl@@UEAA_NXZ 000000018006fdfc     dpiStmtImpl.obj
 0002:0001be10       $chain$1$?isReturning@StmtImpl@@UEAA_NXZ 000000018006fe10     dpiStmtImpl.obj
 0002:0001be20       $chain$0$?getState@StmtImpl@@UEAAIXZ 000000018006fe20     dpiStmtImpl.obj
 0002:0001be34       $chain$1$?getState@StmtImpl@@UEAAIXZ 000000018006fe34     dpiStmtImpl.obj
 0002:0001be44       $unwind$?ociCallCommon@@YAXHPEAXI@Z 000000018006fe44     dpiUtils.obj
 0002:0001be5c       xdata                      000000018006fe5c     node:node.exe
 0002:0001be64       $unwind$??_G_Fac_node@std@@QEAAPEAXI@Z 000000018006fe64     libcpmt:locale0.obj
 0002:0001be80       $ip2state$??_G_Fac_node@std@@QEAAPEAXI@Z 000000018006fe80     libcpmt:locale0.obj
 0002:0001be98       $unwind$?_Locimp_dtor@_Locimp@locale@std@@CAXPEAV123@@Z 000000018006fe98     libcpmt:locale0.obj
 0002:0001beb8       $ip2state$?_Locimp_dtor@_Locimp@locale@std@@CAXPEAV123@@Z 000000018006feb8     libcpmt:locale0.obj
 0002:0001bed0       $unwind$??_G_Locimp@locale@std@@MEAAPEAXI@Z 000000018006fed0     libcpmt:locale0.obj
 0002:0001bee8       $ip2state$??_G_Locimp@locale@std@@MEAAPEAXI@Z 000000018006fee8     libcpmt:locale0.obj
 0002:0001bf00       $unwind$?_Init@locale@std@@CAPEAV_Locimp@12@_N@Z 000000018006ff00     libcpmt:locale0.obj
 0002:0001bf18       $stateUnwindMap$?_Locimp_dtor@_Locimp@locale@std@@CAXPEAV123@@Z 000000018006ff18     libcpmt:locale0.obj
 0002:0001bf18       $stateUnwindMap$?_Init@locale@std@@CAPEAV_Locimp@12@_N@Z 000000018006ff18     libcpmt:locale0.obj
 0002:0001bf20       $ip2state$?_Init@locale@std@@CAPEAV_Locimp@12@_N@Z 000000018006ff20     libcpmt:locale0.obj
 0002:0001bf38       $unwind$??__Fclassic_locale@std@@YAXXZ 000000018006ff38     libcpmt:locale0.obj
 0002:0001bf50       $ip2state$??__Fclassic_locale@std@@YAXXZ 000000018006ff50     libcpmt:locale0.obj
 0002:0001bf68       $unwind$_Tolower           000000018006ff68     libcpmt:_tolower.obj
 0002:0001bf78       $unwind$_Toupper           000000018006ff78     libcpmt:_toupper.obj
 0002:0001bf8c       $unwind$??__Finit_atexit@@YAXXZ 000000018006ff8c     libcpmt:iosptrs.obj
 0002:0001bfa0       $ip2state$??__Finit_atexit@@YAXXZ 000000018006ffa0     libcpmt:iosptrs.obj
 0002:0001bfb8       $unwind$__crtLCMapStringA  000000018006ffb8     libcpmt:StlLCMapStringA.obj
 0002:0001bfe0       $unwind$__crtLCMapStringEx 000000018006ffe0     libcpmt:winapinls.obj
 0002:0001bfe0       $unwind$_mbtowc_l          000000018006ffe0     libucrt:mbtowc.obj
 0002:0001bff8       $unwind$TranslateName      000000018006fff8     libucrt:getqloc_downlevel.obj
 0002:0001bff8       $unwind$GetTableIndexFromLocaleName 000000018006fff8     libcpmt:winapinls.obj
 0002:0001c010       $xdatasym                  0000000180070010     LIBCMT:_amdsecgs_.obj
 0002:0001c014       $unwind$__scrt_is_nonwritable_in_current_image 0000000180070014     LIBCMT:utility.obj
 0002:0001c034       $unwind$__scrt_is_nonwritable_in_current_image$filt$0 0000000180070034     LIBCMT:utility.obj
 0002:0001c03c       $unwind$__scrt_initialize_onexit_tables 000000018007003c     LIBCMT:utility.obj
 0002:0001c048       $unwind$??_M@YAXPEAX_K1P6AX0@Z@Z 0000000180070048     LIBCMT:ehvecdtr.obj
 0002:0001c070       $unwind$?__ArrayUnwind@@YAXPEAX_K1P6AX0@Z@Z 0000000180070070     LIBCMT:ehvecdtr.obj
 0002:0001c09c       $unwind$??_L@YAXPEAX_K1P6AX0@Z2@Z 000000018007009c     LIBCMT:ehvecctr.obj
 0002:0001c0c8       $unwind$__report_securityfailure 00000001800700c8     LIBCMT:gs_report.obj
 0002:0001c0d0       $unwind$__report_gsfailure 00000001800700d0     LIBCMT:gs_report.obj
 0002:0001c0d8       $unwind$capture_current_context 00000001800700d8     LIBCMT:gs_report.obj
 0002:0001c0e4       $unwind$capture_previous_context 00000001800700e4     LIBCMT:gs_report.obj
 0002:0001c0f0       $unwind$?dllmain_crt_process_attach@@YAHQEAUHINSTANCE__@@QEAX@Z 00000001800700f0     LIBCMT:dll_dllmain.obj
 0002:0001c11c       $unwind$?dllmain_crt_process_detach@@YAH_N@Z 000000018007011c     LIBCMT:dll_dllmain.obj
 0002:0001c144       $unwind$?dllmain_dispatch@@YAHQEAUHINSTANCE__@@KQEAX@Z 0000000180070144     LIBCMT:dll_dllmain.obj
 0002:0001c16c       $unwind$?filt$0@?0??dllmain_dispatch@@YAHQEAUHINSTANCE__@@KQEAX@Z@4HA 000000018007016c     LIBCMT:dll_dllmain.obj
 0002:0001c174       $unwind$__GSHandlerCheckCommon 0000000180070174     LIBCMT:_gshandler_.obj
 0002:0001c180       $xdatasym                  0000000180070180     LIBCMT:_chkstk_.obj
 0002:0001c188       $unwind$__scrt_fastfail    0000000180070188     LIBCMT:utility_desktop.obj
 0002:0001c198       $unwind$__isa_available_init 0000000180070198     LIBCMT:_cpu_disp_.obj
 0002:0001c1ac       $unwind$__security_init_cookie 00000001800701ac     LIBCMT:gs_support.obj
 0002:0001c1b8       $xdatasym                  00000001800701b8     LIBCMT:_guard_dispatch_.obj
 0002:0001c1c0       $xdatasym                  00000001800701c0     LIBCMT:_rfgfailure_.obj
 0002:0001c1d0       $unwind$?_GetEstablisherFrame@@YAPEA_KPEA_KPEAU_xDISPATCHER_CONTEXT@@PEBU_s_FuncInfo@@0@Z 00000001800701d0     libvcruntime:risctrnsctrl.obj
 0002:0001c1e8       $unwind$?__FrameUnwindToEmptyState@@YAXPEA_KPEAU_xDISPATCHER_CONTEXT@@PEBU_s_FuncInfo@@@Z 00000001800701e8     libvcruntime:risctrnsctrl.obj
 0002:0001c1fc       $unwind$_CallSETranslator  00000001800701fc     libvcruntime:risctrnsctrl.obj
 0002:0001c220       $unwind$_CallSETranslator$filt$0 0000000180070220     libvcruntime:risctrnsctrl.obj
 0002:0001c22c       $unwind$_UnwindNestedFrames 000000018007022c     libvcruntime:risctrnsctrl.obj
 0002:0001c240       $unwind$__CxxFrameHandler3 0000000180070240     libvcruntime:risctrnsctrl.obj
 0002:0001c250       $xdatasym                  0000000180070250     libvcruntime:memcpy.obj
 0002:0001c254       $unwind$__DestructExceptionObject 0000000180070254     libvcruntime:ehhelpers.obj
 0002:0001c278       $unwind$_CxxThrowException 0000000180070278     libvcruntime:throw.obj
 0002:0001c290       $xdatasym                  0000000180070290     libvcruntime:memset.obj
 0002:0001c298       $xdatasym                  0000000180070298     libvcruntime:memchr.obj
 0002:0001c2a0       $xdatasym                  00000001800702a0     libvcruntime:memcmp.obj
 0002:0001c2a4       $unwind$__C_specific_handler 00000001800702a4     libvcruntime:_riscchandler_.obj
 0002:0001c2a4       $unwind$__InternalCxxFrameHandler 00000001800702a4     libvcruntime:frame.obj
 0002:0001c2a4       $unwind$__acrt_locale_initialize_numeric 00000001800702a4     libucrt:initnum.obj
 0002:0001c2c0       $unwind$__CxxCallCatchBlock 00000001800702c0     libvcruntime:frame.obj
 0002:0001c2fc       $unwind$__BuildCatchObject 00000001800702fc     libvcruntime:frame.obj
 0002:0001c328       $unwind$__FrameUnwindToState 0000000180070328     libvcruntime:frame.obj
 0002:0001c364       $unwind$?FindHandler@@YAXPEAUEHExceptionRecord@@PEA_KPEAU_CONTEXT@@PEAU_xDISPATCHER_CONTEXT@@PEBU_s_FuncInfo@@EH1@Z 0000000180070364     libvcruntime:frame.obj
 0002:0001c384       $unwind$?CatchIt@@YAXPEAUEHExceptionRecord@@PEA_KPEAU_CONTEXT@@PEAU_xDISPATCHER_CONTEXT@@PEBU_s_FuncInfo@@PEBU_s_HandlerType@@PEBU_s_CatchableType@@PEBU_s_TryBlockMapEntry@@H1EE@Z 0000000180070384     libvcruntime:frame.obj
 0002:0001c39c       $unwind$?FindHandlerForForeignException@@YAXPEAUEHExceptionRecord@@PEA_KPEAU_CONTEXT@@PEAU_xDISPATCHER_CONTEXT@@PEBU_s_FuncInfo@@HH1@Z 000000018007039c     libvcruntime:frame.obj
 0002:0001c3b4       $unwind$__BuildCatchObjectHelper 00000001800703b4     libvcruntime:frame.obj
 0002:0001c3f8       $xdatasym                  00000001800703f8     libvcruntime:_jmpuwind_.obj
 0002:0001c410       $xdatasym                  0000000180070410     libvcruntime:handlers.obj
 0002:0001c418       $unwind$__acrt_call_reportfault 0000000180070418     libucrt:invalid_parameter.obj
 0002:0001c438       $unwind$strpbrk            0000000180070438     libucrt:strpbrk.obj
 0002:0001c438       $unwind$strcspn            0000000180070438     libucrt:strcspn.obj
 0002:0001c448       $unwind$__stdio_common_vfwprintf 0000000180070448     libucrt:output.obj
 0002:0001c450       $unwind$??$common_vsprintf@Vstandard_base@__crt_stdio_output@@D@@YAH_KQEAD0QEBDQEAU__crt_locale_pointers@@1@Z 0000000180070450     libucrt:output.obj
 0002:0001c450       $unwind$??$common_vsprintf@Vformat_validation_base@__crt_stdio_output@@D@@YAH_KQEAD0QEBDQEAU__crt_locale_pointers@@1@Z 0000000180070450     libucrt:output.obj
 0002:0001c450       $unwind$??$common_vsprintf@Vstandard_base@__crt_stdio_output@@_W@@YAH_KQEA_W0QEB_WQEAU__crt_locale_pointers@@QEAD@Z 0000000180070450     libucrt:output.obj
 0002:0001c470       $unwind$?write_string_impl@?$output_adapter_common@_WV?$stream_output_adapter@_W@__crt_stdio_output@@@__crt_stdio_output@@IEBAXQEB_WHQEAHAEAV__crt_deferred_errno_cache@@@Z 0000000180070470     libucrt:output.obj
 0002:0001c488       $unwind$?parse_int_from_format_string@?$output_processor@_WV?$string_output_adapter@_W@__crt_stdio_output@@V?$standard_base@_WV?$string_output_adapter@_W@__crt_stdio_output@@@2@@__crt_stdio_output@@AEAA_NQEAH@Z 0000000180070488     libucrt:output.obj
 0002:0001c488       $unwind$?parse_int_from_format_string@?$output_processor@_WV?$stream_output_adapter@_W@__crt_stdio_output@@V?$standard_base@_WV?$stream_output_adapter@_W@__crt_stdio_output@@@2@@__crt_stdio_output@@AEAA_NQEAH@Z 0000000180070488     libucrt:output.obj
 0002:0001c49c       $unwind$?state_case_type@?$output_processor@_WV?$stream_output_adapter@_W@__crt_stdio_output@@V?$standard_base@_WV?$stream_output_adapter@_W@__crt_stdio_output@@@2@@__crt_stdio_output@@AEAA_NXZ 000000018007049c     libucrt:output.obj
 0002:0001c4bc       $unwind$?type_case_a@?$output_processor@_WV?$stream_output_adapter@_W@__crt_stdio_output@@V?$standard_base@_WV?$stream_output_adapter@_W@__crt_stdio_output@@@2@@__crt_stdio_output@@AEAA_NXZ 00000001800704bc     libucrt:output.obj
 0002:0001c4bc       $unwind$?type_case_a@?$output_processor@_WV?$string_output_adapter@_W@__crt_stdio_output@@V?$standard_base@_WV?$string_output_adapter@_W@__crt_stdio_output@@@2@@__crt_stdio_output@@AEAA_NXZ 00000001800704bc     libucrt:output.obj
 0002:0001c4cc       $unwind$?write_stored_string_tchar@?$output_processor@_WV?$stream_output_adapter@_W@__crt_stdio_output@@V?$standard_base@_WV?$stream_output_adapter@_W@__crt_stdio_output@@@2@@__crt_stdio_output@@AEAA_N_W@Z 00000001800704cc     libucrt:output.obj
 0002:0001c4e0       $unwind$??R<lambda_a775ed57af18ba8e4d5dc780aa9068fe>@@QEBAHXZ 00000001800704e0     libucrt:output.obj
 0002:0001c500       $unwind$?process@?$output_processor@DV?$string_output_adapter@D@__crt_stdio_output@@V?$standard_base@DV?$string_output_adapter@D@__crt_stdio_output@@@2@@__crt_stdio_output@@QEAAHXZ 0000000180070500     libucrt:output.obj
 0002:0001c510       $unwind$?parse_int_from_format_string@?$output_processor@DV?$string_output_adapter@D@__crt_stdio_output@@V?$standard_base@DV?$string_output_adapter@D@__crt_stdio_output@@@2@@__crt_stdio_output@@AEAA_NQEAH@Z 0000000180070510     libucrt:output.obj
 0002:0001c510       $unwind$?parse_int_from_format_string@?$output_processor@DV?$string_output_adapter@D@__crt_stdio_output@@V?$format_validation_base@DV?$string_output_adapter@D@__crt_stdio_output@@@2@@__crt_stdio_output@@AEAA_NQEAH@Z 0000000180070510     libucrt:output.obj
 0002:0001c524       $unwind$?state_case_type@?$output_processor@DV?$string_output_adapter@D@__crt_stdio_output@@V?$standard_base@DV?$string_output_adapter@D@__crt_stdio_output@@@2@@__crt_stdio_output@@AEAA_NXZ 0000000180070524     libucrt:output.obj
 0002:0001c524       $unwind$?state_case_type@?$output_processor@DV?$string_output_adapter@D@__crt_stdio_output@@V?$format_validation_base@DV?$string_output_adapter@D@__crt_stdio_output@@@2@@__crt_stdio_output@@AEAA_NXZ 0000000180070524     libucrt:output.obj
 0002:0001c53c       $unwind$?type_case_a@?$output_processor@DV?$string_output_adapter@D@__crt_stdio_output@@V?$standard_base@DV?$string_output_adapter@D@__crt_stdio_output@@@2@@__crt_stdio_output@@AEAA_NXZ 000000018007053c     libucrt:output.obj
 0002:0001c53c       $unwind$?type_case_a@?$output_processor@DV?$string_output_adapter@D@__crt_stdio_output@@V?$format_validation_base@DV?$string_output_adapter@D@__crt_stdio_output@@@2@@__crt_stdio_output@@AEAA_NXZ 000000018007053c     libucrt:output.obj
 0002:0001c548       $unwind$?write_stored_string_tchar@?$output_processor@DV?$string_output_adapter@D@__crt_stdio_output@@V?$format_validation_base@DV?$string_output_adapter@D@__crt_stdio_output@@@2@@__crt_stdio_output@@AEAA_ND@Z 0000000180070548     libucrt:output.obj
 0002:0001c548       $unwind$?write_stored_string_tchar@?$output_processor@DV?$string_output_adapter@D@__crt_stdio_output@@V?$standard_base@DV?$string_output_adapter@D@__crt_stdio_output@@@2@@__crt_stdio_output@@AEAA_ND@Z 0000000180070548     libucrt:output.obj
 0002:0001c560       $unwind$?write_string@?$string_output_adapter@_W@__crt_stdio_output@@QEBAXQEB_WHQEAHAEAV__crt_deferred_errno_cache@@@Z 0000000180070560     libucrt:output.obj
 0002:0001c578       $unwind$__GSHandlerCheck_EH 0000000180070578     LIBCMT:gshandlereh.obj
 0002:0001c578       $unwind$__TypeMatch        0000000180070578     libvcruntime:frame.obj
 0002:0001c578       $unwind$?process@?$output_processor@_WV?$stream_output_adapter@_W@__crt_stdio_output@@V?$standard_base@_WV?$stream_output_adapter@_W@__crt_stdio_output@@@2@@__crt_stdio_output@@QEAAHXZ 0000000180070578     libucrt:output.obj
 0002:0001c578       $unwind$__acrt_initialize_stdio 0000000180070578     libucrt:_file.obj
 0002:0001c578       $unwind$?process@?$output_processor@_WV?$string_output_adapter@_W@__crt_stdio_output@@V?$standard_base@_WV?$string_output_adapter@_W@__crt_stdio_output@@@2@@__crt_stdio_output@@QEAAHXZ 0000000180070578     libucrt:output.obj
 0002:0001c590       $unwind$?state_case_type@?$output_processor@_WV?$string_output_adapter@_W@__crt_stdio_output@@V?$standard_base@_WV?$string_output_adapter@_W@__crt_stdio_output@@@2@@__crt_stdio_output@@AEAA_NXZ 0000000180070590     libucrt:output.obj
 0002:0001c5b4       $unwind$?write_stored_string_tchar@?$output_processor@_WV?$string_output_adapter@_W@__crt_stdio_output@@V?$standard_base@_WV?$string_output_adapter@_W@__crt_stdio_output@@@2@@__crt_stdio_output@@AEAA_N_W@Z 00000001800705b4     libucrt:output.obj
 0002:0001c5c8       $unwind$??$write_multiple_characters@V?$string_output_adapter@_W@__crt_stdio_output@@D@__crt_stdio_output@@YAXAEBV?$string_output_adapter@_W@0@DHQEAH@Z 00000001800705c8     libucrt:output.obj
 0002:0001c5d4       $unwind$?write_string@?$string_output_adapter@D@__crt_stdio_output@@QEBAXQEBDHQEAHAEAV__crt_deferred_errno_cache@@@Z 00000001800705d4     libucrt:output.obj
 0002:0001c5d4       $unwind$??$write_multiple_characters@V?$stream_output_adapter@_W@__crt_stdio_output@@D@__crt_stdio_output@@YAXAEBV?$stream_output_adapter@_W@0@DHQEAH@Z 00000001800705d4     libucrt:output.obj
 0002:0001c5ec       $unwind$??$type_case_integer_parse_into_buffer@_K@?$output_processor@_WV?$stream_output_adapter@_W@__crt_stdio_output@@V?$standard_base@_WV?$stream_output_adapter@_W@__crt_stdio_output@@@2@@__crt_stdio_output@@AEAAX_KI_N@Z 00000001800705ec     libucrt:output.obj
 0002:0001c5ec       $unwind$??$type_case_integer_parse_into_buffer@I@?$output_processor@_WV?$stream_output_adapter@_W@__crt_stdio_output@@V?$standard_base@_WV?$stream_output_adapter@_W@__crt_stdio_output@@@2@@__crt_stdio_output@@AEAAXII_N@Z 00000001800705ec     libucrt:output.obj
 0002:0001c5ec       $unwind$??$type_case_integer_parse_into_buffer@_K@?$output_processor@DV?$string_output_adapter@D@__crt_stdio_output@@V?$standard_base@DV?$string_output_adapter@D@__crt_stdio_output@@@2@@__crt_stdio_output@@AEAAX_KI_N@Z 00000001800705ec     libucrt:output.obj
 0002:0001c5ec       $unwind$??$type_case_integer_parse_into_buffer@I@?$output_processor@DV?$string_output_adapter@D@__crt_stdio_output@@V?$standard_base@DV?$string_output_adapter@D@__crt_stdio_output@@@2@@__crt_stdio_output@@AEAAXII_N@Z 00000001800705ec     libucrt:output.obj
 0002:0001c5ec       $unwind$??$type_case_integer_parse_into_buffer@I@?$output_processor@DV?$string_output_adapter@D@__crt_stdio_output@@V?$format_validation_base@DV?$string_output_adapter@D@__crt_stdio_output@@@2@@__crt_stdio_output@@AEAAXII_N@Z 00000001800705ec     libucrt:output.obj
 0002:0001c5ec       $unwind$??$type_case_integer_parse_into_buffer@I@?$output_processor@_WV?$string_output_adapter@_W@__crt_stdio_output@@V?$standard_base@_WV?$string_output_adapter@_W@__crt_stdio_output@@@2@@__crt_stdio_output@@AEAAXII_N@Z 00000001800705ec     libucrt:output.obj
 0002:0001c5ec       $unwind$??$type_case_integer_parse_into_buffer@_K@?$output_processor@DV?$string_output_adapter@D@__crt_stdio_output@@V?$format_validation_base@DV?$string_output_adapter@D@__crt_stdio_output@@@2@@__crt_stdio_output@@AEAAX_KI_N@Z 00000001800705ec     libucrt:output.obj
 0002:0001c5ec       $unwind$??$type_case_integer_parse_into_buffer@_K@?$output_processor@_WV?$string_output_adapter@_W@__crt_stdio_output@@V?$standard_base@_WV?$string_output_adapter@_W@__crt_stdio_output@@@2@@__crt_stdio_output@@AEAAX_KI_N@Z 00000001800705ec     libucrt:output.obj
 0002:0001c5ec       $unwind$??$write_multiple_characters@V?$string_output_adapter@D@__crt_stdio_output@@D@__crt_stdio_output@@YAXAEBV?$string_output_adapter@D@0@DHQEAH@Z 00000001800705ec     libucrt:output.obj
 0002:0001c5f4       $unwind$??$?RV<lambda_0d412022a4b28cc8a401ea49574e8ae6>@@AEAV<lambda_a775ed57af18ba8e4d5dc780aa9068fe>@@V<lambda_975a71a6baa488a08f4e15f6b0339b9e>@@@?$__crt_seh_guarded_call@H@@QEAAH$$QEAV<lambda_0d412022a4b28cc8a401ea49574e8ae6>@@AEAV<lambda_a775ed57af18ba8e4d5dc780aa9068fe>@@$$QEAV<lambda_975a71a6baa488a08f4e15f6b0339b9e>@@@Z 00000001800705f4     libucrt:output.obj
 0002:0001c618       $unwind$frexp              0000000180070618     libucrt:frexp.obj
 0002:0001c62c       $unwind$fwprintf           000000018007062c     libucrt:assert.obj
 0002:0001c638       $unwind$??$common_assert_to_stderr@_W@@YAXQEB_W0I@Z 0000000180070638     libucrt:assert.obj
 0002:0001c654       $unwind$??$common_assert_to_message_box@_W@@YAXQEB_W0IQEAX@Z 0000000180070654     libucrt:assert.obj
 0002:0001c670       $unwind$??$common_assert_to_message_box_build_string@_W@@YAXQEA_W_KQEB_W2IQEAX@Z 0000000180070670     libucrt:assert.obj
 0002:0001c690       $unwind$terminate          0000000180070690     libucrt:terminate.obj
 0002:0001c6b0       $unwind$setlocale          00000001800706b0     libucrt:setlocale.obj
 0002:0001c6b8       $unwind$??R<lambda_082c17da81b0962e08c0587ee0fac50c>@@QEBAPEADXZ 00000001800706b8     libucrt:setlocale.obj
 0002:0001c6d0       $unwind$??$?RV<lambda_9bd929c17696992ce54f1d748594fc62>@@AEAV<lambda_082c17da81b0962e08c0587ee0fac50c>@@V<lambda_9c08ac857f4975304d44e9f601d9b878>@@@?$__crt_seh_guarded_call@PEAD@@QEAAPEAD$$QEAV<lambda_9bd929c17696992ce54f1d748594fc62>@@AEAV<lambda_082c17da81b0962e08c0587ee0fac50c>@@$$QEAV<lambda_9c08ac857f4975304d44e9f601d9b878>@@@Z 00000001800706d0     libucrt:setlocale.obj
 0002:0001c6f4       $unwind$__acrt_locale_initialize_ctype 00000001800706f4     libucrt:initctype.obj
 0002:0001c71c       $unwind$_stricmp_l         000000018007071c     libucrt:stricmp.obj
 0002:0001c71c       $unwind$?x_ismbbtype_l@@YAHPEAU__crt_locale_pointers@@IHH@Z 000000018007071c     libucrt:ismbbyte.obj
 0002:0001c72c       $unwind$?divide@__crt_strtox@@YA_KAEAUbig_integer@1@AEBU21@@Z 000000018007072c     libucrt:strtod.obj
 0002:0001c74c       $chain$5$?divide@__crt_strtox@@YA_KAEAUbig_integer@1@AEBU21@@Z 000000018007074c     libucrt:strtod.obj
 0002:0001c760       $chain$6$?divide@__crt_strtox@@YA_KAEAUbig_integer@1@AEBU21@@Z 0000000180070760     libucrt:strtod.obj
 0002:0001c770       $xdatasym                  0000000180070770     libucrt:pow.obj
 0002:0001c780       $xdatasym                  0000000180070780     libucrt:powf.obj
 0002:0001c790       $unwind$_tolower_l         0000000180070790     libucrt:tolower_toupper.obj
 0002:0001c7a0       $unwind$_query_new_handler 00000001800707a0     libucrt:new_handler.obj
 0002:0001c7c0       $unwind$?common_exit@@YAXHW4_crt_exit_cleanup_mode@@W4_crt_exit_return_mode@@@Z 00000001800707c0     libucrt:exit.obj
 0002:0001c7cc       $unwind$??R<lambda_6e4b09c48022b2350581041d5f6b0c4c>@@QEBA@XZ 00000001800707cc     libucrt:exit.obj
 0002:0001c7ec       $unwind$??$?RV<lambda_d80eeec6fff315bfe5c115232f3240e3>@@AEAV<lambda_6e4b09c48022b2350581041d5f6b0c4c>@@V<lambda_2358e3775559c9db80273638284d5e45>@@@?$__crt_seh_guarded_call@X@@QEAAX$$QEAV<lambda_d80eeec6fff315bfe5c115232f3240e3>@@AEAV<lambda_6e4b09c48022b2350581041d5f6b0c4c>@@$$QEAV<lambda_2358e3775559c9db80273638284d5e45>@@@Z 00000001800707ec     libucrt:exit.obj
 0002:0001c810       $unwind$_configure_narrow_argv 0000000180070810     libucrt:argv_parsing.obj
 0002:0001c824       $unwind$??$free_environment@_W@@YAXQEAPEA_W@Z 0000000180070824     libucrt:environment_initialization.obj
 0002:0001c824       $unwind$??$free_environment@D@@YAXQEAPEAD@Z 0000000180070824     libucrt:environment_initialization.obj
 0002:0001c830       $unwind$??$create_environment@D@@YAQEAPEADQEAD@Z 0000000180070830     libucrt:environment_initialization.obj
 0002:0001c830       $unwind$__lc_wcstolc       0000000180070830     libucrt:wsetlocale.obj
 0002:0001c848       $unwind$_register_onexit_function 0000000180070848     libucrt:onexit.obj
 0002:0001c850       $unwind$_execute_onexit_table 0000000180070850     libucrt:onexit.obj
 0002:0001c858       $unwind$??$?RV<lambda_8369fcb7c4df1e85de37618bd2b85f07>@@AEAV<lambda_a10e4b102d4a2c3aac6f4f48bbdf488f>@@V<lambda_5b7707bd6d7a0c4713179f36c7fd995d>@@@?$__crt_seh_guarded_call@H@@QEAAH$$QEAV<lambda_8369fcb7c4df1e85de37618bd2b85f07>@@AEAV<lambda_a10e4b102d4a2c3aac6f4f48bbdf488f>@@$$QEAV<lambda_5b7707bd6d7a0c4713179f36c7fd995d>@@@Z 0000000180070858     libucrt:onexit.obj
 0002:0001c87c       $unwind$??$?RV<lambda_7777bce6b2f8c936911f934f8298dc43>@@AEAV<lambda_f03950bc5685219e0bcd2087efbe011e>@@V<lambda_3883c3dff614d5e0c5f61bb1ac94921c>@@@?$__crt_seh_guarded_call@H@@QEAAH$$QEAV<lambda_7777bce6b2f8c936911f934f8298dc43>@@AEAV<lambda_f03950bc5685219e0bcd2087efbe011e>@@$$QEAV<lambda_3883c3dff614d5e0c5f61bb1ac94921c>@@@Z 000000018007087c     libucrt:onexit.obj
 0002:0001c8a0       $unwind$??$parse_integer@KV?$c_string_character_source@D@__crt_strtox@@@__crt_strtox@@YAKQEAU__crt_locale_pointers@@V?$c_string_character_source@D@0@H_N@Z 00000001800708a0     libucrt:atox.obj
 0002:0001c8bc       $unwind$??$parse_integer@KV?$c_string_character_source@_W@__crt_strtox@@@__crt_strtox@@YAKQEAU__crt_locale_pointers@@V?$c_string_character_source@_W@0@H_N@Z 00000001800708bc     libucrt:atox.obj
 0002:0001c8d4       $unwind$raise              00000001800708d4     libucrt:signal.obj
 0002:0001c900       $unwind$??$?RV<lambda_450d765d439847d4c735a33c368b5fc0>@@AEAV<lambda_44731a7d0e6d81c3e6aa82d741081786>@@V<lambda_601a2a7da3b7a96e9554ac7215c4b07c>@@@?$__crt_seh_guarded_call@P6AXH@Z@@QEAAP6AXH@Z$$QEAV<lambda_450d765d439847d4c735a33c368b5fc0>@@AEAV<lambda_44731a7d0e6d81c3e6aa82d741081786>@@$$QEAV<lambda_601a2a7da3b7a96e9554ac7215c4b07c>@@@Z 0000000180070900     libucrt:signal.obj
 0002:0001c924       $unwind$?construct_ptd_array@@YAXQEAU__acrt_ptd@@@Z 0000000180070924     libucrt:per_thread_data.obj
 0002:0001c92c       $unwind$?destroy_ptd_array@@YAXQEAU__acrt_ptd@@@Z 000000018007092c     libucrt:per_thread_data.obj
 0002:0001c934       $unwind$??$?RV<lambda_0ae27a3a962d80f24befdcbee591983d>@@AEAV<lambda_8d0ee55de4b1038c4002e0adecdf1839>@@V<lambda_dc504788e8f1664fe9b84e20bfb512f2>@@@?$__crt_seh_guarded_call@X@@QEAAX$$QEAV<lambda_0ae27a3a962d80f24befdcbee591983d>@@AEAV<lambda_8d0ee55de4b1038c4002e0adecdf1839>@@$$QEAV<lambda_dc504788e8f1664fe9b84e20bfb512f2>@@@Z 0000000180070934     libucrt:per_thread_data.obj
 0002:0001c958       $unwind$??$?RV<lambda_aa87e3671a710a21b5dc78c0bdf72e11>@@AEAV<lambda_92619d2358a28f41a33ba319515a20b9>@@V<lambda_6992ecaafeb10aed2b74cb1fae11a551>@@@?$__crt_seh_guarded_call@X@@QEAAX$$QEAV<lambda_aa87e3671a710a21b5dc78c0bdf72e11>@@AEAV<lambda_92619d2358a28f41a33ba319515a20b9>@@$$QEAV<lambda_6992ecaafeb10aed2b74cb1fae11a551>@@@Z 0000000180070958     libucrt:per_thread_data.obj
 0002:0001c97c       $unwind$??$?RV<lambda_f2e299630e499de9f9a165e60fcd3db5>@@AEAV<lambda_2ae9d31cdba2644fcbeaf08da7c24588>@@V<lambda_40d01ff24d0e7b3814fdbdcee8eab3c7>@@@?$__crt_seh_guarded_call@X@@QEAAX$$QEAV<lambda_f2e299630e499de9f9a165e60fcd3db5>@@AEAV<lambda_2ae9d31cdba2644fcbeaf08da7c24588>@@$$QEAV<lambda_40d01ff24d0e7b3814fdbdcee8eab3c7>@@@Z 000000018007097c     libucrt:per_thread_data.obj
 0002:0001c9a0       $unwind$??$?RV<lambda_2d41944a1d46af3157314b8a01080d33>@@AEAV<lambda_8f455de75cd7d7f24b4096f044d8b9e6>@@V<lambda_aa500f224e6afead328df44964fe2772>@@@?$__crt_seh_guarded_call@X@@QEAAX$$QEAV<lambda_2d41944a1d46af3157314b8a01080d33>@@AEAV<lambda_8f455de75cd7d7f24b4096f044d8b9e6>@@$$QEAV<lambda_aa500f224e6afead328df44964fe2772>@@@Z 00000001800709a0     libucrt:per_thread_data.obj
 0002:0001c9c4       $unwind$_wctomb_s_l        00000001800709c4     libucrt:wctomb.obj
 0002:0001c9d4       $unwind$__acrt_fp_format   00000001800709d4     libucrt:cvt.obj
 0002:0001c9f0       $unwind$?fp_format_nan_or_infinity@@YAHW4__acrt_fp_class@@_NPEAD_K1@Z 00000001800709f0     libucrt:cvt.obj
 0002:0001ca04       $unwind$?fp_format_e_internal@@YAHQEAD_KH_NIQEAU_strflt@@2QEAU__crt_locale_pointers@@@Z 0000000180070a04     libucrt:cvt.obj
 0002:0001ca1c       $unwind$?fp_format_a@@YAHQEBNPEAD_KQEAD2H_NIQEAU__crt_locale_pointers@@@Z 0000000180070a1c     libucrt:cvt.obj
 0002:0001ca38       $unwind$?fp_format_g@@YAHQEBNQEAD_K12H_NIQEAU__crt_locale_pointers@@@Z 0000000180070a38     libucrt:cvt.obj
 0002:0001ca4c       $unwind$_fputwc_nolock     0000000180070a4c     libucrt:fputwc.obj
 0002:0001ca68       $unwind$__vcrt_uninitialize_winapi_thunks 0000000180070a68     libvcruntime:winapi_downlevel.obj
 0002:0001ca68       $unwind$__acrt_stdio_end_temporary_buffering_nolock 0000000180070a68     libucrt:_sftbuf.obj
 0002:0001ca70       $unwind$__acrt_copy_locale_name 0000000180070a70     libucrt:wsetlocale.obj
 0002:0001ca80       $unwind$_wsetlocale        0000000180070a80     libucrt:wsetlocale.obj
 0002:0001ca88       $unwind$_expandlocale      0000000180070a88     libucrt:wsetlocale.obj
 0002:0001caa8       $unwind$_wcscats           0000000180070aa8     libucrt:wsetlocale.obj
 0002:0001cab8       $unwind$_wsetlocale_set_cat 0000000180070ab8     libucrt:wsetlocale.obj
 0002:0001cadc       $unwind$_wsetlocale_nolock 0000000180070adc     libucrt:wsetlocale.obj
 0002:0001cb00       $unwind$__acrt_uninitialize_locale 0000000180070b00     libucrt:wsetlocale.obj
 0002:0001cb00       $unwind$__acrt_get_sigabrt_handler 0000000180070b00     libucrt:signal.obj
 0002:0001cb08       $unwind$??R<lambda_b163b37eafe0a13f2c371fafeb0365c9>@@QEBA@XZ 0000000180070b08     libucrt:wsetlocale.obj
 0002:0001cb14       $unwind$??$?RV<lambda_410d79af7f07d98d83a3f525b3859a53>@@AEAV<lambda_3e16ef9562a7dcce91392c22ab16ea36>@@V<lambda_38119f0e861e05405d8a144b9b982f0a>@@@?$__crt_seh_guarded_call@X@@QEAAX$$QEAV<lambda_410d79af7f07d98d83a3f525b3859a53>@@AEAV<lambda_3e16ef9562a7dcce91392c22ab16ea36>@@$$QEAV<lambda_38119f0e861e05405d8a144b9b982f0a>@@@Z 0000000180070b14     libucrt:wsetlocale.obj
 0002:0001cb3c       $unwind$??$?RV<lambda_9529fede68560d7205a1271ab16b352e>@@AEAV<lambda_ebf8c556deb379764da826e7bb46e993>@@V<lambda_db92443d3c9ace7c8a20b950bb983b5a>@@@?$__crt_seh_guarded_call@X@@QEAAX$$QEAV<lambda_9529fede68560d7205a1271ab16b352e>@@AEAV<lambda_ebf8c556deb379764da826e7bb46e993>@@$$QEAV<lambda_db92443d3c9ace7c8a20b950bb983b5a>@@@Z 0000000180070b3c     libucrt:wsetlocale.obj
 0002:0001cb60       $unwind$??$?RV<lambda_d8a01803c7231904df012bb083be9e3a>@@AEAV<lambda_b163b37eafe0a13f2c371fafeb0365c9>@@AEAV<lambda_8dff2cf36a5417162780cd64fa2883ef>@@@?$__crt_seh_guarded_call@X@@QEAAX$$QEAV<lambda_d8a01803c7231904df012bb083be9e3a>@@AEAV<lambda_b163b37eafe0a13f2c371fafeb0365c9>@@AEAV<lambda_8dff2cf36a5417162780cd64fa2883ef>@@@Z 0000000180070b60     libucrt:wsetlocale.obj
 0002:0001cb80       $unwind$__acrt_initialize_lowio 0000000180070b80     libucrt:ioinit.obj
 0002:0001cba0       $unwind$?initialize_inherited_file_handles_nolock@@YAXXZ 0000000180070ba0     libucrt:ioinit.obj
 0002:0001cbbc       $unwind$_wcstombs_s_l      0000000180070bbc     libucrt:wcstombs.obj
 0002:0001cbbc       $unwind$__std_exception_copy 0000000180070bbc     libvcruntime:std_exception.obj
 0002:0001cbbc       $unwind$?initialize_stdio_handles_nolock@@YAXXZ 0000000180070bbc     libucrt:ioinit.obj
 0002:0001cbd0       $unwind$_except1           0000000180070bd0     libucrt:fpexcept.obj
 0002:0001cbf0       $unwind$_handle_exc        0000000180070bf0     libucrt:fpexcept.obj
 0002:0001cc0c       $unwind$?_Xout_of_range@std@@YAXPEBD@Z 0000000180070c0c     libcpmt:xthrow.obj
 0002:0001cc0c       $unwind$?_Xlength_error@std@@YAXPEBD@Z 0000000180070c0c     libcpmt:xthrow.obj
 0002:0001cc0c       $unwind$?__scrt_throw_std_bad_array_new_length@@YAXXZ 0000000180070c0c     LIBCMT:throw_bad_alloc.obj
 0002:0001cc0c       $unwind$?_Xbad_alloc@std@@YAXXZ 0000000180070c0c     libcpmt:xthrow.obj
 0002:0001cc0c       $unwind$_raise_excf        0000000180070c0c     libucrt:fpexcept.obj
 0002:0001cc0c       $unwind$_raise_exc         0000000180070c0c     libucrt:fpexcept.obj
 0002:0001cc0c       $unwind$?__scrt_throw_std_bad_alloc@@YAXXZ 0000000180070c0c     LIBCMT:throw_bad_alloc.obj
 0002:0001cc14       $unwind$_umatherr          0000000180070c14     libucrt:fpexcept.obj
 0002:0001cc1c       $unwind$_raise_exc_ex      0000000180070c1c     libucrt:fpexcept.obj
 0002:0001cc30       $unwind$_ctrlfp            0000000180070c30     libucrt:fpctrl.obj
 0002:0001cc58       $unwind$?common_flush_all@@YAH_N@Z 0000000180070c58     libucrt:fflush.obj
 0002:0001cc60       $unwind$??$?RV<lambda_842d9ff0dc9ef11c61343bbaebe7f885>@@AEAV<lambda_c5860995281e5c4ce005b3de8f5874ee>@@V<lambda_d90129c13df834fdcbf8d2b88dafcf2d>@@@?$__crt_seh_guarded_call@X@@QEAAX$$QEAV<lambda_842d9ff0dc9ef11c61343bbaebe7f885>@@AEAV<lambda_c5860995281e5c4ce005b3de8f5874ee>@@$$QEAV<lambda_d90129c13df834fdcbf8d2b88dafcf2d>@@@Z 0000000180070c60     libucrt:fflush.obj
 0002:0001cc84       $unwind$??$?RV<lambda_886d6c58226a84441f68b9f2b8217b83>@@AEAV<lambda_ab61a845afdef5b7c387490eaf3616ee>@@V<lambda_f7f22ab5edc0698d5f6905b0d3f44752>@@@?$__crt_seh_guarded_call@X@@QEAAX$$QEAV<lambda_886d6c58226a84441f68b9f2b8217b83>@@AEAV<lambda_ab61a845afdef5b7c387490eaf3616ee>@@$$QEAV<lambda_f7f22ab5edc0698d5f6905b0d3f44752>@@@Z 0000000180070c84     libucrt:fflush.obj
 0002:0001ccac       $unwind$??$?RV<lambda_c376a267cfb53b6959b3b692ec76b120>@@AEAV<lambda_9a32fed5bf61b6b509b2d3f6003082a1>@@V<lambda_572fbb9fa0ab338edf41edfd4b5fcc8d>@@@?$__crt_seh_guarded_call@H@@QEAAH$$QEAV<lambda_c376a267cfb53b6959b3b692ec76b120>@@AEAV<lambda_9a32fed5bf61b6b509b2d3f6003082a1>@@$$QEAV<lambda_572fbb9fa0ab338edf41edfd4b5fcc8d>@@@Z 0000000180070cac     libucrt:fflush.obj
 0002:0001ccd0       $unwind$setvbuf            0000000180070cd0     libucrt:setvbuf.obj
 0002:0001ccd8       $unwind$??$?RV<lambda_84ec643ea9557e2f7dc01bb0e9624395>@@AEAV<lambda_ca71763b3c0644891230e4f79ea54fa6>@@V<lambda_439a761618c59b0600e24586724d733b>@@@?$__crt_seh_guarded_call@H@@QEAAH$$QEAV<lambda_84ec643ea9557e2f7dc01bb0e9624395>@@AEAV<lambda_ca71763b3c0644891230e4f79ea54fa6>@@$$QEAV<lambda_439a761618c59b0600e24586724d733b>@@@Z 0000000180070cd8     libucrt:setvbuf.obj
 0002:0001ccfc       $unwind$__acrt_initialize_winapi_thunks 0000000180070cfc     libucrt:winapi_thunks.obj
 0002:0001ccfc       $unwind$__vcrt_initialize_winapi_thunks 0000000180070cfc     libvcruntime:winapi_downlevel.obj
 0002:0001cd04       $unwind$__acrt_EnumSystemLocalesEx 0000000180070d04     libucrt:winapi_thunks.obj
 0002:0001cd14       $unwind$__acrt_LCMapStringW 0000000180070d14     libucrt:lcmapstringw.obj
 0002:0001cd14       $unwind$?fp_format_e@@YAHQEBNQEAD_K12H_NIQEAU__crt_locale_pointers@@@Z 0000000180070d14     libucrt:cvt.obj
 0002:0001cd14       $unwind$__acrt_LCMapStringEx 0000000180070d14     libucrt:winapi_thunks.obj
 0002:0001cd28       $unwind$_wcsdup            0000000180070d28     libucrt:wcsdup.obj
 0002:0001cd28       $unwind$__acrt_GetLocaleInfoEx 0000000180070d28     libucrt:winapi_thunks.obj
 0002:0001cd28       $unwind$__acrt_MessageBoxW 0000000180070d28     libucrt:winapi_thunks.obj
 0002:0001cd28       $unwind$_invalid_parameter 0000000180070d28     libucrt:invalid_parameter.obj
 0002:0001cd28       $unwind$__acrt_DownlevelLCIDToLocaleName 0000000180070d28     libucrt:lcidtoname_downlevel.obj
 0002:0001cd28       $unwind$__lc_lctowcs       0000000180070d28     libucrt:wsetlocale.obj
 0002:0001cd28       $unwind$__acrt_LCIDToLocaleName 0000000180070d28     libucrt:winapi_thunks.obj
 0002:0001cd3c       $unwind$__acrt_is_interactive 0000000180070d3c     libucrt:winapi_thunks.obj
 0002:0001cd50       $unwind$??$?RV<lambda_bd00b5aa228bd7e7e5b2b5db5fd2933b>@@AEAV<lambda_777d11615145f89ee95b9466d285deeb>@@V<lambda_6e5e48fbd24f9f8f81b203eb3d877683>@@@?$__crt_seh_guarded_call@H@@QEAAH$$QEAV<lambda_bd00b5aa228bd7e7e5b2b5db5fd2933b>@@AEAV<lambda_777d11615145f89ee95b9466d285deeb>@@$$QEAV<lambda_6e5e48fbd24f9f8f81b203eb3d877683>@@@Z 0000000180070d50     libucrt:winapi_thunks.obj
 0002:0001cd78       $unwind$_mbstowcs_s_l      0000000180070d78     libucrt:mbstowcs.obj
 0002:0001cd90       $unwind$?_mbstowcs_l_helper@@YA_KPEA_WPEBD_KPEAU__crt_locale_pointers@@@Z 0000000180070d90     libucrt:mbstowcs.obj
 0002:0001cdac       $unwind$?_wcstombs_l_helper@@YA_KPEADPEB_W_KPEAU__crt_locale_pointers@@@Z 0000000180070dac     libucrt:wcstombs.obj
 0002:0001cdcc       $unwind$_isctype_l         0000000180070dcc     libucrt:isctype.obj
 0002:0001cde8       $unwind$__acrt_GetLocaleInfoA 0000000180070de8     libucrt:getlocaleinfoa.obj
 0002:0001ce08       $unwind$?InternalGetLocaleInfoA@@YAHQEAU__crt_locale_pointers@@QEB_WKQEADH@Z 0000000180070e08     libucrt:getlocaleinfoa.obj
 0002:0001ce30       $unwind$__acrt_GetStringTypeA 0000000180070e30     libucrt:getstringtypea.obj
 0002:0001ce58       $unwind$__acrt_LCMapStringA 0000000180070e58     libucrt:lcmapstringa.obj
 0002:0001ce68       $unwind$?__acrt_LCMapStringA_stat@@YAHPEAU__crt_locale_pointers@@PEB_WKPEBDHPEADHHH@Z 0000000180070e68     libucrt:lcmapstringa.obj
 0002:0001ce90       $unwind$iswctype           0000000180070e90     libucrt:iswctype.obj
 0002:0001ce9c       $unwind$__acrt_initialize_fma3 0000000180070e9c     libucrt:fma3_available.obj
 0002:0001cea4       $unwind$_powf_special      0000000180070ea4     libucrt:pow_special.obj
 0002:0001ceb4       $unwind$_pow_special       0000000180070eb4     libucrt:pow_special.obj
 0002:0001cec0       $unwind$__dcrt_write_console_w 0000000180070ec0     libucrt:initcon.obj
 0002:0001cec0       $unwind$_wcsicmp_l         0000000180070ec0     libucrt:wcsicmp.obj
 0002:0001ced4       $unwind$??$common_expand_argv_wildcards@D@@YAHQEAPEADQEAPEAPEAD@Z 0000000180070ed4     libucrt:argv_wildcards.obj
 0002:0001ceec       $unwind$_wsetlocale_get_all 0000000180070eec     libucrt:wsetlocale.obj
 0002:0001ceec       $unwind$??$copy_and_add_argument_to_buffer@D@@YAHQEBD0_KAEAV?$argument_list@D@?A0x5f5c8891@@@Z 0000000180070eec     libucrt:argv_wildcards.obj
 0002:0001cf08       $unwind$??$expand_argument_wildcards@D@@YAHQEAD0AEAV?$argument_list@D@?A0x5f5c8891@@@Z 0000000180070f08     libucrt:argv_wildcards.obj
 0002:0001cf28       $unwind$_setmbcp_nolock    0000000180070f28     libucrt:mbctype.obj
 0002:0001cf48       $unwind$?setSBUpLow@@YAXPEAU__crt_multibyte_data@@@Z 0000000180070f48     libucrt:mbctype.obj
 0002:0001cf64       $unwind$?update_thread_multibyte_data_internal@@YAPEAU__crt_multibyte_data@@QEAU__acrt_ptd@@QEAU1@@Z 0000000180070f64     libucrt:mbctype.obj
 0002:0001cf8c       $unwind$?setmbcp_internal@@YAHH_NQEAU__acrt_ptd@@QEAPEAU__crt_multibyte_data@@@Z 0000000180070f8c     libucrt:mbctype.obj
 0002:0001cf9c       $unwind$??$?RV<lambda_efdfa57d1f175319df784efa44bb7b81>@@AEAV<lambda_5f0a4c1567f8adc6734073e5d1e1b35c>@@V<lambda_2e8a7d3640ea6ccb4c2413664c2db6fd>@@@?$__crt_seh_guarded_call@X@@QEAAX$$QEAV<lambda_efdfa57d1f175319df784efa44bb7b81>@@AEAV<lambda_5f0a4c1567f8adc6734073e5d1e1b35c>@@$$QEAV<lambda_2e8a7d3640ea6ccb4c2413664c2db6fd>@@@Z 0000000180070f9c     libucrt:mbctype.obj
 0002:0001cfc4       $unwind$?fp_format_f_internal@@YAHQEAD_KHQEAU_strflt@@_NQEAU__crt_locale_pointers@@@Z 0000000180070fc4     libucrt:cvt.obj
 0002:0001cfc4       $unwind$_wcsnicmp_l        0000000180070fc4     libucrt:wcsnicmp.obj
 0002:0001cfc4       $unwind$__dcrt_get_narrow_environment_from_os 0000000180070fc4     libucrt:get_environment_from_os.obj
 0002:0001cfdc       $unwind$__acrt_update_thread_locale_data 0000000180070fdc     libucrt:locale_refcounting.obj
 0002:0001d000       $unwind$__acrt_fltout      0000000180071000     libucrt:cfout.obj
 0002:0001d020       $unwind$??$write_buffer_nolock@D@@YA_NDV__crt_stdio_stream@@@Z 0000000180071020     libucrt:_flsbuf.obj
 0002:0001d030       $unwind$??$write_buffer_nolock@_W@@YA_N_WV__crt_stdio_stream@@@Z 0000000180071030     libucrt:_flsbuf.obj
 0002:0001d040       $unwind$_fcloseall         0000000180071040     libucrt:closeall.obj
 0002:0001d064       $unwind$__acrt_locale_free_monetary 0000000180071064     libucrt:initmon.obj
 0002:0001d06c       $unwind$?destroy_fls@@YAXPEAX@Z 000000018007106c     libucrt:per_thread_data.obj
 0002:0001d06c       $unwind$__acrt_locale_free_numeric 000000018007106c     libucrt:initnum.obj
 0002:0001d06c       $unwind$__acrt_locale_free_lc_time_if_unreferenced 000000018007106c     libucrt:locale_refcounting.obj
 0002:0001d06c       $unwind$_free_base         000000018007106c     libucrt:free_base.obj
 0002:0001d074       $unwind$__acrt_locale_free_time 0000000180071074     libucrt:inittime.obj
 0002:0001d084       $unwind$__acrt_locale_initialize_monetary 0000000180071084     libucrt:initmon.obj
 0002:0001d084       $unwind$?initialize_lc_time@@YA_NQEAU__crt_lc_time_data@@QEAU__crt_locale_data@@@Z 0000000180071084     libucrt:inittime.obj
 0002:0001d0a0       $unwind$__acrt_get_qualified_locale 00000001800710a0     libucrt:get_qualified_locale.obj
 0002:0001d0bc       $unwind$?_GetRangeOfTrysToCheck@@YAPEBU_s_TryBlockMapEntry@@PEA_KPEBU_s_FuncInfo@@HHPEAI2PEAU_xDISPATCHER_CONTEXT@@@Z 00000001800710bc     libvcruntime:risctrnsctrl.obj
 0002:0001d0bc       $unwind$??$parse_command_line@D@@YAXPEADPEAPEAD0PEA_K2@Z 00000001800710bc     libucrt:argv_parsing.obj
 0002:0001d0bc       $unwind$??R<lambda_a10e4b102d4a2c3aac6f4f48bbdf488f>@@QEBAHXZ 00000001800710bc     libucrt:onexit.obj
 0002:0001d0bc       $unwind$TranslateName      00000001800710bc     libucrt:get_qualified_locale.obj
 0002:0001d0bc       $unwind$__crtInitOnceExecuteOnce 00000001800710bc     libcpmt:winapisupp.obj
 0002:0001d0d8       $unwind$LangCountryEnumProcEx 00000001800710d8     libucrt:get_qualified_locale.obj
 0002:0001d0f8       $unwind$LanguageEnumProcEx 00000001800710f8     libucrt:get_qualified_locale.obj
 0002:0001d114       $unwind$GetLocaleNameFromDefault 0000000180071114     libucrt:get_qualified_locale.obj
 0002:0001d12c       $unwind$TestDefaultCountry 000000018007112c     libucrt:get_qualified_locale.obj
 0002:0001d140       $unwind$__acrt_get_qualified_locale_downlevel 0000000180071140     libucrt:getqloc_downlevel.obj
 0002:0001d15c       $unwind$LangCountryEnumProc 000000018007115c     libucrt:getqloc_downlevel.obj
 0002:0001d17c       $unwind$LanguageEnumProc   000000018007117c     libucrt:getqloc_downlevel.obj
 0002:0001d198       $unwind$CountryEnumProc    0000000180071198     libucrt:getqloc_downlevel.obj
 0002:0001d1b8       $unwind$_free_osfhnd       00000001800711b8     libucrt:osfinfo.obj
 0002:0001d1c8       $unwind$__acrt_lowio_destroy_handle_array 00000001800711c8     libucrt:osfinfo.obj
 0002:0001d1d8       $unwind$__acrt_lowio_ensure_fh_exists 00000001800711d8     libucrt:osfinfo.obj
 0002:0001d208       $xdatasym                  0000000180071208     libucrt:fpsr.obj
 0002:0001d210       $unwind$??$?RV<lambda_a37b2b86f63e897a80ea819b0eb08c01>@@AEAV<lambda_38ce7e780aa69e748d6df282ebc68efe>@@V<lambda_99fb1378e971ab6e7edea83e3a7a83a2>@@@?$__crt_seh_guarded_call@H@@QEAAH$$QEAV<lambda_a37b2b86f63e897a80ea819b0eb08c01>@@AEAV<lambda_38ce7e780aa69e748d6df282ebc68efe>@@$$QEAV<lambda_99fb1378e971ab6e7edea83e3a7a83a2>@@@Z 0000000180071210     libucrt:commit.obj
 0002:0001d234       $unwind$_write             0000000180071234     libucrt:write.obj
 0002:0001d264       $unwind$_write_nolock      0000000180071264     libucrt:write.obj
 0002:0001d27c       $unwind$?write_requires_double_translation_nolock@@YA_NH@Z 000000018007127c     libucrt:write.obj
 0002:0001d288       $unwind$?write_double_translated_ansi_nolock@@YA?AUwrite_result@?A0x17268360@@HQEBDI@Z 0000000180071288     libucrt:write.obj
 0002:0001d2a8       $unwind$?write_text_ansi_nolock@@YA?AUwrite_result@?A0x17268360@@HQEBDI@Z 00000001800712a8     libucrt:write.obj
 0002:0001d2a8       $unwind$?write_text_utf16le_nolock@@YA?AUwrite_result@?A0x17268360@@HQEBDI@Z 00000001800712a8     libucrt:write.obj
 0002:0001d2c8       $unwind$?write_text_utf8_nolock@@YA?AUwrite_result@?A0x17268360@@HQEBDI@Z 00000001800712c8     libucrt:write.obj
 0002:0001d2ec       $unwind$?GetTableIndexFromLocaleName@@YAHPEB_W@Z 00000001800712ec     libucrt:lcidtoname_downlevel.obj
 0002:0001d304       $unwind$__acrt_fenv_set_control 0000000180071304     libucrt:_fenvutils.obj
 0002:0001d314       $unwind$_call_matherr      0000000180071314     libucrt:libm_error.obj
 0002:0001d31c       $unwind$_handle_error      000000018007131c     libucrt:libm_error.obj
 0002:0001d31c       $unwind$_handle_errorf     000000018007131c     libucrt:libm_error.obj
 0002:0001d33c       $unwind$_towlower_l        000000018007133c     libucrt:towlower.obj
 0002:0001d344       $unwind$qsort              0000000180071344     libucrt:qsort.obj
 0002:0001d35c       $chain$4$qsort             000000018007135c     libucrt:qsort.obj
 0002:0001d380       $chain$5$qsort             0000000180071380     libucrt:qsort.obj
 0002:0001d390       $unwind$?shortsort@@YAXPEAD0_KP6AHPEBX2@Z@Z 0000000180071390     libucrt:qsort.obj
 0002:0001d3a0       $chain$2$?shortsort@@YAXPEAD0_KP6AHPEBX2@Z@Z 00000001800713a0     libucrt:qsort.obj
 0002:0001d3bc       $chain$3$?shortsort@@YAXPEAD0_KP6AHPEBX2@Z@Z 00000001800713bc     libucrt:qsort.obj
 0002:0001d3cc       $unwind$_mbsdec_l          00000001800713cc     libucrt:mbsdec.obj
 0002:0001d3d8       $xdatasym                  00000001800713d8     libucrt:log10.obj
 0002:0001d3e4       $unwind$??$common_lseek@_J@@YA_JH_JH@Z 00000001800713e4     libucrt:lseek.obj
 0002:0001d414       $unwind$fclose             0000000180071414     libucrt:fclose.obj
 0002:0001d438       $unwind$_putwch_nolock     0000000180071438     libucrt:putwch.obj
 0002:0001d440       $unwind$_log_special_common 0000000180071440     libucrt:log_special.obj
 0002:0001d44c       $unwind$_commit            000000018007144c     libucrt:commit.obj
 0002:0001d44c       $unwind$_close             000000018007144c     libucrt:close.obj
 0002:0001d454       $unwind$??$?RV<lambda_751a882b2c74d4b022dec766aa51a29a>@@AEAV<lambda_628dfdc04ba53c8bfc02c9951375f3f5>@@V<lambda_f6c7be5f7998530c34de24c7437d6b54>@@@?$__crt_seh_guarded_call@H@@QEAAH$$QEAV<lambda_751a882b2c74d4b022dec766aa51a29a>@@AEAV<lambda_628dfdc04ba53c8bfc02c9951375f3f5>@@$$QEAV<lambda_f6c7be5f7998530c34de24c7437d6b54>@@@Z 0000000180071454     libucrt:close.obj
 0002:0001d478       $unwind$?DloadMakePermanentImageCommit@@YAXPEAX_K@Z 0000000180071478     DelayImp:delayhlp.obj
 0002:0001d484       $unwind$?DloadProtectSection@@YAXKPEAK@Z 0000000180071484     DelayImp:delayhlp.obj
 0002:0001d494       $unwind$__delayLoadHelper2 0000000180071494     DelayImp:delayhlp.obj
 0002:0001d4ac       $unwind$_IsNonwritableInCurrentImage 00000001800714ac     LIBCMT:pesect.obj
 0002:0001d4d0       $unwind$strrchr            00000001800714d0     libvcruntime:strrchr.obj
 0002:0001d4d0       $unwind$wcschr             00000001800714d0     libvcruntime:wcschr.obj
 0002:0001f330       .edata                     0000000180073330     oracledb.exp
 0002:0001f358       rgpv                       0000000180073358     oracledb.exp
 0002:0001f35c       rgszName                   000000018007335c     oracledb.exp
 0002:0001f360       rgwOrd                     0000000180073360     oracledb.exp
 0002:0001f362       szName                     0000000180073362     oracledb.exp
 0002:0001f370       $N00001                    0000000180073370     oracledb.exp
 0002:0001f7dc       .idata$6                   00000001800737dc     kernel32:KERNEL32.dll
 0002:0001fb1e       .idata$6                   0000000180073b1e     oci:OCI.dll
 0003:00000000       ?init@std@@3JA             0000000180075000     libcpmt:xlock.obj
 0003:00000010       ?atcount_cdecl@@3_KA       0000000180075010     libcpmt:iosptrs.obj
 0003:000000b0       ?__vcrt_flsindex@@3KA      00000001800750b0     libvcruntime:per_thread_data.obj
 0003:00000180       ?errno_no_memory@@3HA      0000000180075180     libucrt:errno.obj
 0003:00000184       ?doserrno_no_memory@@3KA   0000000180075184     libucrt:errno.obj
 0003:00000190       ?__acrt_flsindex@@3KA      0000000180075190     libucrt:per_thread_data.obj
 0003:000002a8       _ctype_loc_style           00000001800752a8     libucrt:wsetlocale.obj
 0003:00000470       ?dazSupported@?1??_ctrlfp@@9@9 0000000180075470     libucrt:fpctrl.obj
 0003:00000480       ?tzstd_program@@3PADA      0000000180075480     libucrt:timeset.obj
 0003:000004c0       ?tzdst_program@@3PADA      00000001800754c0     libucrt:timeset.obj
 0003:00000500       ?tzname_states@@3PAY01PEADA 0000000180075500     libucrt:timeset.obj
 0003:00000510       _mbctypes                  0000000180075510     libucrt:mbctype.obj
 0003:00000620       _mbcasemaps                0000000180075620     libucrt:mbctype.obj
 0003:00000720       ?__rgctypeflag@@3PADA      0000000180075720     libucrt:mbctype.obj
 0003:00000730       ?__rgcode_page_info@@3PAUcode_page_info@@A 0000000180075730     libucrt:mbctype.obj
 0003:00000a50       ?__dcrt_lowio_console_output_handle@@3PEAXEA 0000000180075a50     libucrt:initcon.obj
 0003:00000a60       _module                    0000000180075a60     njsOracle.obj
 0003:00001120       ?initlocks@std@@3V_Init_locks@1@A 0000000180076120     libcpmt:xlock.obj
 0003:00001130       ?mtx@std@@3PAU_RTL_CRITICAL_SECTION@@A 0000000180076130     libcpmt:xlock.obj
 0003:00001270       ?_Fac_head@std@@3PEAU_Fac_node@1@EA 0000000180076270     libcpmt:locale0.obj
 0003:00001288       global_locale              0000000180076288     libcpmt:locale0.obj
 0003:000012b0       ?classic_locale@std@@3Vlocale@1@A 00000001800762b0     libcpmt:locale0.obj
 0003:000012c8       ?_Fac_tidy_reg@std@@3U_Fac_tidy_reg_t@1@B 00000001800762c8     libcpmt:locale0.obj
 0003:000012c9       ?registered@?1??_Setgloballocale@locale@std@@CAXPEAX@Z@4_NA 00000001800762c9     libcpmt:locale0.obj
 0003:000012e0       ?stdstr@std@@3PAPEAVios_base@1@A 00000001800762e0     libcpmt:ios.obj
 0003:00001330       ?stdopens@std@@3PADA       0000000180076330     libcpmt:ios.obj
 0003:000014d0       ?atfuns_cdecl@@3PAP6AXXZA  00000001800764d0     libcpmt:iosptrs.obj
 0003:00001520       ?initlocks@std@@3V_Init_locks@1@A 0000000180076520     libcpmt:iosptrs.obj
 0003:00001521       ?init_atexit@@3U_Init_atexit@@A 0000000180076521     libcpmt:iosptrs.obj
 0003:00001628       ?_Tss_mutex@@3U_RTL_CRITICAL_SECTION@@A 0000000180076628     LIBCMT:thread_safe_statics.obj
 0003:00001650       ?_Tss_cv@@3U_RTL_CONDITION_VARIABLE@@A 0000000180076650     LIBCMT:thread_safe_statics.obj
 0003:00001658       ?_Tss_event@@3PEAXEA       0000000180076658     LIBCMT:thread_safe_statics.obj
 0003:00001660       ?encoded_sleep_condition_variable_cs@@3P6AHPEAU_RTL_CONDITION_VARIABLE@@PEAU_RTL_CRITICAL_SECTION@@K@ZEA 0000000180076660     LIBCMT:thread_safe_statics.obj
 0003:00001668       ?encoded_wake_all_condition_variable@@3P6AXPEAU_RTL_CONDITION_VARIABLE@@@ZEA 0000000180076668     LIBCMT:thread_safe_statics.obj
 0003:00001674       ?module_local_atexit_table_initialized@@3_NA 0000000180076674     LIBCMT:utility.obj
 0003:00001680       ?module_local_atexit_table@@3U_onexit_table_t@@A 0000000180076680     LIBCMT:utility.obj
 0003:00001698       ?module_local_at_quick_exit_table@@3U_onexit_table_t@@A 0000000180076698     LIBCMT:utility.obj
 0003:000016b0       ?is_initialized_as_dll@@3_NA 00000001800766b0     LIBCMT:utility.obj
 0003:000016c0       GS_ExceptionRecord         00000001800766c0     LIBCMT:gs_report.obj
 0003:00001760       GS_ContextRecord           0000000180076760     LIBCMT:gs_report.obj
 0003:00001c30       ?__proc_attached@@3HA      0000000180076c30     LIBCMT:dll_dllmain.obj
 0003:00001c60       ?module_handles@@3PAPEAUHINSTANCE__@@A 0000000180076c60     libvcruntime:winapi_downlevel.obj
 0003:00001c78       ?encoded_function_pointers@@3PAPEAXA 0000000180076c78     libvcruntime:winapi_downlevel.obj
 0003:00001ca0       ?__vcrt_startup_thread_ptd@@3U__vcrt_ptd@@A 0000000180076ca0     libvcruntime:per_thread_data.obj
 0003:00001d20       __vcrt_lock_table          0000000180076d20     libvcruntime:locks.obj
 0003:00001d48       __vcrt_locks_initialized   0000000180076d48     libvcruntime:locks.obj
 0003:00001d98       ?heap@@3V_HeapManager@@A   0000000180076d98     libvcruntime:undname.obj
 0003:00001dc0       ?__acrt_invalid_parameter_handler@@3V?$dual_state_global@P6AXPEB_W00I_K@Z@__crt_state_management@@A 0000000180076dc0     libucrt:invalid_parameter.obj
 0003:00001dd0       ?__acrt_lock_table@@3PAU_RTL_CRITICAL_SECTION@@A 0000000180076dd0     libucrt:locks.obj
 0003:00002000       ?__acrt_locks_initialized@@3IA 0000000180077000     libucrt:locks.obj
 0003:00002008       ?__acrt_new_handler@@3V?$dual_state_global@P6AH_K@Z@__crt_state_management@@A 0000000180077008     libucrt:new_handler.obj
 0003:00002010       ?c_termination_complete@@3JA 0000000180077010     libucrt:exit.obj
 0003:00002018       ?thread_local_exit_callback_func@@3P6AXPEAXK0@ZEA 0000000180077018     libucrt:exit.obj
 0003:00002030       ?program_name@?1???$common_configure_argv@D@@YAHW4_crt_argv_mode@@@Z@4PADA 0000000180077030     libucrt:argv_parsing.obj
 0003:00002188       ?ctrlc_action@@3V?$dual_state_global@P6AXH@Z@__crt_state_management@@A 0000000180077188     libucrt:signal.obj
 0003:00002190       ?ctrlbreak_action@@3V?$dual_state_global@P6AXH@Z@__crt_state_management@@A 0000000180077190     libucrt:signal.obj
 0003:00002198       ?abort_action@@3V?$dual_state_global@P6AXH@Z@__crt_state_management@@A 0000000180077198     libucrt:signal.obj
 0003:000021a0       ?term_action@@3V?$dual_state_global@P6AXH@Z@__crt_state_management@@A 00000001800771a0     libucrt:signal.obj
 0003:000021c0       ?enable_percent_n@@3_KA    00000001800771c0     libucrt:printf_count_output.obj
 0003:000025f4       ?__acrt_app_type@@3W4_crt_app_type@@A 00000001800775f4     libucrt:report_runtime_error.obj
 0003:000025f8       __acrt_error_mode          00000001800775f8     libucrt:set_error_mode.obj
 0003:00002600       ?module_handles@@3PAPEAUHINSTANCE__@@A 0000000180077600     libucrt:winapi_thunks.obj
 0003:000026a0       ?encoded_function_pointers@@3PAPEAXA 00000001800776a0     libucrt:winapi_thunks.obj
 0003:000027b0       ?static_enum_proc@?1??enum_system_locales_ex_nolock@@YAHQ6AHPEA_WK_J@Z@Z@4P6AH0K1@ZEA 00000001800777b0     libucrt:winapi_thunks.obj
 0003:000027b8       ?__acrt_global_new_mode@@3V?$dual_state_global@J@__crt_state_management@@A 00000001800777b8     libucrt:new_mode.obj
 0003:000027e0       ?_tzname@@3V?$dual_state_global@PEAPEAD@__crt_state_management@@A 00000001800777e0     libucrt:timeset.obj
 0003:000027f0       ?tz_api_used@@3HA          00000001800777f0     libucrt:tzset.obj
 0003:00002800       ?tz_info@@3U_TIME_ZONE_INFORMATION@@A 0000000180077800     libucrt:tzset.obj
 0003:000028ac       ?state_cache@?1???$get_cached_win_policy@Udeveloper_information_policy_properties@?1??__acrt_get_developer_information_policy@@YA?AW4developer_information_policy@@XZ@@@YA?AW4developer_information_policy@@W4AppPolicyShowDeveloperDiagnostic@@@Z@4JA 00000001800778ac     libucrt:win_policies.obj
 0003:000028b0       ?state_cache@?1???$get_cached_win_policy@Uwindowing_model_policy_properties@?1??__acrt_get_windowing_model_policy@@YA?AW4windowing_model_policy@@XZ@@@YA?AW4windowing_model_policy@@W4AppPolicyWindowingModel@@@Z@4JA 00000001800778b0     libucrt:win_policies.obj
 0003:000028d0       ?fSystemSet@@3HA           00000001800778d0     libucrt:mbctype.obj
 0003:000028d4       ?initialized@?1??__acrt_initialize_multibyte@@9@4_NA 00000001800778d4     libucrt:mbctype.obj
 0003:00002908       ?user_matherr@@3V?$dual_state_global@P6AHPEAU_exception@@@Z@__crt_state_management@@A 0000000180077908     libucrt:matherr.obj
 0004:00000000       $pdata$??__E?s_propPingName_@ConnImpl@@0V?$basic_string@DU?$char_traits@D@std@@V?$allocator@D@2@@std@@A@@YAXXZ 0000000180078000     dpiConnImpl.obj
 0004:0000000c       $pdata$??__Einitlocks@std@@YAXXZ 000000018007800c     libcpmt:xlock.obj
 0004:00000018       $pdata$??__Einitlocks@std@@YAXXZ 0000000180078018     libcpmt:iosptrs.obj
 0004:00000024       $pdata$sprintf_s           0000000180078024     njsOracle.obj
 0004:00000030       $pdata$?_Raise@exception@stdext@@QEBAXXZ 0000000180078030     njsOracle.obj
 0004:0000003c       $pdata$??_Gexception@stdext@@UEAAPEAXI@Z 000000018007803c     njsOracle.obj
 0004:0000003c       $pdata$??_GException@dpi@@UEAAPEAXI@Z 000000018007803c     dpiEnvImpl.obj
 0004:0000003c       $pdata$??_Gruntime_error@std@@UEAAPEAXI@Z 000000018007803c     njsOracle.obj
 0004:00000048       $pdata$??0_Locinfo@std@@QEAA@PEBD@Z 0000000180078048     njsOracle.obj
 0004:00000054       $pdata$??1_Locinfo@std@@QEAA@XZ 0000000180078054     njsOracle.obj
 0004:00000060       $pdata$??_G_Facet_base@std@@UEAAPEAXI@Z 0000000180078060     njsOracle.obj
 0004:0000006c       $pdata$??1locale@std@@QEAA@XZ 000000018007806c     njsOracle.obj
 0004:00000078       $pdata$?do_tolower@?$ctype@D@std@@MEBAPEBDPEADPEBD@Z 0000000180078078     njsOracle.obj
 0004:00000084       $pdata$0$?do_tolower@?$ctype@D@std@@MEBAPEBDPEADPEBD@Z 0000000180078084     njsOracle.obj
 0004:00000090       $pdata$1$?do_tolower@?$ctype@D@std@@MEBAPEBDPEADPEBD@Z 0000000180078090     njsOracle.obj
 0004:0000009c       $pdata$?do_toupper@?$ctype@D@std@@MEBAPEBDPEADPEBD@Z 000000018007809c     njsOracle.obj
 0004:000000a8       $pdata$0$?do_toupper@?$ctype@D@std@@MEBAPEBDPEADPEBD@Z 00000001800780a8     njsOracle.obj
 0004:000000b4       $pdata$1$?do_toupper@?$ctype@D@std@@MEBAPEBDPEADPEBD@Z 00000001800780b4     njsOracle.obj
 0004:000000c0       $pdata$?do_widen@?$ctype@D@std@@MEBAPEBDPEBD0PEAD@Z 00000001800780c0     njsOracle.obj
 0004:000000cc       $pdata$?do_narrow@?$ctype@D@std@@MEBAPEBDPEBD0DPEAD@Z 00000001800780cc     njsOracle.obj
 0004:000000d8       $pdata$??_G?$ctype@D@std@@MEAAPEAXI@Z 00000001800780d8     njsOracle.obj
 0004:000000e4       $pdata$?equivalent@error_category@std@@UEBA_NHAEBVerror_condition@2@@Z 00000001800780e4     njsOracle.obj
 0004:000000f0       $pdata$?make_error_code@std@@YA?AVerror_code@1@W4io_errc@1@@Z 00000001800780f0     njsOracle.obj
 0004:000000fc       $pdata$?_Makestr@_System_error@std@@CA?AV?$basic_string@DU?$char_traits@D@std@@V?$allocator@D@2@@2@Verror_code@2@V32@@Z 00000001800780fc     njsOracle.obj
 0004:00000108       $pdata$??_G_System_error@std@@UEAAPEAXI@Z 0000000180078108     njsOracle.obj
 0004:00000108       $pdata$??_Gfailure@ios_base@std@@UEAAPEAXI@Z 0000000180078108     njsOracle.obj
 0004:00000114       $pdata$?message@_Iostream_error_category@std@@UEBA?AV?$basic_string@DU?$char_traits@D@std@@V?$allocator@D@2@@2@H@Z 0000000180078114     njsOracle.obj
 0004:00000120       $pdata$??_G_Iostream_error_category@std@@UEAAPEAXI@Z 0000000180078120     njsOracle.obj
 0004:0000012c       $pdata$??0failure@ios_base@std@@QEAA@PEBDAEBVerror_code@2@@Z 000000018007812c     njsOracle.obj
 0004:00000138       $pdata$?_Doraise@failure@ios_base@std@@MEBAXXZ 0000000180078138     njsOracle.obj
 0004:00000144       $pdata$?clear@ios_base@std@@QEAAXH_N@Z 0000000180078144     njsOracle.obj
 0004:00000150       $pdata$??_Gios_base@std@@UEAAPEAXI@Z 0000000180078150     njsOracle.obj
 0004:0000015c       $pdata$?FunctionCallbackWrapper@imp@Nan@@YAXAEBV?$FunctionCallbackInfo@VValue@v8@@@v8@@@Z 000000018007815c     njsOracle.obj
 0004:00000168       $pdata$?GetterCallbackWrapper@imp@Nan@@YAXV?$Local@VName@v8@@@v8@@AEBV?$PropertyCallbackInfo@VValue@v8@@@4@@Z 0000000180078168     njsOracle.obj
 0004:00000174       $pdata$?SetterCallbackWrapper@imp@Nan@@YAXV?$Local@VName@v8@@@v8@@V?$Local@VValue@v8@@@4@AEBV?$PropertyCallbackInfo@X@4@@Z 0000000180078174     njsOracle.obj
 0004:00000180       $pdata$?New@?$Factory@VFunctionTemplate@v8@@@imp@Nan@@SA?AV?$Local@VFunctionTemplate@v8@@@v8@@P6AXAEBV?$FunctionCallbackInfo@VValue@v8@@@3@@ZV?$Local@VValue@v8@@@5@V?$Local@VSignature@v8@@@5@@Z 0000000180078180     njsOracle.obj
 0004:0000018c       $pdata$?ThrowError@Nan@@YAXPEBD@Z 000000018007818c     njsOracle.obj
 0004:00000198       $pdata$??1?$Persistent@VFunction@v8@@V?$NonCopyablePersistentTraits@VFunction@v8@@@2@@Nan@@QEAA@XZ 0000000180078198     njsOracle.obj
 0004:00000198       $pdata$??1?$Persistent@VObject@v8@@V?$NonCopyablePersistentTraits@VObject@v8@@@2@@Nan@@QEAA@XZ 0000000180078198     njsOracle.obj
 0004:000001a4       $pdata$?SetPrototypeMethod@Nan@@YAXV?$Local@VFunctionTemplate@v8@@@v8@@PEBDP6AXAEBV?$FunctionCallbackInfo@VValue@v8@@@1@@Z@Z 00000001800781a4     njsOracle.obj
 0004:000001b0       $pdata$?SetAccessor@Nan@@YAXV?$Local@VObjectTemplate@v8@@@v8@@V?$Local@VString@v8@@@3@P6AX1AEBV?$PropertyCallbackInfo@VValue@v8@@@1@@ZP6AX1V?$Local@VValue@v8@@@3@AEBV?$PropertyCallbackInfo@X@1@@Z4W4AccessControl@3@W4PropertyAttribute@3@V?$Local@VAccessorSignature@v8@@@3@@Z 00000001800781b0     njsOracle.obj
 0004:000001bc       $pdata$??1ObjectWrap@Nan@@UEAA@XZ 00000001800781bc     njsOracle.obj
 0004:000001c8       $pdata$?Wrap@ObjectWrap@Nan@@IEAAXV?$Local@VObject@v8@@@v8@@@Z 00000001800781c8     njsOracle.obj
 0004:000001d4       $pdata$?Ref@ObjectWrap@Nan@@MEAAXXZ 00000001800781d4     njsOracle.obj
 0004:000001e0       $pdata$?Unref@ObjectWrap@Nan@@MEAAXXZ 00000001800781e0     njsOracle.obj
 0004:000001ec       $pdata$?WeakCallback@ObjectWrap@Nan@@CAXAEBV?$WeakCallbackInfo@VObjectWrap@Nan@@@v8@@@Z 00000001800781ec     njsOracle.obj
 0004:000001f8       $pdata$??_GObjectWrap@Nan@@UEAAPEAXI@Z 00000001800781f8     njsOracle.obj
 0004:00000204       $pdata$??0connectionBaton@@QEAA@V?$Local@VFunction@v8@@@v8@@V?$Local@VObject@v8@@@2@@Z 0000000180078204     njsOracle.obj
 0004:00000210       $pdata$??1connectionBaton@@QEAA@XZ 0000000180078210     njsOracle.obj
 0004:0000021c       $pdata$??0Oracledb@@AEAA@XZ 000000018007821c     njsOracle.obj
 0004:00000228       $pdata$??_GOracledb@@EEAAPEAXI@Z 0000000180078228     njsOracle.obj
 0004:00000234       $pdata$??1Oracledb@@EEAA@XZ 0000000180078234     njsOracle.obj
 0004:00000240       $pdata$??_D?$basic_stringstream@DU?$char_traits@D@std@@V?$allocator@D@2@@std@@QEAAXXZ 0000000180078240     njsOracle.obj
 0004:0000024c       $pdata$?Init@Oracledb@@SAXV?$Local@VObject@v8@@@v8@@@Z 000000018007824c     njsOracle.obj
 0004:00000258       $pdata$?New@Oracledb@@CAXAEBV?$FunctionCallbackInfo@VValue@v8@@@Nan@@@Z 0000000180078258     njsOracle.obj
 0004:00000264       $pdata$?GetPoolMin@Oracledb@@CAXV?$Local@VString@v8@@@v8@@AEBV?$PropertyCallbackInfo@VValue@v8@@@Nan@@@Z 0000000180078264     njsOracle.obj
 0004:00000270       $pdata$?SetPoolMin@Oracledb@@CAXV?$Local@VString@v8@@@v8@@V?$Local@VValue@v8@@@3@AEBV?$PropertyCallbackInfo@X@Nan@@@Z 0000000180078270     njsOracle.obj
 0004:0000027c       $pdata$?GetPoolMax@Oracledb@@CAXV?$Local@VString@v8@@@v8@@AEBV?$PropertyCallbackInfo@VValue@v8@@@Nan@@@Z 000000018007827c     njsOracle.obj
 0004:00000288       $pdata$?SetPoolMax@Oracledb@@CAXV?$Local@VString@v8@@@v8@@V?$Local@VValue@v8@@@3@AEBV?$PropertyCallbackInfo@X@Nan@@@Z 0000000180078288     njsOracle.obj
 0004:00000294       $pdata$?GetPoolIncrement@Oracledb@@CAXV?$Local@VString@v8@@@v8@@AEBV?$PropertyCallbackInfo@VValue@v8@@@Nan@@@Z 0000000180078294     njsOracle.obj
 0004:000002a0       $pdata$?SetPoolIncrement@Oracledb@@CAXV?$Local@VString@v8@@@v8@@V?$Local@VValue@v8@@@3@AEBV?$PropertyCallbackInfo@X@Nan@@@Z 00000001800782a0     njsOracle.obj
 0004:000002ac       $pdata$?GetPoolTimeout@Oracledb@@CAXV?$Local@VString@v8@@@v8@@AEBV?$PropertyCallbackInfo@VValue@v8@@@Nan@@@Z 00000001800782ac     njsOracle.obj
 0004:000002b8       $pdata$?SetPoolTimeout@Oracledb@@CAXV?$Local@VString@v8@@@v8@@V?$Local@VValue@v8@@@3@AEBV?$PropertyCallbackInfo@X@Nan@@@Z 00000001800782b8     njsOracle.obj
 0004:000002c4       $pdata$?GetMaxRows@Oracledb@@CAXV?$Local@VString@v8@@@v8@@AEBV?$PropertyCallbackInfo@VValue@v8@@@Nan@@@Z 00000001800782c4     njsOracle.obj
 0004:000002d0       $pdata$?SetMaxRows@Oracledb@@CAXV?$Local@VString@v8@@@v8@@V?$Local@VValue@v8@@@3@AEBV?$PropertyCallbackInfo@X@Nan@@@Z 00000001800782d0     njsOracle.obj
 0004:000002dc       $pdata$?GetOutFormat@Oracledb@@CAXV?$Local@VString@v8@@@v8@@AEBV?$PropertyCallbackInfo@VValue@v8@@@Nan@@@Z 00000001800782dc     njsOracle.obj
 0004:000002e8       $pdata$?SetOutFormat@Oracledb@@CAXV?$Local@VString@v8@@@v8@@V?$Local@VValue@v8@@@3@AEBV?$PropertyCallbackInfo@X@Nan@@@Z 00000001800782e8     njsOracle.obj
 0004:000002f4       $pdata$?GetStmtCacheSize@Oracledb@@CAXV?$Local@VString@v8@@@v8@@AEBV?$PropertyCallbackInfo@VValue@v8@@@Nan@@@Z 00000001800782f4     njsOracle.obj
 0004:00000300       $pdata$?SetStmtCacheSize@Oracledb@@CAXV?$Local@VString@v8@@@v8@@V?$Local@VValue@v8@@@3@AEBV?$PropertyCallbackInfo@X@Nan@@@Z 0000000180078300     njsOracle.obj
 0004:0000030c       $pdata$?GetPrefetchRows@Oracledb@@CAXV?$Local@VString@v8@@@v8@@AEBV?$PropertyCallbackInfo@VValue@v8@@@Nan@@@Z 000000018007830c     njsOracle.obj
 0004:00000318       $pdata$?SetPrefetchRows@Oracledb@@CAXV?$Local@VString@v8@@@v8@@V?$Local@VValue@v8@@@3@AEBV?$PropertyCallbackInfo@X@Nan@@@Z 0000000180078318     njsOracle.obj
 0004:00000324       $pdata$?GetAutoCommit@Oracledb@@CAXV?$Local@VString@v8@@@v8@@AEBV?$PropertyCallbackInfo@VValue@v8@@@Nan@@@Z 0000000180078324     njsOracle.obj
 0004:00000330       $pdata$?SetAutoCommit@Oracledb@@CAXV?$Local@VString@v8@@@v8@@V?$Local@VValue@v8@@@3@AEBV?$PropertyCallbackInfo@X@Nan@@@Z 0000000180078330     njsOracle.obj
 0004:0000033c       $pdata$?GetExtendedMetaData@Oracledb@@CAXV?$Local@VString@v8@@@v8@@AEBV?$PropertyCallbackInfo@VValue@v8@@@Nan@@@Z 000000018007833c     njsOracle.obj
 0004:00000348       $pdata$?SetExtendedMetaData@Oracledb@@CAXV?$Local@VString@v8@@@v8@@V?$Local@VValue@v8@@@3@AEBV?$PropertyCallbackInfo@X@Nan@@@Z 0000000180078348     njsOracle.obj
 0004:00000354       $pdata$?SetVersion@Oracledb@@CAXV?$Local@VString@v8@@@v8@@V?$Local@VValue@v8@@@3@AEBV?$PropertyCallbackInfo@X@Nan@@@Z 0000000180078354     njsOracle.obj
 0004:00000360       $pdata$?GetConnectionClass@Oracledb@@CAXV?$Local@VString@v8@@@v8@@AEBV?$PropertyCallbackInfo@VValue@v8@@@Nan@@@Z 0000000180078360     njsOracle.obj
 0004:0000036c       $pdata$?SetConnectionClass@Oracledb@@CAXV?$Local@VString@v8@@@v8@@V?$Local@VValue@v8@@@3@AEBV?$PropertyCallbackInfo@X@Nan@@@Z 000000018007836c     njsOracle.obj
 0004:00000378       $pdata$?GetExternalAuth@Oracledb@@CAXV?$Local@VString@v8@@@v8@@AEBV?$PropertyCallbackInfo@VValue@v8@@@Nan@@@Z 0000000180078378     njsOracle.obj
 0004:00000384       $pdata$?SetExternalAuth@Oracledb@@CAXV?$Local@VString@v8@@@v8@@V?$Local@VValue@v8@@@3@AEBV?$PropertyCallbackInfo@X@Nan@@@Z 0000000180078384     njsOracle.obj
 0004:00000390       $pdata$?GetLobPrefetchSize@Oracledb@@CAXV?$Local@VString@v8@@@v8@@AEBV?$PropertyCallbackInfo@VValue@v8@@@Nan@@@Z 0000000180078390     njsOracle.obj
 0004:0000039c       $pdata$?SetLobPrefetchSize@Oracledb@@CAXV?$Local@VString@v8@@@v8@@V?$Local@VValue@v8@@@3@AEBV?$PropertyCallbackInfo@X@Nan@@@Z 000000018007839c     njsOracle.obj
 0004:000003a8       $pdata$?GetFetchAsString@Oracledb@@CAXV?$Local@VString@v8@@@v8@@AEBV?$PropertyCallbackInfo@VValue@v8@@@Nan@@@Z 00000001800783a8     njsOracle.obj
 0004:000003b4       $pdata$?SetFetchAsString@Oracledb@@CAXV?$Local@VString@v8@@@v8@@V?$Local@VValue@v8@@@3@AEBV?$PropertyCallbackInfo@X@Nan@@@Z 00000001800783b4     njsOracle.obj
 0004:000003c0       $pdata$?GetFetchAsBuffer@Oracledb@@CAXV?$Local@VString@v8@@@v8@@AEBV?$PropertyCallbackInfo@VValue@v8@@@Nan@@@Z 00000001800783c0     njsOracle.obj
 0004:000003cc       $pdata$?SetFetchAsBuffer@Oracledb@@CAXV?$Local@VString@v8@@@v8@@V?$Local@VValue@v8@@@3@AEBV?$PropertyCallbackInfo@X@Nan@@@Z 00000001800783cc     njsOracle.obj
 0004:000003d8       $pdata$?GetOracleClientVersion@Oracledb@@CAXV?$Local@VString@v8@@@v8@@AEBV?$PropertyCallbackInfo@VValue@v8@@@Nan@@@Z 00000001800783d8     njsOracle.obj
 0004:000003e4       $pdata$?SetOracleClientVersion@Oracledb@@CAXV?$Local@VString@v8@@@v8@@V?$Local@VValue@v8@@@3@AEBV?$PropertyCallbackInfo@X@Nan@@@Z 00000001800783e4     njsOracle.obj
 0004:000003f0       $pdata$?GetPoolPingInterval@Oracledb@@CAXV?$Local@VString@v8@@@v8@@AEBV?$PropertyCallbackInfo@VValue@v8@@@Nan@@@Z 00000001800783f0     njsOracle.obj
 0004:000003fc       $pdata$?SetPoolPingInterval@Oracledb@@CAXV?$Local@VString@v8@@@v8@@V?$Local@VValue@v8@@@3@AEBV?$PropertyCallbackInfo@X@Nan@@@Z 00000001800783fc     njsOracle.obj
 0004:00000408       $pdata$?GetConnection@Oracledb@@CAXAEBV?$FunctionCallbackInfo@VValue@v8@@@Nan@@@Z 0000000180078408     njsOracle.obj
 0004:00000414       $pdata$??_GconnectionBaton@@QEAAPEAXI@Z 0000000180078414     njsOracle.obj
 0004:00000420       $pdata$?Async_GetConnection@Oracledb@@CAXPEAUuv_work_s@@@Z 0000000180078420     njsOracle.obj
 0004:0000042c       $pdata$?Async_AfterGetConnection@Oracledb@@CAXPEAUuv_work_s@@@Z 000000018007842c     njsOracle.obj
 0004:00000438       $pdata$?CreatePool@Oracledb@@CAXAEBV?$FunctionCallbackInfo@VValue@v8@@@Nan@@@Z 0000000180078438     njsOracle.obj
 0004:00000444       $pdata$?Async_CreatePool@Oracledb@@CAXPEAUuv_work_s@@@Z 0000000180078444     njsOracle.obj
 0004:00000450       $pdata$?Async_AfterCreatePool@Oracledb@@CAXPEAUuv_work_s@@@Z 0000000180078450     njsOracle.obj
 0004:0000045c       $pdata$init                000000018007845c     njsOracle.obj
 0004:00000468       $pdata$??1?$_Yarn@D@std@@QEAA@XZ 0000000180078468     njsOracle.obj
 0004:00000468       $pdata$??1?$_Yarn@_W@std@@QEAA@XZ 0000000180078468     njsOracle.obj
 0004:00000474       $pdata$??1fetchInfo@@QEAA@XZ 0000000180078474     njsConnection.obj
 0004:00000474       $pdata$??1?$basic_string@DU?$char_traits@D@std@@V?$allocator@D@2@@std@@QEAA@XZ 0000000180078474     njsOracle.obj
 0004:00000474       $pdata$??1MetaInfo@@QEAA@XZ 0000000180078474     njsConnection.obj
 0004:00000474       $pdata$?_Tidy_deallocate@?$basic_string@DU?$char_traits@D@std@@V?$allocator@D@2@@std@@QEAAXXZ 0000000180078474     njsOracle.obj
 0004:00000480       $pdata$??4?$basic_string@DU?$char_traits@D@std@@V?$allocator@D@2@@std@@QEAAAEAV01@$$QEAV01@@Z 0000000180078480     njsOracle.obj
 0004:0000048c       $pdata$??0?$basic_string@DU?$char_traits@D@std@@V?$allocator@D@2@@std@@QEAA@QEBD@Z 000000018007848c     njsOracle.obj
 0004:00000498       $pdata$??0?$basic_string@DU?$char_traits@D@std@@V?$allocator@D@2@@std@@QEAA@AEBV01@@Z 0000000180078498     njsOracle.obj
 0004:000004a4       $pdata$??0?$basic_stringstream@DU?$char_traits@D@std@@V?$allocator@D@2@@std@@QEAA@H@Z 00000001800784a4     njsOracle.obj
 0004:000004b0       $pdata$?seekpos@?$basic_stringbuf@DU?$char_traits@D@std@@V?$allocator@D@2@@std@@MEAA?AV?$fpos@U_Mbstatet@@@2@V32@H@Z 00000001800784b0     njsOracle.obj
 0004:000004bc       $pdata$?seekoff@?$basic_stringbuf@DU?$char_traits@D@std@@V?$allocator@D@2@@std@@MEAA?AV?$fpos@U_Mbstatet@@@2@_JHH@Z 00000001800784bc     njsOracle.obj
 0004:000004c8       $pdata$?overflow@?$basic_stringbuf@DU?$char_traits@D@std@@V?$allocator@D@2@@std@@MEAAHH@Z 00000001800784c8     njsOracle.obj
 0004:000004d4       $pdata$0$?overflow@?$basic_stringbuf@DU?$char_traits@D@std@@V?$allocator@D@2@@std@@MEAAHH@Z 00000001800784d4     njsOracle.obj
 0004:000004e0       $pdata$6$?overflow@?$basic_stringbuf@DU?$char_traits@D@std@@V?$allocator@D@2@@std@@MEAAHH@Z 00000001800784e0     njsOracle.obj
 0004:000004ec       $pdata$7$?overflow@?$basic_stringbuf@DU?$char_traits@D@std@@V?$allocator@D@2@@std@@MEAAHH@Z 00000001800784ec     njsOracle.obj
 0004:000004f8       $pdata$2$?overflow@?$basic_stringbuf@DU?$char_traits@D@std@@V?$allocator@D@2@@std@@MEAAHH@Z 00000001800784f8     njsOracle.obj
 0004:00000504       $pdata$??1?$basic_stringbuf@DU?$char_traits@D@std@@V?$allocator@D@2@@std@@UEAA@XZ 0000000180078504     njsOracle.obj
 0004:00000510       $pdata$??6?$basic_ostream@DU?$char_traits@D@std@@@std@@QEAAAEAV01@H@Z 0000000180078510     njsOracle.obj
 0004:0000051c       $pdata$?xsputn@?$basic_streambuf@DU?$char_traits@D@std@@@std@@MEAA_JPEBD_J@Z 000000018007851c     njsOracle.obj
 0004:00000528       $pdata$0$?xsputn@?$basic_streambuf@DU?$char_traits@D@std@@@std@@MEAA_JPEBD_J@Z 0000000180078528     njsOracle.obj
 0004:00000534       $pdata$1$?xsputn@?$basic_streambuf@DU?$char_traits@D@std@@@std@@MEAA_JPEBD_J@Z 0000000180078534     njsOracle.obj
 0004:00000540       $pdata$?xsgetn@?$basic_streambuf@DU?$char_traits@D@std@@@std@@MEAA_JPEAD_J@Z 0000000180078540     njsOracle.obj
 0004:0000054c       $pdata$1$?xsgetn@?$basic_streambuf@DU?$char_traits@D@std@@@std@@MEAA_JPEAD_J@Z 000000018007854c     njsOracle.obj
 0004:00000558       $pdata$2$?xsgetn@?$basic_streambuf@DU?$char_traits@D@std@@@std@@MEAA_JPEAD_J@Z 0000000180078558     njsOracle.obj
 0004:00000564       $pdata$3$?xsgetn@?$basic_streambuf@DU?$char_traits@D@std@@@std@@MEAA_JPEAD_J@Z 0000000180078564     njsOracle.obj
 0004:00000570       $pdata$?uflow@?$basic_streambuf@DU?$char_traits@D@std@@@std@@MEAAHXZ 0000000180078570     njsOracle.obj
 0004:0000057c       $pdata$??1?$basic_streambuf@DU?$char_traits@D@std@@@std@@UEAA@XZ 000000018007857c     njsOracle.obj
 0004:00000588       $pdata$??_G?$basic_stringstream@DU?$char_traits@D@std@@V?$allocator@D@2@@std@@UEAAPEAXI@Z 0000000180078588     njsOracle.obj
 0004:00000594       $pdata$??_G?$basic_stringbuf@DU?$char_traits@D@std@@V?$allocator@D@2@@std@@UEAAPEAXI@Z 0000000180078594     njsOracle.obj
 0004:000005a0       $pdata$??_G?$basic_iostream@DU?$char_traits@D@std@@@std@@UEAAPEAXI@Z 00000001800785a0     njsOracle.obj
 0004:000005ac       $pdata$??_G?$basic_ostream@DU?$char_traits@D@std@@@std@@UEAAPEAXI@Z 00000001800785ac     njsOracle.obj
 0004:000005b8       $pdata$??_G?$basic_istream@DU?$char_traits@D@std@@@std@@UEAAPEAXI@Z 00000001800785b8     njsOracle.obj
 0004:000005c4       $pdata$??_G?$basic_streambuf@DU?$char_traits@D@std@@@std@@UEAAPEAXI@Z 00000001800785c4     njsOracle.obj
 0004:000005d0       $pdata$??_Glocale@std@@QEAAPEAXI@Z 00000001800785d0     njsOracle.obj
 0004:000005dc       $pdata$??_G?$basic_ios@DU?$char_traits@D@std@@@std@@UEAAPEAXI@Z 00000001800785dc     njsOracle.obj
 0004:000005e8       $pdata$??1sentry@?$basic_ostream@DU?$char_traits@D@std@@@std@@QEAA@XZ 00000001800785e8     njsOracle.obj
 0004:000005f4       $pdata$??0sentry@?$basic_ostream@DU?$char_traits@D@std@@@std@@QEAA@AEAV12@@Z 00000001800785f4     njsOracle.obj
 0004:00000600       $pdata$?do_put@?$num_put@DV?$ostreambuf_iterator@DU?$char_traits@D@std@@@std@@@std@@MEBA?AV?$ostreambuf_iterator@DU?$char_traits@D@std@@@2@V32@AEAVios_base@2@DPEBX@Z 0000000180078600     njsOracle.obj
 0004:0000060c       $pdata$?do_put@?$num_put@DV?$ostreambuf_iterator@DU?$char_traits@D@std@@@std@@@std@@MEBA?AV?$ostreambuf_iterator@DU?$char_traits@D@std@@@2@V32@AEAVios_base@2@DO@Z 000000018007860c     njsOracle.obj
 0004:00000618       $pdata$?do_put@?$num_put@DV?$ostreambuf_iterator@DU?$char_traits@D@std@@@std@@@std@@MEBA?AV?$ostreambuf_iterator@DU?$char_traits@D@std@@@2@V32@AEAVios_base@2@DN@Z 0000000180078618     njsOracle.obj
 0004:00000624       $pdata$?do_put@?$num_put@DV?$ostreambuf_iterator@DU?$char_traits@D@std@@@std@@@std@@MEBA?AV?$ostreambuf_iterator@DU?$char_traits@D@std@@@2@V32@AEAVios_base@2@D_K@Z 0000000180078624     njsOracle.obj
 0004:00000630       $pdata$?do_put@?$num_put@DV?$ostreambuf_iterator@DU?$char_traits@D@std@@@std@@@std@@MEBA?AV?$ostreambuf_iterator@DU?$char_traits@D@std@@@2@V32@AEAVios_base@2@D_J@Z 0000000180078630     njsOracle.obj
 0004:0000063c       $pdata$?do_put@?$num_put@DV?$ostreambuf_iterator@DU?$char_traits@D@std@@@std@@@std@@MEBA?AV?$ostreambuf_iterator@DU?$char_traits@D@std@@@2@V32@AEAVios_base@2@DK@Z 000000018007863c     njsOracle.obj
 0004:00000648       $pdata$?do_put@?$num_put@DV?$ostreambuf_iterator@DU?$char_traits@D@std@@@std@@@std@@MEBA?AV?$ostreambuf_iterator@DU?$char_traits@D@std@@@2@V32@AEAVios_base@2@DJ@Z 0000000180078648     njsOracle.obj
 0004:00000654       $pdata$?do_put@?$num_put@DV?$ostreambuf_iterator@DU?$char_traits@D@std@@@std@@@std@@MEBA?AV?$ostreambuf_iterator@DU?$char_traits@D@std@@@2@V32@AEAVios_base@2@D_N@Z 0000000180078654     njsOracle.obj
 0004:00000660       $pdata$?assign@?$basic_string@DU?$char_traits@D@std@@V?$allocator@D@2@@std@@QEAAAEAV12@_KD@Z 0000000180078660     njsOracle.obj
 0004:0000066c       $pdata$1$?assign@?$basic_string@DU?$char_traits@D@std@@V?$allocator@D@2@@std@@QEAAAEAV12@_KD@Z 000000018007866c     njsOracle.obj
 0004:00000678       $pdata$2$?assign@?$basic_string@DU?$char_traits@D@std@@V?$allocator@D@2@@std@@QEAAAEAV12@_KD@Z 0000000180078678     njsOracle.obj
 0004:00000684       $pdata$3$?assign@?$basic_string@DU?$char_traits@D@std@@V?$allocator@D@2@@std@@QEAAAEAV12@_KD@Z 0000000180078684     njsOracle.obj
 0004:00000690       $pdata$?assign@?$basic_string@DU?$char_traits@D@std@@V?$allocator@D@2@@std@@QEAAAEAV12@QEBD_K@Z 0000000180078690     njsOracle.obj
 0004:0000069c       $pdata$1$?assign@?$basic_string@DU?$char_traits@D@std@@V?$allocator@D@2@@std@@QEAAAEAV12@QEBD_K@Z 000000018007869c     njsOracle.obj
 0004:000006a8       $pdata$2$?assign@?$basic_string@DU?$char_traits@D@std@@V?$allocator@D@2@@std@@QEAAAEAV12@QEBD_K@Z 00000001800786a8     njsOracle.obj
 0004:000006b4       $pdata$3$?assign@?$basic_string@DU?$char_traits@D@std@@V?$allocator@D@2@@std@@QEAAAEAV12@QEBD_K@Z 00000001800786b4     njsOracle.obj
 0004:000006c0       $pdata$?append@?$basic_string@DU?$char_traits@D@std@@V?$allocator@D@2@@std@@QEAAAEAV12@QEBD_K@Z 00000001800786c0     njsOracle.obj
 0004:000006cc       $pdata$0$?append@?$basic_string@DU?$char_traits@D@std@@V?$allocator@D@2@@std@@QEAAAEAV12@QEBD_K@Z 00000001800786cc     njsOracle.obj
 0004:000006d8       $pdata$1$?append@?$basic_string@DU?$char_traits@D@std@@V?$allocator@D@2@@std@@QEAAAEAV12@QEBD_K@Z 00000001800786d8     njsOracle.obj
 0004:000006e4       $pdata$?allocate@?$allocator@D@std@@QEAAPEAD_K@Z 00000001800786e4     njsOracle.obj
 0004:000006f0       $pdata$?deallocate@?$allocator@D@std@@QEAAXQEAD_K@Z 00000001800786f0     njsOracle.obj
 0004:000006fc       $pdata$??0?$basic_iostream@DU?$char_traits@D@std@@@std@@QEAA@PEAV?$basic_streambuf@DU?$char_traits@D@std@@@1@@Z 00000001800786fc     njsOracle.obj
 0004:00000708       $pdata$??_G?$num_put@DV?$ostreambuf_iterator@DU?$char_traits@D@std@@@std@@@std@@MEAAPEAXI@Z 0000000180078708     njsOracle.obj
 0004:00000714       $pdata$?do_truename@?$numpunct@D@std@@MEBA?AV?$basic_string@DU?$char_traits@D@std@@V?$allocator@D@2@@2@XZ 0000000180078714     njsOracle.obj
 0004:00000720       $pdata$?do_falsename@?$numpunct@D@std@@MEBA?AV?$basic_string@DU?$char_traits@D@std@@V?$allocator@D@2@@2@XZ 0000000180078720     njsOracle.obj
 0004:0000072c       $pdata$?do_grouping@?$numpunct@D@std@@MEBA?AV?$basic_string@DU?$char_traits@D@std@@V?$allocator@D@2@@2@XZ 000000018007872c     njsOracle.obj
 0004:00000738       $pdata$??1_Sentry_base@?$basic_ostream@DU?$char_traits@D@std@@@std@@QEAA@XZ 0000000180078738     njsOracle.obj
 0004:00000744       $pdata$?_Iput@?$num_put@DV?$ostreambuf_iterator@DU?$char_traits@D@std@@@std@@@std@@AEBA?AV?$ostreambuf_iterator@DU?$char_traits@D@std@@@2@V32@AEAVios_base@2@DPEAD_K@Z 0000000180078744     njsOracle.obj
 0004:00000750       $pdata$?_Fput@?$num_put@DV?$ostreambuf_iterator@DU?$char_traits@D@std@@@std@@@std@@AEBA?AV?$ostreambuf_iterator@DU?$char_traits@D@std@@@2@V32@AEAVios_base@2@DPEBD_K@Z 0000000180078750     njsOracle.obj
 0004:0000075c       $pdata$??_G?$numpunct@D@std@@MEAAPEAXI@Z 000000018007875c     njsOracle.obj
 0004:00000768       $pdata$?_Xran@?$_String_val@U?$_Simple_types@D@std@@@std@@SAXXZ 0000000180078768     njsOracle.obj
 0004:00000774       $pdata$??$use_facet@V?$ctype@D@std@@@std@@YAAEBV?$ctype@D@0@AEBVlocale@0@@Z 0000000180078774     njsOracle.obj
 0004:00000780       $pdata$??$New@VString@v8@@V?$basic_string@DU?$char_traits@D@std@@V?$allocator@D@2@@std@@@Nan@@YA?AV?$MaybeLocal@VString@v8@@@v8@@V?$basic_string@DU?$char_traits@D@std@@V?$allocator@D@2@@std@@@Z 0000000180078780     njsOracle.obj
 0004:0000078c       $pdata$??$?6U?$char_traits@D@std@@@std@@YAAEAV?$basic_ostream@DU?$char_traits@D@std@@@0@AEAV10@PEBD@Z 000000018007878c     njsOracle.obj
 0004:00000798       $pdata$??$Unwrap@VResultSet@@@ObjectWrap@Nan@@SAPEAVResultSet@@V?$Local@VObject@v8@@@v8@@@Z 0000000180078798     njsConnection.obj
 0004:00000798       $pdata$??$Unwrap@VPool@@@ObjectWrap@Nan@@SAPEAVPool@@V?$Local@VObject@v8@@@v8@@@Z 0000000180078798     njsOracle.obj
 0004:00000798       $pdata$??$Unwrap@VOracledb@@@ObjectWrap@Nan@@SAPEAVOracledb@@V?$Local@VObject@v8@@@v8@@@Z 0000000180078798     njsOracle.obj
 0004:00000798       $pdata$??$Unwrap@VILob@@@ObjectWrap@Nan@@SAPEAVILob@@V?$Local@VObject@v8@@@v8@@@Z 0000000180078798     njsConnection.obj
 0004:00000798       $pdata$??$Unwrap@VConnection@@@ObjectWrap@Nan@@SAPEAVConnection@@V?$Local@VObject@v8@@@v8@@@Z 0000000180078798     njsOracle.obj
 0004:000007a4       $pdata$??$To@I@Nan@@YA?AV?$Maybe@I@v8@@V?$Local@VValue@v8@@@2@@Z 00000001800787a4     njsOracle.obj
 0004:000007b0       $pdata$??$To@H@Nan@@YA?AV?$Maybe@H@v8@@V?$Local@VValue@v8@@@2@@Z 00000001800787b0     njsOracle.obj
 0004:000007bc       $pdata$??$use_facet@V?$numpunct@D@std@@@std@@YAAEBV?$numpunct@D@0@AEBVlocale@0@@Z 00000001800787bc     njsOracle.obj
 0004:000007c8       $pdata$??$_Reallocate_grow_by@V<lambda_e1befb086ad3257e3f042a63030725f7>@@_KD@?$basic_string@DU?$char_traits@D@std@@V?$allocator@D@2@@std@@QEAAAEAV01@_KV<lambda_e1befb086ad3257e3f042a63030725f7>@@_KD@Z 00000001800787c8     njsOracle.obj
 0004:000007d4       $pdata$3$??$_Reallocate_grow_by@V<lambda_e1befb086ad3257e3f042a63030725f7>@@_KD@?$basic_string@DU?$char_traits@D@std@@V?$allocator@D@2@@std@@QEAAAEAV01@_KV<lambda_e1befb086ad3257e3f042a63030725f7>@@_KD@Z 00000001800787d4     njsOracle.obj
 0004:000007e0       $pdata$4$??$_Reallocate_grow_by@V<lambda_e1befb086ad3257e3f042a63030725f7>@@_KD@?$basic_string@DU?$char_traits@D@std@@V?$allocator@D@2@@std@@QEAAAEAV01@_KV<lambda_e1befb086ad3257e3f042a63030725f7>@@_KD@Z 00000001800787e0     njsOracle.obj
 0004:000007ec       $pdata$5$??$_Reallocate_grow_by@V<lambda_e1befb086ad3257e3f042a63030725f7>@@_KD@?$basic_string@DU?$char_traits@D@std@@V?$allocator@D@2@@std@@QEAAAEAV01@_KV<lambda_e1befb086ad3257e3f042a63030725f7>@@_KD@Z 00000001800787ec     njsOracle.obj
 0004:000007f8       $pdata$??$_Reallocate_grow_by@V<lambda_65e615be2a453ca0576c979606f46740>@@PEBD_K@?$basic_string@DU?$char_traits@D@std@@V?$allocator@D@2@@std@@QEAAAEAV01@_KV<lambda_65e615be2a453ca0576c979606f46740>@@PEBD_K@Z 00000001800787f8     njsOracle.obj
 0004:00000804       $pdata$3$??$_Reallocate_grow_by@V<lambda_65e615be2a453ca0576c979606f46740>@@PEBD_K@?$basic_string@DU?$char_traits@D@std@@V?$allocator@D@2@@std@@QEAAAEAV01@_KV<lambda_65e615be2a453ca0576c979606f46740>@@PEBD_K@Z 0000000180078804     njsOracle.obj
 0004:00000810       $pdata$4$??$_Reallocate_grow_by@V<lambda_65e615be2a453ca0576c979606f46740>@@PEBD_K@?$basic_string@DU?$char_traits@D@std@@V?$allocator@D@2@@std@@QEAAAEAV01@_KV<lambda_65e615be2a453ca0576c979606f46740>@@PEBD_K@Z 0000000180078810     njsOracle.obj
 0004:0000081c       $pdata$5$??$_Reallocate_grow_by@V<lambda_65e615be2a453ca0576c979606f46740>@@PEBD_K@?$basic_string@DU?$char_traits@D@std@@V?$allocator@D@2@@std@@QEAAAEAV01@_KV<lambda_65e615be2a453ca0576c979606f46740>@@PEBD_K@Z 000000018007881c     njsOracle.obj
 0004:00000828       $pdata$??$_Reallocate_grow_by@V<lambda_b986da8d428e4af07c64af60eec09b61>@@_K_KD@?$basic_string@DU?$char_traits@D@std@@V?$allocator@D@2@@std@@QEAAAEAV01@_KV<lambda_b986da8d428e4af07c64af60eec09b61>@@_K2D@Z 0000000180078828     njsOracle.obj
 0004:00000834       $pdata$3$??$_Reallocate_grow_by@V<lambda_b986da8d428e4af07c64af60eec09b61>@@_K_KD@?$basic_string@DU?$char_traits@D@std@@V?$allocator@D@2@@std@@QEAAAEAV01@_KV<lambda_b986da8d428e4af07c64af60eec09b61>@@_K2D@Z 0000000180078834     njsOracle.obj
 0004:00000840       $pdata$4$??$_Reallocate_grow_by@V<lambda_b986da8d428e4af07c64af60eec09b61>@@_K_KD@?$basic_string@DU?$char_traits@D@std@@V?$allocator@D@2@@std@@QEAAAEAV01@_KV<lambda_b986da8d428e4af07c64af60eec09b61>@@_K2D@Z 0000000180078840     njsOracle.obj
 0004:0000084c       $pdata$5$??$_Reallocate_grow_by@V<lambda_b986da8d428e4af07c64af60eec09b61>@@_K_KD@?$basic_string@DU?$char_traits@D@std@@V?$allocator@D@2@@std@@QEAAAEAV01@_KV<lambda_b986da8d428e4af07c64af60eec09b61>@@_K2D@Z 000000018007884c     njsOracle.obj
 0004:00000858       $pdata$?_Getcat@?$numpunct@D@std@@SA_KPEAPEBVfacet@locale@2@PEBV42@@Z 0000000180078858     njsOracle.obj
 0004:00000864       $pdata$?_Xlen@?$basic_string@DU?$char_traits@D@std@@V?$allocator@D@2@@std@@SAXXZ 0000000180078864     njsOracle.obj
 0004:00000870       $pdata$?sputn@?$basic_streambuf@DU?$char_traits@D@std@@@std@@QEAA_JPEBD_J@Z 0000000180078870     njsOracle.obj
 0004:0000087c       $pdata$0$?sputn@?$basic_streambuf@DU?$char_traits@D@std@@@std@@QEAA_JPEBD_J@Z 000000018007887c     njsOracle.obj
 0004:00000888       $pdata$1$?sputn@?$basic_streambuf@DU?$char_traits@D@std@@@std@@QEAA_JPEBD_J@Z 0000000180078888     njsOracle.obj
 0004:00000894       $pdata$2$?sputn@?$basic_streambuf@DU?$char_traits@D@std@@@std@@QEAA_JPEBD_J@Z 0000000180078894     njsOracle.obj
 0004:000008a0       $pdata$3$?sputn@?$basic_streambuf@DU?$char_traits@D@std@@@std@@QEAA_JPEBD_J@Z 00000001800788a0     njsOracle.obj
 0004:000008ac       $pdata$??0poolBaton@@QEAA@V?$Local@VFunction@v8@@@v8@@V?$Local@VObject@v8@@@2@@Z 00000001800788ac     njsPool.obj
 0004:000008b8       $pdata$??_GPool@@EEAAPEAXI@Z 00000001800788b8     njsPool.obj
 0004:000008c4       $pdata$?Init@Pool@@SAXV?$Local@VObject@v8@@@v8@@@Z 00000001800788c4     njsPool.obj
 0004:000008d0       $pdata$?New@Pool@@CAXAEBV?$FunctionCallbackInfo@VValue@v8@@@Nan@@@Z 00000001800788d0     njsPool.obj
 0004:000008dc       $pdata$?getPoolProperty@Pool@@CA?AV?$Local@VPrimitive@v8@@@v8@@PEAV1@I@Z 00000001800788dc     njsPool.obj
 0004:000008e8       $pdata$?getPoolProperty@Pool@@CA?AV?$Local@VPrimitive@v8@@@v8@@PEAV1@H@Z 00000001800788e8     njsPool.obj
 0004:000008f4       $pdata$?GetPoolMin@Pool@@CAXV?$Local@VString@v8@@@v8@@AEBV?$PropertyCallbackInfo@VValue@v8@@@Nan@@@Z 00000001800788f4     njsPool.obj
 0004:00000900       $pdata$?GetPoolMax@Pool@@CAXV?$Local@VString@v8@@@v8@@AEBV?$PropertyCallbackInfo@VValue@v8@@@Nan@@@Z 0000000180078900     njsPool.obj
 0004:0000090c       $pdata$?GetPoolIncrement@Pool@@CAXV?$Local@VString@v8@@@v8@@AEBV?$PropertyCallbackInfo@VValue@v8@@@Nan@@@Z 000000018007890c     njsPool.obj
 0004:00000918       $pdata$?GetPoolTimeout@Pool@@CAXV?$Local@VString@v8@@@v8@@AEBV?$PropertyCallbackInfo@VValue@v8@@@Nan@@@Z 0000000180078918     njsPool.obj
 0004:00000924       $pdata$?GetConnectionsOpen@Pool@@CAXV?$Local@VString@v8@@@v8@@AEBV?$PropertyCallbackInfo@VValue@v8@@@Nan@@@Z 0000000180078924     njsPool.obj
 0004:00000930       $pdata$?GetConnectionsInUse@Pool@@CAXV?$Local@VString@v8@@@v8@@AEBV?$PropertyCallbackInfo@VValue@v8@@@Nan@@@Z 0000000180078930     njsPool.obj
 0004:0000093c       $pdata$?GetStmtCacheSize@Pool@@CAXV?$Local@VString@v8@@@v8@@AEBV?$PropertyCallbackInfo@VValue@v8@@@Nan@@@Z 000000018007893c     njsPool.obj
 0004:00000948       $pdata$?GetPoolPingInterval@Pool@@CAXV?$Local@VString@v8@@@v8@@AEBV?$PropertyCallbackInfo@VValue@v8@@@Nan@@@Z 0000000180078948     njsPool.obj
 0004:00000954       $pdata$?setPoolProperty@Pool@@CAXPEAV1@V?$basic_string@DU?$char_traits@D@std@@V?$allocator@D@2@@std@@@Z 0000000180078954     njsPool.obj
 0004:00000960       $pdata$?SetPoolMin@Pool@@CAXV?$Local@VString@v8@@@v8@@V?$Local@VValue@v8@@@3@AEBV?$PropertyCallbackInfo@X@Nan@@@Z 0000000180078960     njsPool.obj
 0004:0000096c       $pdata$?SetPoolMax@Pool@@CAXV?$Local@VString@v8@@@v8@@V?$Local@VValue@v8@@@3@AEBV?$PropertyCallbackInfo@X@Nan@@@Z 000000018007896c     njsPool.obj
 0004:00000978       $pdata$?SetPoolIncrement@Pool@@CAXV?$Local@VString@v8@@@v8@@V?$Local@VValue@v8@@@3@AEBV?$PropertyCallbackInfo@X@Nan@@@Z 0000000180078978     njsPool.obj
 0004:00000984       $pdata$?SetPoolTimeout@Pool@@CAXV?$Local@VString@v8@@@v8@@V?$Local@VValue@v8@@@3@AEBV?$PropertyCallbackInfo@X@Nan@@@Z 0000000180078984     njsPool.obj
 0004:00000990       $pdata$?SetConnectionsOpen@Pool@@CAXV?$Local@VString@v8@@@v8@@V?$Local@VValue@v8@@@3@AEBV?$PropertyCallbackInfo@X@Nan@@@Z 0000000180078990     njsPool.obj
 0004:0000099c       $pdata$?SetConnectionsInUse@Pool@@CAXV?$Local@VString@v8@@@v8@@V?$Local@VValue@v8@@@3@AEBV?$PropertyCallbackInfo@X@Nan@@@Z 000000018007899c     njsPool.obj
 0004:000009a8       $pdata$?SetStmtCacheSize@Pool@@CAXV?$Local@VString@v8@@@v8@@V?$Local@VValue@v8@@@3@AEBV?$PropertyCallbackInfo@X@Nan@@@Z 00000001800789a8     njsPool.obj
 0004:000009b4       $pdata$?SetPoolPingInterval@Pool@@CAXV?$Local@VString@v8@@@v8@@V?$Local@VValue@v8@@@3@AEBV?$PropertyCallbackInfo@X@Nan@@@Z 00000001800789b4     njsPool.obj
 0004:000009c0       $pdata$?GetConnection@Pool@@CAXAEBV?$FunctionCallbackInfo@VValue@v8@@@Nan@@@Z 00000001800789c0     njsPool.obj
 0004:000009cc       $pdata$??_GpoolBaton@@QEAAPEAXI@Z 00000001800789cc     njsPool.obj
 0004:000009d8       $pdata$?Async_GetConnection@Pool@@CAXPEAUuv_work_s@@@Z 00000001800789d8     njsPool.obj
 0004:000009e4       $pdata$?Async_AfterGetConnection@Pool@@CAXPEAUuv_work_s@@@Z 00000001800789e4     njsPool.obj
 0004:000009f0       $pdata$?Terminate@Pool@@CAXAEBV?$FunctionCallbackInfo@VValue@v8@@@Nan@@@Z 00000001800789f0     njsPool.obj
 0004:000009fc       $pdata$?Async_Terminate@Pool@@CAXPEAUuv_work_s@@@Z 00000001800789fc     njsPool.obj
 0004:00000a08       $pdata$?Async_AfterTerminate@Pool@@CAXPEAUuv_work_s@@@Z 0000000180078a08     njsPool.obj
 0004:00000a14       $pdata$?ForceSet@Nan@@YA?AV?$Maybe@_N@v8@@V?$Local@VObject@v8@@@3@V?$Local@VValue@v8@@@3@1W4PropertyAttribute@3@@Z 0000000180078a14     njsConnection.obj
 0004:00000a20       $pdata$??0MetaInfo@@QEAA@XZ 0000000180078a20     njsConnection.obj
 0004:00000a2c       $pdata$??0fetchInfo@@QEAA@XZ 0000000180078a2c     njsConnection.obj
 0004:00000a38       $pdata$??0eBaton@@QEAA@AEAIV?$Local@VFunction@v8@@@v8@@V?$Local@VObject@v8@@@2@@Z 0000000180078a38     njsConnection.obj
 0004:00000a44       $pdata$??1eBaton@@QEAA@XZ  0000000180078a44     njsConnection.obj
 0004:00000a50       $pdata$??_EMetaInfo@@QEAAPEAXI@Z 0000000180078a50     njsConnection.obj
 0004:00000a5c       $pdata$??_EfetchInfo@@QEAAPEAXI@Z 0000000180078a5c     njsConnection.obj
 0004:00000a68       $pdata$?GetValueType@Connection@@CA?AW4ValueType@@V?$Local@VValue@v8@@@v8@@@Z 0000000180078a68     njsConnection.obj
 0004:00000a74       $pdata$??_GConnection@@EEAAPEAXI@Z 0000000180078a74     njsConnection.obj
 0004:00000a80       $pdata$?setConnection@Connection@@QEAAXPEAVConn@dpi@@PEAVOracledb@@V?$Local@VObject@v8@@@v8@@@Z 0000000180078a80     njsConnection.obj
 0004:00000a8c       $pdata$?Init@Connection@@SAXV?$Local@VObject@v8@@@v8@@@Z 0000000180078a8c     njsConnection.obj
 0004:00000a98       $pdata$?New@Connection@@CAXAEBV?$FunctionCallbackInfo@VValue@v8@@@Nan@@@Z 0000000180078a98     njsConnection.obj
 0004:00000aa4       $pdata$?connectionPropertyException@Connection@@CAXPEAV1@W4NJSErrorType@@V?$basic_string@DU?$char_traits@D@std@@V?$allocator@D@2@@std@@@Z 0000000180078aa4     njsConnection.obj
 0004:00000ab0       $pdata$?GetStmtCacheSize@Connection@@CAXV?$Local@VString@v8@@@v8@@AEBV?$PropertyCallbackInfo@VValue@v8@@@Nan@@@Z 0000000180078ab0     njsConnection.obj
 0004:00000abc       $pdata$?SetStmtCacheSize@Connection@@CAXV?$Local@VString@v8@@@v8@@V?$Local@VValue@v8@@@3@AEBV?$PropertyCallbackInfo@X@Nan@@@Z 0000000180078abc     njsConnection.obj
 0004:00000ac8       $pdata$?SetClientId@Connection@@CAXV?$Local@VString@v8@@@v8@@V?$Local@VValue@v8@@@3@AEBV?$PropertyCallbackInfo@X@Nan@@@Z 0000000180078ac8     njsConnection.obj
 0004:00000ad4       $pdata$?SetModule@Connection@@CAXV?$Local@VString@v8@@@v8@@V?$Local@VValue@v8@@@3@AEBV?$PropertyCallbackInfo@X@Nan@@@Z 0000000180078ad4     njsConnection.obj
 0004:00000ae0       $pdata$?SetAction@Connection@@CAXV?$Local@VString@v8@@@v8@@V?$Local@VValue@v8@@@3@AEBV?$PropertyCallbackInfo@X@Nan@@@Z 0000000180078ae0     njsConnection.obj
 0004:00000aec       $pdata$?GetOracleServerVersion@Connection@@CAXV?$Local@VString@v8@@@v8@@AEBV?$PropertyCallbackInfo@VValue@v8@@@Nan@@@Z 0000000180078aec     njsConnection.obj
 0004:00000af8       $pdata$?SetOracleServerVersion@Connection@@CAXV?$Local@VString@v8@@@v8@@V?$Local@VValue@v8@@@3@AEBV?$PropertyCallbackInfo@X@Nan@@@Z 0000000180078af8     njsConnection.obj
 0004:00000b04       $pdata$?Execute@Connection@@CAXAEBV?$FunctionCallbackInfo@VValue@v8@@@Nan@@@Z 0000000180078b04     njsConnection.obj
 0004:00000b10       $pdata$?ProcessBinds@Connection@@CAXAEBV?$FunctionCallbackInfo@VValue@v8@@@Nan@@IPEAUeBaton@@@Z 0000000180078b10     njsConnection.obj
 0004:00000b1c       $pdata$?ProcessOptions@Connection@@CAXAEBV?$FunctionCallbackInfo@VValue@v8@@@Nan@@IPEAUeBaton@@@Z 0000000180078b1c     njsConnection.obj
 0004:00000b28       $pdata$?GetBinds@Connection@@CAXV?$Local@VObject@v8@@@v8@@PEAUeBaton@@@Z 0000000180078b28     njsConnection.obj
 0004:00000b34       $pdata$?GetBindUnit@Connection@@CAXV?$Local@VValue@v8@@@v8@@PEAUBind@@_NPEAUeBaton@@@Z 0000000180078b34     njsConnection.obj
 0004:00000b40       $pdata$?GetOutBindParams@Connection@@CAXGPEAUBind@@PEAUeBaton@@@Z 0000000180078b40     njsConnection.obj
 0004:00000b4c       $pdata$?GetInBindParams@Connection@@CAXV?$Local@VValue@v8@@@v8@@PEAUBind@@PEAUeBaton@@@Z 0000000180078b4c     njsConnection.obj
 0004:00000b58       $pdata$?GetInBindParamsScalar@Connection@@CAXV?$Local@VValue@v8@@@v8@@PEAUBind@@PEAUeBaton@@@Z 0000000180078b58     njsConnection.obj
 0004:00000b64       $pdata$?GetInBindParamsArray@Connection@@CAXV?$Local@VArray@v8@@@v8@@PEAUBind@@PEAUeBaton@@@Z 0000000180078b64     njsConnection.obj
 0004:00000b70       $pdata$?AllocateBindArray@Connection@@CA_NGPEAUBind@@PEAUeBaton@@PEA_K@Z 0000000180078b70     njsConnection.obj
 0004:00000b7c       $pdata$?Async_Execute@Connection@@CAXPEAUuv_work_s@@@Z 0000000180078b7c     njsConnection.obj
 0004:00000b88       $pdata$?LOB2StringOrBuffer@Connection@@CAXPEAUeBaton@@I_K1@Z 0000000180078b88     njsConnection.obj
 0004:00000b94       $pdata$0$?LOB2StringOrBuffer@Connection@@CAXPEAUeBaton@@I_K1@Z 0000000180078b94     njsConnection.obj
 0004:00000ba0       $pdata$1$?LOB2StringOrBuffer@Connection@@CAXPEAUeBaton@@I_K1@Z 0000000180078ba0     njsConnection.obj
 0004:00000bac       $pdata$2$?LOB2StringOrBuffer@Connection@@CAXPEAUeBaton@@I_K1@Z 0000000180078bac     njsConnection.obj
 0004:00000bb8       $pdata$?StringOrBuffer2LOB@Connection@@CAXPEAUeBaton@@IE@Z 0000000180078bb8     njsConnection.obj
 0004:00000bc4       $pdata$?Descr2StringOrBuffer@Connection@@CAXPEAUeBaton@@@Z 0000000180078bc4     njsConnection.obj
 0004:00000bd0       $pdata$1$?Descr2StringOrBuffer@Connection@@CAXPEAUeBaton@@@Z 0000000180078bd0     njsConnection.obj
 0004:00000bdc       $pdata$6$?Descr2StringOrBuffer@Connection@@CAXPEAUeBaton@@@Z 0000000180078bdc     njsConnection.obj
 0004:00000be8       $pdata$7$?Descr2StringOrBuffer@Connection@@CAXPEAUeBaton@@@Z 0000000180078be8     njsConnection.obj
 0004:00000bf4       $pdata$8$?Descr2StringOrBuffer@Connection@@CAXPEAUeBaton@@@Z 0000000180078bf4     njsConnection.obj
 0004:00000c00       $pdata$9$?Descr2StringOrBuffer@Connection@@CAXPEAUeBaton@@@Z 0000000180078c00     njsConnection.obj
 0004:00000c0c       $pdata$?PrepareAndBind@Connection@@CAXPEAUeBaton@@@Z 0000000180078c0c     njsConnection.obj
 0004:00000c18       $pdata$?CopyMetaData@Connection@@SAXPEAUMetaInfo@@PEAUeBaton@@PEBUMetaData@dpi@@I@Z 0000000180078c18     njsConnection.obj
 0004:00000c24       $pdata$?GetTargetType@Connection@@CAGPEAUeBaton@@AEAV?$basic_string@DU?$char_traits@D@std@@V?$allocator@D@2@@std@@G@Z 0000000180078c24     njsConnection.obj
 0004:00000c30       $pdata$?DoDefines@Connection@@SAXPEAUeBaton@@@Z 0000000180078c30     njsConnection.obj
 0004:00000c3c       $pdata$1$?DoDefines@Connection@@SAXPEAUeBaton@@@Z 0000000180078c3c     njsConnection.obj
 0004:00000c48       $pdata$2$?DoDefines@Connection@@SAXPEAUeBaton@@@Z 0000000180078c48     njsConnection.obj
 0004:00000c54       $pdata$3$?DoDefines@Connection@@SAXPEAUeBaton@@@Z 0000000180078c54     njsConnection.obj
 0004:00000c60       $pdata$?DoFetch@Connection@@SAXPEAUeBaton@@@Z 0000000180078c60     njsConnection.obj
 0004:00000c6c       $pdata$?Descr2protoILob@Connection@@CAXPEAUeBaton@@II@Z 0000000180078c6c     njsConnection.obj
 0004:00000c78       $pdata$?Async_AfterExecute@Connection@@CAXPEAUuv_work_s@@@Z 0000000180078c78     njsConnection.obj
 0004:00000c84       $pdata$?GetMetaData@Connection@@SA?AV?$Local@VValue@v8@@@v8@@PEBUMetaInfo@@I_N@Z 0000000180078c84     njsConnection.obj
 0004:00000c90       $pdata$?GetRows@Connection@@SA?AV?$Local@VValue@v8@@@v8@@PEAUeBaton@@@Z 0000000180078c90     njsConnection.obj
 0004:00000c9c       $pdata$?ToV8Value@Connection@@CA?AV?$Local@VValue@v8@@@v8@@PEAUeBaton@@_NII@Z 0000000180078c9c     njsConnection.obj
 0004:00000ca8       $pdata$?Bind2V8Value@Connection@@CA?AV?$Local@VValue@v8@@@v8@@PEAUeBaton@@PEAUBind@@I@Z 0000000180078ca8     njsConnection.obj
 0004:00000cb4       $pdata$?Define2V8Value@Connection@@CA?AV?$Local@VValue@v8@@@v8@@PEAUeBaton@@IIPEAUDefine@@PEAUExtDefine@@@Z 0000000180078cb4     njsConnection.obj
 0004:00000cc0       $pdata$?RefCursor2V8Value@Connection@@CA?AV?$Local@VValue@v8@@@v8@@PEAUeBaton@@PEAUBind@@PEAUExtBind@@@Z 0000000180078cc0     njsConnection.obj
 0004:00000ccc       $pdata$?ToV8ArrayValue@Connection@@CA?AV?$Local@VValue@v8@@@v8@@PEAUeBaton@@PEAUBind@@K@Z 0000000180078ccc     njsConnection.obj
 0004:00000cd8       $pdata$?GetOutBinds@Connection@@CA?AV?$Local@VValue@v8@@@v8@@PEAUeBaton@@@Z 0000000180078cd8     njsConnection.obj
 0004:00000ce4       $pdata$?GetOutBindArray@Connection@@CA?AV?$Local@VValue@v8@@@v8@@PEAUeBaton@@@Z 0000000180078ce4     njsConnection.obj
 0004:00000cf0       $pdata$?GetOutBindObject@Connection@@CA?AV?$Local@VValue@v8@@@v8@@PEAUeBaton@@@Z 0000000180078cf0     njsConnection.obj
 0004:00000cfc       $pdata$?Release@Connection@@CAXAEBV?$FunctionCallbackInfo@VValue@v8@@@Nan@@@Z 0000000180078cfc     njsConnection.obj
 0004:00000d08       $pdata$?Async_Release@Connection@@CAXPEAUuv_work_s@@@Z 0000000180078d08     njsConnection.obj
 0004:00000d14       $pdata$?Async_AfterRelease@Connection@@CAXPEAUuv_work_s@@@Z 0000000180078d14     njsConnection.obj
 0004:00000d20       $pdata$?Commit@Connection@@CAXAEBV?$FunctionCallbackInfo@VValue@v8@@@Nan@@@Z 0000000180078d20     njsConnection.obj
 0004:00000d2c       $pdata$?Async_Commit@Connection@@CAXPEAUuv_work_s@@@Z 0000000180078d2c     njsConnection.obj
 0004:00000d38       $pdata$?Async_AfterCommit@Connection@@CAXPEAUuv_work_s@@@Z 0000000180078d38     njsConnection.obj
 0004:00000d38       $pdata$?Async_AfterBreak@Connection@@CAXPEAUuv_work_s@@@Z 0000000180078d38     njsConnection.obj
 0004:00000d38       $pdata$?Async_AfterRollback@Connection@@CAXPEAUuv_work_s@@@Z 0000000180078d38     njsConnection.obj
 0004:00000d44       $pdata$?Rollback@Connection@@CAXAEBV?$FunctionCallbackInfo@VValue@v8@@@Nan@@@Z 0000000180078d44     njsConnection.obj
 0004:00000d50       $pdata$?Async_Rollback@Connection@@CAXPEAUuv_work_s@@@Z 0000000180078d50     njsConnection.obj
 0004:00000d5c       $pdata$?Break@Connection@@CAXAEBV?$FunctionCallbackInfo@VValue@v8@@@Nan@@@Z 0000000180078d5c     njsConnection.obj
 0004:00000d68       $pdata$?Async_Break@Connection@@CAXPEAUuv_work_s@@@Z 0000000180078d68     njsConnection.obj
 0004:00000d74       $pdata$?CreateLob@Connection@@CAXAEBV?$FunctionCallbackInfo@VValue@v8@@@Nan@@@Z 0000000180078d74     njsConnection.obj
 0004:00000d80       $pdata$?Async_CreateLob@Connection@@CAXPEAUuv_work_s@@@Z 0000000180078d80     njsConnection.obj
 0004:00000d8c       $pdata$?Async_AfterCreateLob@Connection@@CAXPEAUuv_work_s@@@Z 0000000180078d8c     njsConnection.obj
 0004:00000d98       $pdata$?UpdateDateValue@Connection@@CAXPEAUeBaton@@PEAUBind@@I@Z 0000000180078d98     njsConnection.obj
 0004:00000da4       $pdata$1$?UpdateDateValue@Connection@@CAXPEAUeBaton@@PEAUBind@@I@Z 0000000180078da4     njsConnection.obj
 0004:00000db0       $pdata$2$?UpdateDateValue@Connection@@CAXPEAUeBaton@@PEAUBind@@I@Z 0000000180078db0     njsConnection.obj
 0004:00000dbc       $pdata$10$?UpdateDateValue@Connection@@CAXPEAUeBaton@@PEAUBind@@I@Z 0000000180078dbc     njsConnection.obj
 0004:00000dc8       $pdata$11$?UpdateDateValue@Connection@@CAXPEAUeBaton@@PEAUBind@@I@Z 0000000180078dc8     njsConnection.obj
 0004:00000dd4       $pdata$12$?UpdateDateValue@Connection@@CAXPEAUeBaton@@PEAUBind@@I@Z 0000000180078dd4     njsConnection.obj
 0004:00000de0       $pdata$13$?UpdateDateValue@Connection@@CAXPEAUeBaton@@PEAUBind@@I@Z 0000000180078de0     njsConnection.obj
 0004:00000dec       $pdata$14$?UpdateDateValue@Connection@@CAXPEAUeBaton@@PEAUBind@@I@Z 0000000180078dec     njsConnection.obj
 0004:00000df8       $pdata$15$?UpdateDateValue@Connection@@CAXPEAUeBaton@@PEAUBind@@I@Z 0000000180078df8     njsConnection.obj
 0004:00000e04       $pdata$?cbDynBufferAllocate@Connection@@CAXPEAX_NII@Z 0000000180078e04     njsConnection.obj
 0004:00000e10       $pdata$?cbDynBufferGet@Connection@@CAHPEAX_JIKKPEAPEAX22PEAPEAGPEAE@Z 0000000180078e10     njsConnection.obj
 0004:00000e1c       $pdata$?cbDynDefine@Connection@@CAHPEAXIPEAPEAXPEAPEAI1PEAPEAG@Z 0000000180078e1c     njsConnection.obj
 0004:00000e28       $pdata$?NewLob@Connection@@CA?AV?$Local@VValue@v8@@@v8@@PEAUeBaton@@PEAVProtoILob@@_N@Z 0000000180078e28     njsConnection.obj
 0004:00000e34       $pdata$??$emplace_back@AEBQEAV?$Persistent@VObject@v8@@V?$NonCopyablePersistentTraits@VObject@v8@@@2@@Nan@@@?$vector@PEAV?$Persistent@VObject@v8@@V?$NonCopyablePersistentTraits@VObject@v8@@@2@@Nan@@V?$allocator@PEAV?$Persistent@VObject@v8@@V?$NonCopyablePersistentTraits@VObject@v8@@@2@@Nan@@@std@@@std@@QEAAXAEBQEAV?$Persistent@VObject@v8@@V?$NonCopyablePersistentTraits@VObject@v8@@@2@@Nan@@@Z 0000000180078e34     njsConnection.obj
 0004:00000e40       $pdata$3$??$emplace_back@AEBQEAV?$Persistent@VObject@v8@@V?$NonCopyablePersistentTraits@VObject@v8@@@2@@Nan@@@?$vector@PEAV?$Persistent@VObject@v8@@V?$NonCopyablePersistentTraits@VObject@v8@@@2@@Nan@@V?$allocator@PEAV?$Persistent@VObject@v8@@V?$NonCopyablePersistentTraits@VObject@v8@@@2@@Nan@@@std@@@std@@QEAAXAEBQEAV?$Persistent@VObject@v8@@V?$NonCopyablePersistentTraits@VObject@v8@@@2@@Nan@@@Z 0000000180078e40     njsConnection.obj
 0004:00000e4c       $pdata$5$??$emplace_back@AEBQEAV?$Persistent@VObject@v8@@V?$NonCopyablePersistentTraits@VObject@v8@@@2@@Nan@@@?$vector@PEAV?$Persistent@VObject@v8@@V?$NonCopyablePersistentTraits@VObject@v8@@@2@@Nan@@V?$allocator@PEAV?$Persistent@VObject@v8@@V?$NonCopyablePersistentTraits@VObject@v8@@@2@@Nan@@@std@@@std@@QEAAXAEBQEAV?$Persistent@VObject@v8@@V?$NonCopyablePersistentTraits@VObject@v8@@@2@@Nan@@@Z 0000000180078e4c     njsConnection.obj
 0004:00000e58       $pdata$6$??$emplace_back@AEBQEAV?$Persistent@VObject@v8@@V?$NonCopyablePersistentTraits@VObject@v8@@@2@@Nan@@@?$vector@PEAV?$Persistent@VObject@v8@@V?$NonCopyablePersistentTraits@VObject@v8@@@2@@Nan@@V?$allocator@PEAV?$Persistent@VObject@v8@@V?$NonCopyablePersistentTraits@VObject@v8@@@2@@Nan@@@std@@@std@@QEAAXAEBQEAV?$Persistent@VObject@v8@@V?$NonCopyablePersistentTraits@VObject@v8@@@2@@Nan@@@Z 0000000180078e58     njsConnection.obj
 0004:00000e64       $pdata$??1?$vector@PEAUExtBind@@V?$allocator@PEAUExtBind@@@std@@@std@@QEAA@XZ 0000000180078e64     njsConnection.obj
 0004:00000e64       $pdata$?_Tidy@?$vector@PEAUBind@@V?$allocator@PEAUBind@@@std@@@std@@AEAAXXZ 0000000180078e64     njsConnection.obj
 0004:00000e64       $pdata$??1?$vector@PEAUExtDefine@@V?$allocator@PEAUExtDefine@@@std@@@std@@QEAA@XZ 0000000180078e64     njsConnection.obj
 0004:00000e64       $pdata$??1?$vector@PEAV?$Persistent@VObject@v8@@V?$NonCopyablePersistentTraits@VObject@v8@@@2@@Nan@@V?$allocator@PEAV?$Persistent@VObject@v8@@V?$NonCopyablePersistentTraits@VObject@v8@@@2@@Nan@@@std@@@std@@QEAA@XZ 0000000180078e64     njsConnection.obj
 0004:00000e70       $pdata$?resize@?$vector@PEAUExtDefine@@V?$allocator@PEAUExtDefine@@@std@@@std@@QEAAX_KAEBQEAUExtDefine@@@Z 0000000180078e70     njsConnection.obj
 0004:00000e7c       $pdata$1$?resize@?$vector@PEAUExtDefine@@V?$allocator@PEAUExtDefine@@@std@@@std@@QEAAX_KAEBQEAUExtDefine@@@Z 0000000180078e7c     njsConnection.obj
 0004:00000e88       $pdata$2$?resize@?$vector@PEAUExtDefine@@V?$allocator@PEAUExtDefine@@@std@@@std@@QEAAX_KAEBQEAUExtDefine@@@Z 0000000180078e88     njsConnection.obj
 0004:00000e94       $pdata$?push_back@?$vector@PEAUExtBind@@V?$allocator@PEAUExtBind@@@std@@@std@@QEAAX$$QEAPEAUExtBind@@@Z 0000000180078e94     njsConnection.obj
 0004:00000ea0       $pdata$2$?push_back@?$vector@PEAUExtBind@@V?$allocator@PEAUExtBind@@@std@@@std@@QEAAX$$QEAPEAUExtBind@@@Z 0000000180078ea0     njsConnection.obj
 0004:00000eac       $pdata$3$?push_back@?$vector@PEAUExtBind@@V?$allocator@PEAUExtBind@@@std@@@std@@QEAAX$$QEAPEAUExtBind@@@Z 0000000180078eac     njsConnection.obj
 0004:00000eb8       $pdata$?push_back@?$vector@PEAUBind@@V?$allocator@PEAUBind@@@std@@@std@@QEAAXAEBQEAUBind@@@Z 0000000180078eb8     njsConnection.obj
 0004:00000ec4       $pdata$3$?push_back@?$vector@PEAUBind@@V?$allocator@PEAUBind@@@std@@@std@@QEAAXAEBQEAUBind@@@Z 0000000180078ec4     njsConnection.obj
 0004:00000ed0       $pdata$5$?push_back@?$vector@PEAUBind@@V?$allocator@PEAUBind@@@std@@@std@@QEAAXAEBQEAUBind@@@Z 0000000180078ed0     njsConnection.obj
 0004:00000edc       $pdata$6$?push_back@?$vector@PEAUBind@@V?$allocator@PEAUBind@@@std@@@std@@QEAAXAEBQEAUBind@@@Z 0000000180078edc     njsConnection.obj
 0004:00000ee8       $pdata$?_Xlength@?$vector@PEAUBind@@V?$allocator@PEAUBind@@@std@@@std@@CAXXZ 0000000180078ee8     njsConnection.obj
 0004:00000ee8       $pdata$?_Xlength@?$vector@PEAUExtDefine@@V?$allocator@PEAUExtDefine@@@std@@@std@@CAXXZ 0000000180078ee8     njsConnection.obj
 0004:00000ee8       $pdata$?_Xlength@?$vector@PEAUExtBind@@V?$allocator@PEAUExtBind@@@std@@@std@@CAXXZ 0000000180078ee8     njsConnection.obj
 0004:00000ee8       $pdata$?_Xlength@?$vector@PEAV?$Persistent@VObject@v8@@V?$NonCopyablePersistentTraits@VObject@v8@@@2@@Nan@@V?$allocator@PEAV?$Persistent@VObject@v8@@V?$NonCopyablePersistentTraits@VObject@v8@@@2@@Nan@@@std@@@std@@CAXXZ 0000000180078ee8     njsConnection.obj
 0004:00000ef4       $pdata$?_Change_array@?$vector@PEAUExtBind@@V?$allocator@PEAUExtBind@@@std@@@std@@AEAAXQEAPEAUExtBind@@_K1@Z 0000000180078ef4     njsConnection.obj
 0004:00000ef4       $pdata$?_Change_array@?$vector@PEAUExtDefine@@V?$allocator@PEAUExtDefine@@@std@@@std@@AEAAXQEAPEAUExtDefine@@_K1@Z 0000000180078ef4     njsConnection.obj
 0004:00000f00       $pdata$?allocate@?$allocator@PEAUBind@@@std@@QEAAPEAPEAUBind@@_K@Z 0000000180078f00     njsConnection.obj
 0004:00000f00       $pdata$?allocate@?$allocator@PEAUExtDefine@@@std@@QEAAPEAPEAUExtDefine@@_K@Z 0000000180078f00     njsConnection.obj
 0004:00000f00       $pdata$?allocate@?$allocator@PEAUExtBind@@@std@@QEAAPEAPEAUExtBind@@_K@Z 0000000180078f00     njsConnection.obj
 0004:00000f0c       $pdata$??$New@VDate@v8@@O@Nan@@YA?AV?$MaybeLocal@VDate@v8@@@v8@@O@Z 0000000180078f0c     njsConnection.obj
 0004:00000f18       $pdata$??$_Reallocate_grow_by@V<lambda_f3a66ab6a0570788f31503db83886f49>@@_KPEBD_K@?$basic_string@DU?$char_traits@D@std@@V?$allocator@D@2@@std@@QEAAAEAV01@_KV<lambda_f3a66ab6a0570788f31503db83886f49>@@_KPEBD2@Z 0000000180078f18     njsConnection.obj
 0004:00000f24       $pdata$3$??$_Reallocate_grow_by@V<lambda_f3a66ab6a0570788f31503db83886f49>@@_KPEBD_K@?$basic_string@DU?$char_traits@D@std@@V?$allocator@D@2@@std@@QEAAAEAV01@_KV<lambda_f3a66ab6a0570788f31503db83886f49>@@_KPEBD2@Z 0000000180078f24     njsConnection.obj
 0004:00000f30       $pdata$4$??$_Reallocate_grow_by@V<lambda_f3a66ab6a0570788f31503db83886f49>@@_KPEBD_K@?$basic_string@DU?$char_traits@D@std@@V?$allocator@D@2@@std@@QEAAAEAV01@_KV<lambda_f3a66ab6a0570788f31503db83886f49>@@_KPEBD2@Z 0000000180078f30     njsConnection.obj
 0004:00000f3c       $pdata$5$??$_Reallocate_grow_by@V<lambda_f3a66ab6a0570788f31503db83886f49>@@_KPEBD_K@?$basic_string@DU?$char_traits@D@std@@V?$allocator@D@2@@std@@QEAAAEAV01@_KV<lambda_f3a66ab6a0570788f31503db83886f49>@@_KPEBD2@Z 0000000180078f3c     njsConnection.obj
 0004:00000f48       $pdata$??0rsBaton@@QEAA@AEAIV?$Local@VFunction@v8@@@v8@@V?$Local@VObject@v8@@@2@2@Z 0000000180078f48     njsResultSet.obj
 0004:00000f54       $pdata$??_GResultSet@@UEAAPEAXI@Z 0000000180078f54     njsResultSet.obj
 0004:00000f60       $pdata$?setResultSet@ResultSet@@QEAAXPEAVStmt@dpi@@PEAUeBaton@@IPEBUMetaInfo@@@Z 0000000180078f60     njsResultSet.obj
 0004:00000f6c       $pdata$?Init@ResultSet@@SAXV?$Local@VObject@v8@@@v8@@@Z 0000000180078f6c     njsResultSet.obj
 0004:00000f78       $pdata$?New@ResultSet@@CAXAEBV?$FunctionCallbackInfo@VValue@v8@@@Nan@@@Z 0000000180078f78     njsResultSet.obj
 0004:00000f84       $pdata$?GetMetaData@ResultSet@@CAXV?$Local@VString@v8@@@v8@@AEBV?$PropertyCallbackInfo@VValue@v8@@@Nan@@@Z 0000000180078f84     njsResultSet.obj
 0004:00000f90       $pdata$?SetMetaData@ResultSet@@CAXV?$Local@VString@v8@@@v8@@V?$Local@VValue@v8@@@3@AEBV?$PropertyCallbackInfo@X@Nan@@@Z 0000000180078f90     njsResultSet.obj
 0004:00000f9c       $pdata$?GetRow@ResultSet@@CAXAEBV?$FunctionCallbackInfo@VValue@v8@@@Nan@@@Z 0000000180078f9c     njsResultSet.obj
 0004:00000fa8       $pdata$?GetRows@ResultSet@@CAXAEBV?$FunctionCallbackInfo@VValue@v8@@@Nan@@@Z 0000000180078fa8     njsResultSet.obj
 0004:00000fb4       $pdata$?GetRowsCommon@ResultSet@@CAXPEAUrsBaton@@@Z 0000000180078fb4     njsResultSet.obj
 0004:00000fc0       $pdata$??_GrsBaton@@QEAAPEAXI@Z 0000000180078fc0     njsResultSet.obj
 0004:00000fcc       $pdata$?Async_GetRows@ResultSet@@CAXPEAUuv_work_s@@@Z 0000000180078fcc     njsResultSet.obj
 0004:00000fd8       $pdata$?Async_AfterGetRows@ResultSet@@CAXPEAUuv_work_s@@@Z 0000000180078fd8     njsResultSet.obj
 0004:00000fe4       $pdata$?Close@ResultSet@@CAXAEBV?$FunctionCallbackInfo@VValue@v8@@@Nan@@@Z 0000000180078fe4     njsResultSet.obj
 0004:00000ff0       $pdata$?Async_Close@ResultSet@@CAXPEAUuv_work_s@@@Z 0000000180078ff0     njsResultSet.obj
 0004:00000ffc       $pdata$?Async_AfterClose@ResultSet@@CAXPEAUuv_work_s@@@Z 0000000180078ffc     njsResultSet.obj
 0004:00001008       $pdata$?clearFetchBuffer@ResultSet@@AEAAXI@Z 0000000180079008     njsResultSet.obj
 0004:00001014       $pdata$3$?clearFetchBuffer@ResultSet@@AEAAXI@Z 0000000180079014     njsResultSet.obj
 0004:00001020       $pdata$4$?clearFetchBuffer@ResultSet@@AEAAXI@Z 0000000180079020     njsResultSet.obj
 0004:0000102c       $pdata$5$?clearFetchBuffer@ResultSet@@AEAAXI@Z 000000018007902c     njsResultSet.obj
 0004:00001038       $pdata$?getErrorMsg@NJSMessages@@SA?AV?$basic_string@DU?$char_traits@D@std@@V?$allocator@D@2@@std@@W4NJSErrorType@@ZZ 0000000180079038     njsMessages.obj
 0004:00001044       $pdata$??0LobBaton@@QEAA@AEAIV?$Local@VFunction@v8@@@v8@@V?$Local@VObject@v8@@@2@@Z 0000000180079044     njsIntLob.obj
 0004:00001050       $pdata$??_GILob@@EEAAPEAXI@Z 0000000180079050     njsIntLob.obj
 0004:0000105c       $pdata$?cleanupDPI@ILob@@QEAAXXZ 000000018007905c     njsIntLob.obj
 0004:00001068       $pdata$?cleanupNJS@ILob@@QEAAXXZ 0000000180079068     njsIntLob.obj
 0004:00001074       $pdata$?setILob@ILob@@QEAAXPEAUeBaton@@PEAVProtoILob@@_N@Z 0000000180079074     njsIntLob.obj
 0004:00001080       $pdata$?hasILobInstance@ILob@@SA_NV?$Local@VObject@v8@@@v8@@@Z 0000000180079080     njsIntLob.obj
 0004:0000108c       $pdata$?Init@ILob@@SAXV?$Local@VObject@v8@@@v8@@@Z 000000018007908c     njsIntLob.obj
 0004:00001098       $pdata$?New@ILob@@CAXAEBV?$FunctionCallbackInfo@VValue@v8@@@Nan@@@Z 0000000180079098     njsIntLob.obj
 0004:000010a4       $pdata$?Release@ILob@@CAXAEBV?$FunctionCallbackInfo@VValue@v8@@@Nan@@@Z 00000001800790a4     njsIntLob.obj
 0004:000010b0       $pdata$?Close@ILob@@CAXAEBV?$FunctionCallbackInfo@VValue@v8@@@Nan@@@Z 00000001800790b0     njsIntLob.obj
 0004:000010bc       $pdata$??_GLobBaton@@QEAAPEAXI@Z 00000001800790bc     njsIntLob.obj
 0004:000010c8       $pdata$?Async_Close@ILob@@CAXPEAUuv_work_s@@@Z 00000001800790c8     njsIntLob.obj
 0004:000010d4       $pdata$?Async_AfterClose@ILob@@CAXPEAUuv_work_s@@@Z 00000001800790d4     njsIntLob.obj
 0004:000010e0       $pdata$?lobPropertyException@ILob@@CAXPEAV1@W4NJSErrorType@@V?$basic_string@DU?$char_traits@D@std@@V?$allocator@D@2@@std@@@Z 00000001800790e0     njsIntLob.obj
 0004:000010ec       $pdata$?GetChunkSize@ILob@@CAXV?$Local@VString@v8@@@v8@@AEBV?$PropertyCallbackInfo@VValue@v8@@@Nan@@@Z 00000001800790ec     njsIntLob.obj
 0004:000010f8       $pdata$?SetChunkSize@ILob@@CAXV?$Local@VString@v8@@@v8@@V?$Local@VValue@v8@@@3@AEBV?$PropertyCallbackInfo@X@Nan@@@Z 00000001800790f8     njsIntLob.obj
 0004:00001104       $pdata$?GetLength@ILob@@CAXV?$Local@VString@v8@@@v8@@AEBV?$PropertyCallbackInfo@VValue@v8@@@Nan@@@Z 0000000180079104     njsIntLob.obj
 0004:00001110       $pdata$?SetLength@ILob@@CAXV?$Local@VString@v8@@@v8@@V?$Local@VValue@v8@@@3@AEBV?$PropertyCallbackInfo@X@Nan@@@Z 0000000180079110     njsIntLob.obj
 0004:0000111c       $pdata$?GetPieceSize@ILob@@CAXV?$Local@VString@v8@@@v8@@AEBV?$PropertyCallbackInfo@VValue@v8@@@Nan@@@Z 000000018007911c     njsIntLob.obj
 0004:00001128       $pdata$?SetPieceSize@ILob@@CAXV?$Local@VString@v8@@@v8@@V?$Local@VValue@v8@@@3@AEBV?$PropertyCallbackInfo@X@Nan@@@Z 0000000180079128     njsIntLob.obj
 0004:00001134       $pdata$?GetOffset@ILob@@CAXV?$Local@VString@v8@@@v8@@AEBV?$PropertyCallbackInfo@VValue@v8@@@Nan@@@Z 0000000180079134     njsIntLob.obj
 0004:00001140       $pdata$?SetOffset@ILob@@CAXV?$Local@VString@v8@@@v8@@V?$Local@VValue@v8@@@3@AEBV?$PropertyCallbackInfo@X@Nan@@@Z 0000000180079140     njsIntLob.obj
 0004:0000114c       $pdata$?GetType@ILob@@CAXV?$Local@VString@v8@@@v8@@AEBV?$PropertyCallbackInfo@VValue@v8@@@Nan@@@Z 000000018007914c     njsIntLob.obj
 0004:00001158       $pdata$?SetType@ILob@@CAXV?$Local@VString@v8@@@v8@@V?$Local@VValue@v8@@@3@AEBV?$PropertyCallbackInfo@X@Nan@@@Z 0000000180079158     njsIntLob.obj
 0004:00001164       $pdata$?GetIsAutoCloseLob@ILob@@CAXV?$Local@VString@v8@@@v8@@AEBV?$PropertyCallbackInfo@VValue@v8@@@Nan@@@Z 0000000180079164     njsIntLob.obj
 0004:00001170       $pdata$?SetIsAutoCloseLob@ILob@@CAXV?$Local@VString@v8@@@v8@@V?$Local@VValue@v8@@@3@AEBV?$PropertyCallbackInfo@X@Nan@@@Z 0000000180079170     njsIntLob.obj
 0004:0000117c       $pdata$?GetIsValid@ILob@@CAXV?$Local@VString@v8@@@v8@@AEBV?$PropertyCallbackInfo@VValue@v8@@@Nan@@@Z 000000018007917c     njsIntLob.obj
 0004:00001188       $pdata$?SetIsValid@ILob@@CAXV?$Local@VString@v8@@@v8@@V?$Local@VValue@v8@@@3@AEBV?$PropertyCallbackInfo@X@Nan@@@Z 0000000180079188     njsIntLob.obj
 0004:00001194       $pdata$?Read@ILob@@CAXAEBV?$FunctionCallbackInfo@VValue@v8@@@Nan@@@Z 0000000180079194     njsIntLob.obj
 0004:000011a0       $pdata$?Async_Read@ILob@@CAXPEAUuv_work_s@@@Z 00000001800791a0     njsIntLob.obj
 0004:000011ac       $pdata$?Async_AfterRead@ILob@@CAXPEAUuv_work_s@@@Z 00000001800791ac     njsIntLob.obj
 0004:000011b8       $pdata$?Write@ILob@@CAXAEBV?$FunctionCallbackInfo@VValue@v8@@@Nan@@@Z 00000001800791b8     njsIntLob.obj
 0004:000011c4       $pdata$?Async_Write@ILob@@CAXPEAUuv_work_s@@@Z 00000001800791c4     njsIntLob.obj
 0004:000011d0       $pdata$?Async_AfterWrite@ILob@@CAXPEAUuv_work_s@@@Z 00000001800791d0     njsIntLob.obj
 0004:000011dc       $pdata$??0ProtoILob@@QEAA@PEAUeBaton@@PEAUDescriptor@dpi@@G@Z 00000001800791dc     njsIntLob.obj
 0004:000011e8       $pdata$?cleanup@ProtoILob@@AEAAXXZ 00000001800791e8     njsIntLob.obj
 0004:000011f4       $pdata$??_GEnv@dpi@@MEAAPEAXI@Z 00000001800791f4     dpiEnv.obj
 0004:00001200       $pdata$??0EnvImpl@@QEAA@AEBV?$basic_string@DU?$char_traits@D@std@@V?$allocator@D@2@@std@@II@Z 0000000180079200     dpiEnvImpl.obj
 0004:0000120c       $pdata$??_GEnvImpl@@UEAAPEAXI@Z 000000018007920c     dpiEnvImpl.obj
 0004:00001218       $pdata$??0ExceptionImpl@@QEAA@AEBV0@@Z 0000000180079218     dpiEnvImpl.obj
 0004:00001224       $pdata$??_GExceptionImpl@@UEAAPEAXI@Z 0000000180079224     dpiEnvImpl.obj
 0004:00001230       $pdata$?terminate@EnvImpl@@UEAAXXZ 0000000180079230     dpiEnvImpl.obj
 0004:0000123c       $pdata$?createPool@EnvImpl@@UEAAPEAVSPool@dpi@@AEBV?$basic_string@DU?$char_traits@D@std@@V?$allocator@D@2@@std@@00HHHHH_N1H@Z 000000018007923c     dpiEnvImpl.obj
 0004:00001248       $pdata$?getConnection@EnvImpl@@UEAAPEAVConn@dpi@@AEBV?$basic_string@DU?$char_traits@D@std@@V?$allocator@D@2@@std@@00H0_NW4DBPrivileges@3@@Z 0000000180079248     dpiEnvImpl.obj
 0004:00001254       $pdata$?cleanup@EnvImpl@@AEAAXXZ 0000000180079254     dpiEnvImpl.obj
 0004:00001260       $pdata$?getDateTimeArray@EnvImpl@@UEBAPEAVDateTimeArray@dpi@@PEAUOCIError@@@Z 0000000180079260     dpiEnvImpl.obj
 0004:0000126c       $pdata$?allocHandle@EnvImpl@@UEAAPEAUDpiHandle@dpi@@W4HandleType@3@@Z 000000018007926c     dpiEnvImpl.obj
 0004:00001278       $pdata$?allocDescriptor@EnvImpl@@UEAAPEAUDescriptor@dpi@@W4DescriptorType@3@@Z 0000000180079278     dpiEnvImpl.obj
 0004:00001284       $pdata$?allocDescriptorArray@EnvImpl@@UEAAXW4DescriptorType@dpi@@IQEAPEAUDescriptor@3@@Z 0000000180079284     dpiEnvImpl.obj
 0004:00001290       $pdata$??0ExceptionImpl@@QEAA@W4DpiError@dpi@@@Z 0000000180079290     dpiExceptionImpl.obj
 0004:0000129c       $pdata$??0ExceptionImpl@@QEAA@PEBDH0@Z 000000018007929c     dpiExceptionImpl.obj
 0004:000012a8       $pdata$??1ExceptionImpl@@UEAA@XZ 00000001800792a8     dpiExceptionImpl.obj
 0004:000012b4       $pdata$??$_Insert_string@DU?$char_traits@D@std@@_K@std@@YAAEAV?$basic_ostream@DU?$char_traits@D@std@@@0@AEAV10@QEBD_K@Z 00000001800792b4     dpiExceptionImpl.obj
 0004:000012c0       $pdata$??_GConn@dpi@@MEAAPEAXI@Z 00000001800792c0     dpiConnImpl.obj
 0004:000012cc       $pdata$??0ConnImpl@@QEAA@PEAVEnvImpl@@PEAUOCIEnv@@_NIAEBV?$basic_string@DU?$char_traits@D@std@@V?$allocator@D@2@@std@@333W4DBPrivileges@dpi@@@Z 00000001800792cc     dpiConnImpl.obj
 0004:000012d8       $pdata$??0ConnImpl@@QEAA@PEAVPoolImpl@@PEAUOCIEnv@@_NPEAEIAEBV?$basic_string@DU?$char_traits@D@std@@V?$allocator@D@2@@std@@444HW4DBPrivileges@dpi@@H@Z 00000001800792d8     dpiConnImpl.obj
 0004:000012e4       $pdata$??_GConnImpl@@UEAAPEAXI@Z 00000001800792e4     dpiConnImpl.obj
 0004:000012f0       $pdata$?release@ConnImpl@@UEAAXAEBV?$basic_string@DU?$char_traits@D@std@@V?$allocator@D@2@@std@@H@Z 00000001800792f0     dpiConnImpl.obj
 0004:000012fc       $pdata$?stmtCacheSize@ConnImpl@@UEAAXI@Z 00000001800792fc     dpiConnImpl.obj
 0004:00001308       $pdata$?stmtCacheSize@ConnImpl@@UEBAIXZ 0000000180079308     dpiConnImpl.obj
 0004:00001314       $pdata$?lobPrefetchSize@ConnImpl@@UEBAIXZ 0000000180079314     dpiConnImpl.obj
 0004:00001320       $pdata$?clientId@ConnImpl@@UEAAXAEBV?$basic_string@DU?$char_traits@D@std@@V?$allocator@D@2@@std@@@Z 0000000180079320     dpiConnImpl.obj
 0004:0000132c       $pdata$?module@ConnImpl@@UEAAXAEBV?$basic_string@DU?$char_traits@D@std@@V?$allocator@D@2@@std@@@Z 000000018007932c     dpiConnImpl.obj
 0004:00001338       $pdata$?action@ConnImpl@@UEAAXAEBV?$basic_string@DU?$char_traits@D@std@@V?$allocator@D@2@@std@@@Z 0000000180079338     dpiConnImpl.obj
 0004:00001344       $pdata$?getStmt@ConnImpl@@UEAAPEAVStmt@dpi@@AEBV?$basic_string@DU?$char_traits@D@std@@V?$allocator@D@2@@std@@@Z 0000000180079344     dpiConnImpl.obj
 0004:00001350       $pdata$?commit@ConnImpl@@UEAAXXZ 0000000180079350     dpiConnImpl.obj
 0004:0000135c       $pdata$?rollback@ConnImpl@@UEAAXXZ 000000018007935c     dpiConnImpl.obj
 0004:00001368       $pdata$?breakExecution@ConnImpl@@UEAAXXZ 0000000180079368     dpiConnImpl.obj
 0004:00001374       $pdata$0$?breakExecution@ConnImpl@@UEAAXXZ 0000000180079374     dpiConnImpl.obj
 0004:00001380       $pdata$1$?breakExecution@ConnImpl@@UEAAXXZ 0000000180079380     dpiConnImpl.obj
 0004:0000138c       $pdata$?getServerVersion@ConnImpl@@UEAAIXZ 000000018007938c     dpiConnImpl.obj
 0004:00001398       $pdata$?initConnImpl@ConnImpl@@AEAAX_N0AEBV?$basic_string@DU?$char_traits@D@std@@V?$allocator@D@2@@std@@PEAEI111HAEAV23@AEAHW4DBPrivileges@dpi@@@Z 0000000180079398     dpiConnImpl.obj
 0004:000013a4       $pdata$?cleanup@ConnImpl@@AEAAXXZ 00000001800793a4     dpiConnImpl.obj
 0004:000013b0       $pdata$0$?cleanup@ConnImpl@@AEAAXXZ 00000001800793b0     dpiConnImpl.obj
 0004:000013bc       $pdata$1$?cleanup@ConnImpl@@AEAAXXZ 00000001800793bc     dpiConnImpl.obj
 0004:000013c8       $pdata$2$?cleanup@ConnImpl@@AEAAXXZ 00000001800793c8     dpiConnImpl.obj
 0004:000013d4       $pdata$3$?cleanup@ConnImpl@@AEAAXXZ 00000001800793d4     dpiConnImpl.obj
 0004:000013e0       $pdata$??_GDateTimeArray@dpi@@UEAAPEAXI@Z 00000001800793e0     dpiDateTimeArrayImpl.obj
 0004:000013ec       $pdata$??_GDateTimeArrayImpl@dpi@@UEAAPEAXI@Z 00000001800793ec     dpiDateTimeArrayImpl.obj
 0004:000013f8       $pdata$?init@DateTimeArrayImpl@dpi@@UEAAPEAXH@Z 00000001800793f8     dpiDateTimeArrayImpl.obj
 0004:00001404       $pdata$?release@DateTimeArrayImpl@dpi@@UEAAXXZ 0000000180079404     dpiDateTimeArrayImpl.obj
 0004:00001410       $pdata$?getDateTime@DateTimeArrayImpl@dpi@@UEAAOH@Z 0000000180079410     dpiDateTimeArrayImpl.obj
 0004:0000141c       $pdata$?setDateTime@DateTimeArrayImpl@dpi@@UEAAXHO@Z 000000018007941c     dpiDateTimeArrayImpl.obj
 0004:00001428       $pdata$3$?setDateTime@DateTimeArrayImpl@dpi@@UEAAXHO@Z 0000000180079428     dpiDateTimeArrayImpl.obj
 0004:00001434       $pdata$4$?setDateTime@DateTimeArrayImpl@dpi@@UEAAXHO@Z 0000000180079434     dpiDateTimeArrayImpl.obj
 0004:00001440       $pdata$5$?setDateTime@DateTimeArrayImpl@dpi@@UEAAXHO@Z 0000000180079440     dpiDateTimeArrayImpl.obj
 0004:0000144c       $pdata$7$?setDateTime@DateTimeArrayImpl@dpi@@UEAAXHO@Z 000000018007944c     dpiDateTimeArrayImpl.obj
 0004:00001458       $pdata$8$?setDateTime@DateTimeArrayImpl@dpi@@UEAAXHO@Z 0000000180079458     dpiDateTimeArrayImpl.obj
 0004:00001464       $pdata$??_GSPool@dpi@@MEAAPEAXI@Z 0000000180079464     dpiPoolImpl.obj
 0004:00001470       $pdata$??0PoolImpl@@QEAA@PEAVEnvImpl@@PEAUOCIEnv@@AEBV?$basic_string@DU?$char_traits@D@std@@V?$allocator@D@2@@std@@22HHHH_NH3H@Z 0000000180079470     dpiPoolImpl.obj
 0004:0000147c       $pdata$??_GPoolImpl@@UEAAPEAXI@Z 000000018007947c     dpiPoolImpl.obj
 0004:00001488       $pdata$?terminate@PoolImpl@@UEAAXXZ 0000000180079488     dpiPoolImpl.obj
 0004:00001494       $pdata$0$?terminate@PoolImpl@@UEAAXXZ 0000000180079494     dpiPoolImpl.obj
 0004:000014a0       $pdata$1$?terminate@PoolImpl@@UEAAXXZ 00000001800794a0     dpiPoolImpl.obj
 0004:000014ac       $pdata$?poolTimeout@PoolImpl@@UEAAXI@Z 00000001800794ac     dpiPoolImpl.obj
 0004:000014b8       $pdata$?stmtCacheSize@PoolImpl@@UEAAXI@Z 00000001800794b8     dpiPoolImpl.obj
 0004:000014c4       $pdata$?connectionsOpen@PoolImpl@@UEBAIXZ 00000001800794c4     dpiPoolImpl.obj
 0004:000014d0       $pdata$?connectionsInUse@PoolImpl@@UEBAIXZ 00000001800794d0     dpiPoolImpl.obj
 0004:000014dc       $pdata$?getConnection@PoolImpl@@UEAAPEAVConn@dpi@@AEBV?$basic_string@DU?$char_traits@D@std@@V?$allocator@D@2@@std@@000HW4DBPrivileges@3@@Z 00000001800794dc     dpiPoolImpl.obj
 0004:000014e8       $pdata$?cleanup@PoolImpl@@AEAAXXZ 00000001800794e8     dpiPoolImpl.obj
 0004:000014f4       $pdata$??_GStmt@dpi@@UEAAPEAXI@Z 00000001800794f4     dpiStmtImpl.obj
 0004:00001500       $pdata$??0StmtImpl@@QEAA@PEAUOCIEnv@@PEAVConnImpl@@PEAUOCISvcCtx@@AEBV?$basic_string@DU?$char_traits@D@std@@V?$allocator@D@2@@std@@@Z 0000000180079500     dpiStmtImpl.obj
 0004:0000150c       $pdata$??_GStmtImpl@@UEAAPEAXI@Z 000000018007950c     dpiStmtImpl.obj
 0004:00001518       $pdata$?stmtType@StmtImpl@@UEBA?AW4DpiStmtType@dpi@@XZ 0000000180079518     dpiStmtImpl.obj
 0004:00001524       $pdata$0$?stmtType@StmtImpl@@UEBA?AW4DpiStmtType@dpi@@XZ 0000000180079524     dpiStmtImpl.obj
 0004:00001530       $pdata$1$?stmtType@StmtImpl@@UEBA?AW4DpiStmtType@dpi@@XZ 0000000180079530     dpiStmtImpl.obj
 0004:0000153c       $pdata$?rowsAffected@StmtImpl@@UEBA_KXZ 000000018007953c     dpiStmtImpl.obj
 0004:00001548       $pdata$?numCols@StmtImpl@@UEAAIXZ 0000000180079548     dpiStmtImpl.obj
 0004:00001554       $pdata$0$?numCols@StmtImpl@@UEAAIXZ 0000000180079554     dpiStmtImpl.obj
 0004:00001560       $pdata$1$?numCols@StmtImpl@@UEAAIXZ 0000000180079560     dpiStmtImpl.obj
 0004:0000156c       $pdata$?prefetchRows@StmtImpl@@UEAAXI@Z 000000018007956c     dpiStmtImpl.obj
 0004:00001578       $pdata$?bind@StmtImpl@@UEAAXIGPEAX_JPEAFPEAII3PEAUDpiBindCallbackCtx@dpi@@@Z 0000000180079578     dpiStmtImpl.obj
 0004:00001584       $pdata$?bind@StmtImpl@@UEAAXPEBEHIGPEAX_JPEAFPEAII4PEAUDpiBindCallbackCtx@dpi@@@Z 0000000180079584     dpiStmtImpl.obj
 0004:00001590       $pdata$?execute@StmtImpl@@UEAAXH_N@Z 0000000180079590     dpiStmtImpl.obj
 0004:0000159c       $pdata$?release@StmtImpl@@UEAAXXZ 000000018007959c     dpiStmtImpl.obj
 0004:000015a8       $pdata$?define@StmtImpl@@UEAAXIGPEAX_JPEAFPEAIPEAUDpiDefineCallbackCtx@dpi@@@Z 00000001800795a8     dpiStmtImpl.obj
 0004:000015b4       $pdata$?fetch@StmtImpl@@UEAAXI@Z 00000001800795b4     dpiStmtImpl.obj
 0004:000015c0       $pdata$?rowsFetched@StmtImpl@@UEBAIXZ 00000001800795c0     dpiStmtImpl.obj
 0004:000015cc       $pdata$?getMetaData@StmtImpl@@UEAAPEBUMetaData@dpi@@_N@Z 00000001800795cc     dpiStmtImpl.obj
 0004:000015d8       $pdata$0$?getMetaData@StmtImpl@@UEAAPEBUMetaData@dpi@@_N@Z 00000001800795d8     dpiStmtImpl.obj
 0004:000015e4       $pdata$1$?getMetaData@StmtImpl@@UEAAPEBUMetaData@dpi@@_N@Z 00000001800795e4     dpiStmtImpl.obj
 0004:000015f0       $pdata$?cleanup@StmtImpl@@AEAAXXZ 00000001800795f0     dpiStmtImpl.obj
 0004:000015fc       $pdata$0$?cleanup@StmtImpl@@AEAAXXZ 00000001800795fc     dpiStmtImpl.obj
 0004:00001608       $pdata$1$?cleanup@StmtImpl@@AEAAXXZ 0000000180079608     dpiStmtImpl.obj
 0004:00001614       $pdata$?outbindCallback@StmtImpl@@SAHPEAXPEAUOCIBind@@IIPEAPEAXPEAPEAIPEAE2PEAPEAG@Z 0000000180079614     dpiStmtImpl.obj
 0004:00001620       $pdata$0$?outbindCallback@StmtImpl@@SAHPEAXPEAUOCIBind@@IIPEAPEAXPEAPEAIPEAE2PEAPEAG@Z 0000000180079620     dpiStmtImpl.obj
 0004:0000162c       $pdata$1$?outbindCallback@StmtImpl@@SAHPEAXPEAUOCIBind@@IIPEAPEAXPEAPEAIPEAE2PEAPEAG@Z 000000018007962c     dpiStmtImpl.obj
 0004:00001638       $pdata$2$?outbindCallback@StmtImpl@@SAHPEAXPEAUOCIBind@@IIPEAPEAXPEAPEAIPEAE2PEAPEAG@Z 0000000180079638     dpiStmtImpl.obj
 0004:00001644       $pdata$3$?outbindCallback@StmtImpl@@SAHPEAXPEAUOCIBind@@IIPEAPEAXPEAPEAIPEAE2PEAPEAG@Z 0000000180079644     dpiStmtImpl.obj
 0004:00001650       $pdata$?defineCallback@StmtImpl@@SAHPEAXPEAUOCIDefine@@IPEAPEAXPEAPEAIPEAE2PEAPEAG@Z 0000000180079650     dpiStmtImpl.obj
 0004:0000165c       $pdata$?isReturning@StmtImpl@@UEAA_NXZ 000000018007965c     dpiStmtImpl.obj
 0004:00001668       $pdata$0$?isReturning@StmtImpl@@UEAA_NXZ 0000000180079668     dpiStmtImpl.obj
 0004:00001674       $pdata$1$?isReturning@StmtImpl@@UEAA_NXZ 0000000180079674     dpiStmtImpl.obj
 0004:00001680       $pdata$?getState@StmtImpl@@UEAAIXZ 0000000180079680     dpiStmtImpl.obj
 0004:0000168c       $pdata$0$?getState@StmtImpl@@UEAAIXZ 000000018007968c     dpiStmtImpl.obj
 0004:00001698       $pdata$1$?getState@StmtImpl@@UEAAIXZ 0000000180079698     dpiStmtImpl.obj
 0004:000016a4       $pdata$?ociCallCommon@@YAXHPEAXI@Z 00000001800796a4     dpiUtils.obj
 0004:000016b0       $pdata$?load_exe_hook@@YAP6A_JXZIPEAUDelayLoadInfo@@@Z 00000001800796b0     win_delay_load_hook.obj
 0004:000016c8       $pdata$??0_Init_locks@std@@QEAA@XZ 00000001800796c8     libcpmt:xlock.obj
 0004:000016d4       $pdata$??0_Lockit@std@@QEAA@H@Z 00000001800796d4     libcpmt:xlock.obj
 0004:000016e0       $pdata$??1_Init_locks@std@@QEAA@XZ 00000001800796e0     libcpmt:xlock.obj
 0004:000016ec       $pdata$??1_Lockit@std@@QEAA@XZ 00000001800796ec     libcpmt:xlock.obj
 0004:000016f8       $pdata$??0exception@std@@QEAA@AEBV01@@Z 00000001800796f8     libcpmt:xonce.obj
 0004:00001704       $pdata$??4?$_Yarn@D@std@@QEAAAEAV01@PEBD@Z 0000000180079704     libcpmt:locale0.obj
 0004:00001710       $pdata$??_G_Fac_node@std@@QEAAPEAXI@Z 0000000180079710     libcpmt:locale0.obj
 0004:0000171c       $pdata$??_G_Locimp@locale@std@@MEAAPEAXI@Z 000000018007971c     libcpmt:locale0.obj
 0004:00001728       $pdata$?_Facet_Register@std@@YAXPEAV_Facet_base@1@@Z 0000000180079728     libcpmt:locale0.obj
 0004:00001734       $pdata$?_Init@locale@std@@CAPEAV_Locimp@12@_N@Z 0000000180079734     libcpmt:locale0.obj
 0004:00001740       $pdata$?_Locimp_dtor@_Locimp@locale@std@@CAXPEAV123@@Z 0000000180079740     libcpmt:locale0.obj
 0004:0000174c       $pdata$?_Locinfo_ctor@_Locinfo@std@@SAXPEAV12@PEBD@Z 000000018007974c     libcpmt:locale0.obj
 0004:00001758       $pdata$?_Locinfo_dtor@_Locinfo@std@@SAXPEAV12@@Z 0000000180079758     libcpmt:locale0.obj
 0004:00001764       $pdata$?_New_Locimp@_Locimp@locale@std@@CAPEAV123@_N@Z 0000000180079764     libcpmt:locale0.obj
 0004:00001770       $pdata$?_Setgloballocale@locale@std@@CAXPEAX@Z 0000000180079770     libcpmt:locale0.obj
 0004:0000177c       $pdata$_Deletegloballocale 000000018007977c     libcpmt:locale0.obj
 0004:00001788       $pdata$tidy_global         0000000180079788     libcpmt:locale0.obj
 0004:00001794       $pdata$??0bad_alloc@std@@QEAA@AEBV01@@Z 0000000180079794     libcpmt:xthrow.obj
 0004:000017a0       $pdata$??0length_error@std@@QEAA@AEBV01@@Z 00000001800797a0     libcpmt:xthrow.obj
 0004:000017ac       $pdata$??0length_error@std@@QEAA@PEBD@Z 00000001800797ac     libcpmt:xthrow.obj
 0004:000017b8       $pdata$??0logic_error@std@@QEAA@AEBV01@@Z 00000001800797b8     libcpmt:xthrow.obj
 0004:000017c4       $pdata$??0out_of_range@std@@QEAA@AEBV01@@Z 00000001800797c4     libcpmt:xthrow.obj
 0004:000017d0       $pdata$??0out_of_range@std@@QEAA@PEBD@Z 00000001800797d0     libcpmt:xthrow.obj
 0004:000017dc       $pdata$??_Gbad_exception@std@@UEAAPEAXI@Z 00000001800797dc     libvcruntime:frame.obj
 0004:000017dc       $pdata$??_Gout_of_range@std@@UEAAPEAXI@Z 00000001800797dc     libcpmt:xthrow.obj
 0004:000017dc       $pdata$??_Gexception@std@@UEAAPEAXI@Z 00000001800797dc     libcpmt:xonce.obj
 0004:000017dc       $pdata$??_Glength_error@std@@UEAAPEAXI@Z 00000001800797dc     libcpmt:xthrow.obj
 0004:000017dc       $pdata$??_Gbad_alloc@std@@UEAAPEAXI@Z 00000001800797dc     libcpmt:xthrow.obj
 0004:000017dc       $pdata$??_Glogic_error@std@@UEAAPEAXI@Z 00000001800797dc     libcpmt:xthrow.obj
 0004:000017dc       $pdata$??_Gbad_array_new_length@std@@UEAAPEAXI@Z 00000001800797dc     LIBCMT:throw_bad_alloc.obj
 0004:000017e8       $pdata$?_Xlength_error@std@@YAXPEBD@Z 00000001800797e8     libcpmt:xthrow.obj
 0004:000017f4       $pdata$?_Xout_of_range@std@@YAXPEBD@Z 00000001800797f4     libcpmt:xthrow.obj
 0004:00001800       $pdata$?_Ios_base_dtor@ios_base@std@@CAXPEAV12@@Z 0000000180079800     libcpmt:ios.obj
 0004:0000180c       $pdata$?_Tidy@ios_base@std@@AEAAXXZ 000000018007980c     libcpmt:ios.obj
 0004:00001818       $pdata$_Getctype           0000000180079818     libcpmt:_tolower.obj
 0004:00001824       $pdata$_Tolower            0000000180079824     libcpmt:_tolower.obj
 0004:00001830       $pdata$_Getcvt             0000000180079830     libcpmt:xwctomb.obj
 0004:0000183c       $pdata$_Toupper            000000018007983c     libcpmt:_toupper.obj
 0004:00001848       $pdata$?initialize_pointers@@YAHXZ 0000000180079848     libcpmt:winapisupp.obj
 0004:00001854       $pdata$__crtInitOnceExecuteOnce 0000000180079854     libcpmt:winapisupp.obj
 0004:00001860       $pdata$__crtInitializeCriticalSectionEx 0000000180079860     libcpmt:winapisupp.obj
 0004:0000186c       $pdata$?_Atexit@@YAXP6AXXZ@Z 000000018007986c     libcpmt:iosptrs.obj
 0004:00001878       $pdata$__crtLCMapStringA   0000000180079878     libcpmt:StlLCMapStringA.obj
 0004:00001884       $pdata$GetTableIndexFromLocaleName 0000000180079884     libcpmt:winapinls.obj
 0004:00001890       $pdata$__crtDownlevelLocaleNameToLCID 0000000180079890     libcpmt:winapinls.obj
 0004:0000189c       $pdata$__crtLCMapStringEx  000000018007989c     libcpmt:winapinls.obj
 0004:000018b4       $pdata$?__scrt_initialize_thread_safe_statics@@YAHXZ 00000001800798b4     LIBCMT:thread_safe_statics.obj
 0004:000018c0       $pdata$?__scrt_uninitialize_thread_safe_statics@@YAXXZ 00000001800798c0     LIBCMT:thread_safe_statics.obj
 0004:000018cc       $pdata$_Init_thread_footer 00000001800798cc     LIBCMT:thread_safe_statics.obj
 0004:000018d8       $pdata$_Init_thread_header 00000001800798d8     LIBCMT:thread_safe_statics.obj
 0004:000018e4       $pdata$_Init_thread_notify 00000001800798e4     LIBCMT:thread_safe_statics.obj
 0004:000018f0       $pdata$_Init_thread_wait   00000001800798f0     LIBCMT:thread_safe_statics.obj
 0004:000018fc       $pdata$??2@YAPEAX_K@Z      00000001800798fc     LIBCMT:new_scalar.obj
 0004:00001908       $pdata$__scrt_acquire_startup_lock 0000000180079908     LIBCMT:utility.obj
 0004:00001914       $pdata$__scrt_dllmain_after_initialize_c 0000000180079914     LIBCMT:utility.obj
 0004:00001920       $pdata$__scrt_dllmain_before_initialize_c 0000000180079920     LIBCMT:utility.obj
 0004:0000192c       $pdata$__scrt_dllmain_crt_thread_attach 000000018007992c     LIBCMT:utility.obj
 0004:00001938       $pdata$__scrt_dllmain_crt_thread_detach 0000000180079938     LIBCMT:utility.obj
 0004:00001944       $pdata$__scrt_dllmain_exception_filter 0000000180079944     LIBCMT:utility.obj
 0004:00001950       $pdata$__scrt_dllmain_uninitialize_c 0000000180079950     LIBCMT:utility.obj
 0004:0000195c       $pdata$__scrt_dllmain_uninitialize_critical 000000018007995c     LIBCMT:utility.obj
 0004:00001968       $pdata$__scrt_initialize_crt 0000000180079968     LIBCMT:utility.obj
 0004:00001974       $pdata$__scrt_initialize_onexit_tables 0000000180079974     LIBCMT:utility.obj
 0004:00001980       $pdata$__scrt_is_nonwritable_in_current_image 0000000180079980     LIBCMT:utility.obj
 0004:0000198c       $pdata$__scrt_release_startup_lock 000000018007998c     LIBCMT:utility.obj
 0004:00001998       $pdata$__scrt_uninitialize_crt 0000000180079998     LIBCMT:utility.obj
 0004:000019a4       $pdata$_onexit             00000001800799a4     LIBCMT:utility.obj
 0004:000019b0       $pdata$atexit              00000001800799b0     LIBCMT:utility.obj
 0004:000019bc       $pdata$??_Gtype_info@@UEAAPEAXI@Z 00000001800799bc     LIBCMT:std_type_info_static.obj
 0004:000019c8       $pdata$??_M@YAXPEAX_K1P6AX0@Z@Z 00000001800799c8     LIBCMT:ehvecdtr.obj
 0004:000019d4       $pdata$?__ArrayUnwind@@YAXPEAX_K1P6AX0@Z@Z 00000001800799d4     LIBCMT:ehvecdtr.obj
 0004:000019e0       $pdata$??_L@YAXPEAX_K1P6AX0@Z2@Z 00000001800799e0     LIBCMT:ehvecctr.obj
 0004:000019ec       $pdata$__raise_securityfailure 00000001800799ec     LIBCMT:gs_report.obj
 0004:000019f8       $pdata$__report_gsfailure  00000001800799f8     LIBCMT:gs_report.obj
 0004:00001a04       $pdata$__report_rangecheckfailure 0000000180079a04     LIBCMT:gs_report.obj
 0004:00001a10       $pdata$__report_securityfailure 0000000180079a10     LIBCMT:gs_report.obj
 0004:00001a1c       $pdata$capture_current_context 0000000180079a1c     LIBCMT:gs_report.obj
 0004:00001a28       $pdata$capture_previous_context 0000000180079a28     LIBCMT:gs_report.obj
 0004:00001a34       $pdata$?dllmain_crt_dispatch@@YAHQEAUHINSTANCE__@@KQEAX@Z 0000000180079a34     LIBCMT:dll_dllmain.obj
 0004:00001a40       $pdata$?dllmain_crt_process_attach@@YAHQEAUHINSTANCE__@@QEAX@Z 0000000180079a40     LIBCMT:dll_dllmain.obj
 0004:00001a4c       $pdata$?dllmain_crt_process_detach@@YAH_N@Z 0000000180079a4c     LIBCMT:dll_dllmain.obj
 0004:00001a58       $pdata$?dllmain_dispatch@@YAHQEAUHINSTANCE__@@KQEAX@Z 0000000180079a58     LIBCMT:dll_dllmain.obj
 0004:00001a64       $pdata$?dllmain_raw@@YAHQEAUHINSTANCE__@@KQEAX@Z 0000000180079a64     LIBCMT:dll_dllmain.obj
 0004:00001a70       $pdata$_DllMainCRTStartup  0000000180079a70     LIBCMT:dll_dllmain.obj
 0004:00001a7c       $pdata$__GSHandlerCheck    0000000180079a7c     LIBCMT:_gshandler_.obj
 0004:00001a88       $pdata$__GSHandlerCheckCommon 0000000180079a88     LIBCMT:_gshandler_.obj
 0004:00001a94       $pdata$__GSHandlerCheck_EH 0000000180079a94     LIBCMT:gshandlereh.obj
 0004:00001aac       $pdata$__scrt_fastfail     0000000180079aac     LIBCMT:utility_desktop.obj
 0004:00001ab8       $pdata$??0bad_array_new_length@std@@QEAA@AEBV01@@Z 0000000180079ab8     LIBCMT:throw_bad_alloc.obj
 0004:00001ac4       $pdata$?_Xbad_alloc@std@@YAXXZ 0000000180079ac4     libcpmt:xthrow.obj
 0004:00001ac4       $pdata$?__scrt_throw_std_bad_alloc@@YAXXZ 0000000180079ac4     LIBCMT:throw_bad_alloc.obj
 0004:00001ad0       $pdata$?__scrt_throw_std_bad_array_new_length@@YAXXZ 0000000180079ad0     LIBCMT:throw_bad_alloc.obj
 0004:00001adc       $pdata$__isa_available_init 0000000180079adc     LIBCMT:_cpu_disp_.obj
 0004:00001ae8       $pdata$__security_init_cookie 0000000180079ae8     LIBCMT:gs_support.obj
 0004:00001af4       $pdata$__scrt_initialize_default_local_stdio_options 0000000180079af4     LIBCMT:default_local_stdio_options.obj
 0004:00001b00       $pdata$_RTC_Initialize     0000000180079b00     LIBCMT:_initsect_.obj
 0004:00001b0c       $pdata$_RTC_Terminate      0000000180079b0c     LIBCMT:_initsect_.obj
 0004:00001b18       $pdata$?_ExecutionInCatch@@YAHPEAU_xDISPATCHER_CONTEXT@@PEBU_s_FuncInfo@@@Z 0000000180079b18     libvcruntime:risctrnsctrl.obj
 0004:00001b24       $pdata$?_GetEstablisherFrame@@YAPEA_KPEA_KPEAU_xDISPATCHER_CONTEXT@@PEBU_s_FuncInfo@@0@Z 0000000180079b24     libvcruntime:risctrnsctrl.obj
 0004:00001b30       $pdata$?_GetRangeOfTrysToCheck@@YAPEBU_s_TryBlockMapEntry@@PEA_KPEBU_s_FuncInfo@@HHPEAI2PEAU_xDISPATCHER_CONTEXT@@@Z 0000000180079b30     libvcruntime:risctrnsctrl.obj
 0004:00001b3c       $pdata$?__FrameUnwindToEmptyState@@YAXPEA_KPEAU_xDISPATCHER_CONTEXT@@PEBU_s_FuncInfo@@@Z 0000000180079b3c     libvcruntime:risctrnsctrl.obj
 0004:00001b48       $pdata$_CallSETranslator   0000000180079b48     libvcruntime:risctrnsctrl.obj
 0004:00001b54       $pdata$_CreateFrameInfo    0000000180079b54     libvcruntime:risctrnsctrl.obj
 0004:00001b60       $pdata$_FindAndUnlinkFrame 0000000180079b60     libvcruntime:risctrnsctrl.obj
 0004:00001b6c       $pdata$_GetImageBase       0000000180079b6c     libvcruntime:risctrnsctrl.obj
 0004:00001b78       $pdata$_GetThrowImageBase  0000000180079b78     libvcruntime:risctrnsctrl.obj
 0004:00001b84       $pdata$_SetImageBase       0000000180079b84     libvcruntime:risctrnsctrl.obj
 0004:00001b90       $pdata$_SetThrowImageBase  0000000180079b90     libvcruntime:risctrnsctrl.obj
 0004:00001b9c       $pdata$_UnwindNestedFrames 0000000180079b9c     libvcruntime:risctrnsctrl.obj
 0004:00001ba8       $pdata$__CxxFrameHandler3  0000000180079ba8     libvcruntime:risctrnsctrl.obj
 0004:00001bc0       $pdata$_purecall           0000000180079bc0     libvcruntime:purevirt.obj
 0004:00001bcc       $pdata$__DestructExceptionObject 0000000180079bcc     libvcruntime:ehhelpers.obj
 0004:00001bd8       $pdata$_IsExceptionObjectToBeDestroyed 0000000180079bd8     libvcruntime:ehhelpers.obj
 0004:00001be4       $pdata$__FrameUnwindFilter 0000000180079be4     libvcruntime:ehhelpers.obj
 0004:00001bf0       $pdata$__std_terminate     0000000180079bf0     libvcruntime:ehhelpers.obj
 0004:00001bfc       $pdata$__std_exception_copy 0000000180079bfc     libvcruntime:std_exception.obj
 0004:00001c08       $pdata$__std_exception_destroy 0000000180079c08     libvcruntime:std_exception.obj
 0004:00001c14       $pdata$_CxxThrowException  0000000180079c14     libvcruntime:throw.obj
 0004:00001c44       $pdata$?try_get_function@@YAPEAXW4function_id@?A0x2db55455@@QEBDQEBW4module_id@2@2@Z 0000000180079c44     libvcruntime:winapi_downlevel.obj
 0004:00001c50       $pdata$__vcrt_FlsAlloc     0000000180079c50     libvcruntime:winapi_downlevel.obj
 0004:00001c5c       $pdata$__vcrt_FlsFree      0000000180079c5c     libvcruntime:winapi_downlevel.obj
 0004:00001c68       $pdata$__vcrt_FlsGetValue  0000000180079c68     libvcruntime:winapi_downlevel.obj
 0004:00001c74       $pdata$__vcrt_FlsSetValue  0000000180079c74     libvcruntime:winapi_downlevel.obj
 0004:00001c80       $pdata$__vcrt_InitializeCriticalSectionEx 0000000180079c80     libvcruntime:winapi_downlevel.obj
 0004:00001c8c       $pdata$__vcrt_initialize_winapi_thunks 0000000180079c8c     libvcruntime:winapi_downlevel.obj
 0004:00001c98       $pdata$__vcrt_uninitialize_winapi_thunks 0000000180079c98     libvcruntime:winapi_downlevel.obj
 0004:00001ca4       $pdata$__vcrt_initialize   0000000180079ca4     libvcruntime:initialization.obj
 0004:00001cb0       $pdata$__vcrt_thread_attach 0000000180079cb0     libvcruntime:initialization.obj
 0004:00001cbc       $pdata$__vcrt_thread_detach 0000000180079cbc     libvcruntime:initialization.obj
 0004:00001cc8       $pdata$__vcrt_uninitialize 0000000180079cc8     libvcruntime:initialization.obj
 0004:00001cd4       $pdata$__vcrt_uninitialize_critical 0000000180079cd4     libvcruntime:initialization.obj
 0004:00001ce0       $pdata$__C_specific_handler 0000000180079ce0     libvcruntime:_riscchandler_.obj
 0004:00001cec       $pdata$__std_type_info_destroy_list 0000000180079cec     libvcruntime:std_type_info.obj
 0004:00001cf8       $pdata$__vcrt_freefls      0000000180079cf8     libvcruntime:per_thread_data.obj
 0004:00001d04       $pdata$__vcrt_freeptd      0000000180079d04     libvcruntime:per_thread_data.obj
 0004:00001d10       $pdata$__vcrt_getptd       0000000180079d10     libvcruntime:per_thread_data.obj
 0004:00001d1c       $pdata$__vcrt_getptd_noexit 0000000180079d1c     libvcruntime:per_thread_data.obj
 0004:00001d28       $pdata$__vcrt_initialize_ptd 0000000180079d28     libvcruntime:per_thread_data.obj
 0004:00001d34       $pdata$__vcrt_uninitialize_ptd 0000000180079d34     libvcruntime:per_thread_data.obj
 0004:00001d40       $pdata$?__GetCurrentState@@YAHPEA_KPEAU_xDISPATCHER_CONTEXT@@PEBU_s_FuncInfo@@@Z 0000000180079d40     libvcruntime:riscehstate.obj
 0004:00001d4c       $pdata$?__GetUnwindTryBlock@@YAHPEA_KPEAU_xDISPATCHER_CONTEXT@@PEBU_s_FuncInfo@@@Z 0000000180079d4c     libvcruntime:riscehstate.obj
 0004:00001d58       $pdata$?__SetUnwindTryBlock@@YAXPEA_KPEAU_xDISPATCHER_CONTEXT@@PEBU_s_FuncInfo@@H@Z 0000000180079d58     libvcruntime:riscehstate.obj
 0004:00001d64       $pdata$?__StateFromIp@@YAHPEBU_s_FuncInfo@@PEAU_xDISPATCHER_CONTEXT@@_K@Z 0000000180079d64     libvcruntime:riscehstate.obj
 0004:00001d70       $pdata$??0bad_exception@std@@QEAA@AEBV01@@Z 0000000180079d70     libvcruntime:frame.obj
 0004:00001d7c       $pdata$?CatchIt@@YAXPEAUEHExceptionRecord@@PEA_KPEAU_CONTEXT@@PEAU_xDISPATCHER_CONTEXT@@PEBU_s_FuncInfo@@PEBU_s_HandlerType@@PEBU_s_CatchableType@@PEBU_s_TryBlockMapEntry@@H1EE@Z 0000000180079d7c     libvcruntime:frame.obj
 0004:00001d88       $pdata$?ExFilterRethrow@@YAHPEAU_EXCEPTION_POINTERS@@PEAUEHExceptionRecord@@PEAH@Z 0000000180079d88     libvcruntime:frame.obj
 0004:00001d94       $pdata$?FindHandler@@YAXPEAUEHExceptionRecord@@PEA_KPEAU_CONTEXT@@PEAU_xDISPATCHER_CONTEXT@@PEBU_s_FuncInfo@@EH1@Z 0000000180079d94     libvcruntime:frame.obj
 0004:00001da0       $pdata$?FindHandlerForForeignException@@YAXPEAUEHExceptionRecord@@PEA_KPEAU_CONTEXT@@PEAU_xDISPATCHER_CONTEXT@@PEBU_s_FuncInfo@@HH1@Z 0000000180079da0     libvcruntime:frame.obj
 0004:00001dac       $pdata$?IsInExceptionSpec@@YAEPEAUEHExceptionRecord@@PEBU_s_ESTypeList@@@Z 0000000180079dac     libvcruntime:frame.obj
 0004:00001db8       $pdata$__BuildCatchObject  0000000180079db8     libvcruntime:frame.obj
 0004:00001dc4       $pdata$__BuildCatchObjectHelper 0000000180079dc4     libvcruntime:frame.obj
 0004:00001dd0       $pdata$__CxxCallCatchBlock 0000000180079dd0     libvcruntime:frame.obj
 0004:00001ddc       $pdata$__FrameUnwindToState 0000000180079ddc     libvcruntime:frame.obj
 0004:00001de8       $pdata$__InternalCxxFrameHandler 0000000180079de8     libvcruntime:frame.obj
 0004:00001df4       $pdata$__TypeMatch         0000000180079df4     libvcruntime:frame.obj
 0004:00001e00       $pdata$__vcrt_initialize_locks 0000000180079e00     libvcruntime:locks.obj
 0004:00001e0c       $pdata$__vcrt_uninitialize_locks 0000000180079e0c     libvcruntime:locks.obj
 0004:00001e54       $pdata$abort               0000000180079e54     libucrt:abort.obj
 0004:00001e60       $pdata$__acrt_call_reportfault 0000000180079e60     libucrt:invalid_parameter.obj
 0004:00001e6c       $pdata$_invalid_parameter  0000000180079e6c     libucrt:invalid_parameter.obj
 0004:00001e78       $pdata$_invalid_parameter_noinfo 0000000180079e78     libucrt:invalid_parameter.obj
 0004:00001e84       $pdata$_invalid_parameter_noinfo_noreturn 0000000180079e84     libucrt:invalid_parameter.obj
 0004:00001e90       $pdata$_invoke_watson      0000000180079e90     libucrt:invalid_parameter.obj
 0004:00001e9c       $pdata$strcspn             0000000180079e9c     libucrt:strcspn.obj
 0004:00001ea8       $pdata$??$?RV<lambda_0d412022a4b28cc8a401ea49574e8ae6>@@AEAV<lambda_a775ed57af18ba8e4d5dc780aa9068fe>@@V<lambda_975a71a6baa488a08f4e15f6b0339b9e>@@@?$__crt_seh_guarded_call@H@@QEAAH$$QEAV<lambda_0d412022a4b28cc8a401ea49574e8ae6>@@AEAV<lambda_a775ed57af18ba8e4d5dc780aa9068fe>@@$$QEAV<lambda_975a71a6baa488a08f4e15f6b0339b9e>@@@Z 0000000180079ea8     libucrt:output.obj
 0004:00001eb4       $pdata$??$common_vsprintf@Vformat_validation_base@__crt_stdio_output@@D@@YAH_KQEAD0QEBDQEAU__crt_locale_pointers@@1@Z 0000000180079eb4     libucrt:output.obj
 0004:00001ec0       $pdata$??$common_vsprintf@Vstandard_base@__crt_stdio_output@@D@@YAH_KQEAD0QEBDQEAU__crt_locale_pointers@@1@Z 0000000180079ec0     libucrt:output.obj
 0004:00001ecc       $pdata$??$common_vsprintf@Vstandard_base@__crt_stdio_output@@_W@@YAH_KQEA_W0QEB_WQEAU__crt_locale_pointers@@QEAD@Z 0000000180079ecc     libucrt:output.obj
 0004:00001ed8       $pdata$??$ensure_buffer_is_big_enough@D@formatting_buffer@__crt_stdio_output@@QEAA_N_K@Z 0000000180079ed8     libucrt:output.obj
 0004:00001ee4       $pdata$??$type_case_integer_parse_into_buffer@I@?$output_processor@DV?$string_output_adapter@D@__crt_stdio_output@@V?$format_validation_base@DV?$string_output_adapter@D@__crt_stdio_output@@@2@@__crt_stdio_output@@AEAAXII_N@Z 0000000180079ee4     libucrt:output.obj
 0004:00001ee4       $pdata$??$type_case_integer_parse_into_buffer@I@?$output_processor@DV?$string_output_adapter@D@__crt_stdio_output@@V?$standard_base@DV?$string_output_adapter@D@__crt_stdio_output@@@2@@__crt_stdio_output@@AEAAXII_N@Z 0000000180079ee4     libucrt:output.obj
 0004:00001ef0       $pdata$??$type_case_integer_parse_into_buffer@I@?$output_processor@_WV?$string_output_adapter@_W@__crt_stdio_output@@V?$standard_base@_WV?$string_output_adapter@_W@__crt_stdio_output@@@2@@__crt_stdio_output@@AEAAXII_N@Z 0000000180079ef0     libucrt:output.obj
 0004:00001ef0       $pdata$??$type_case_integer_parse_into_buffer@I@?$output_processor@_WV?$stream_output_adapter@_W@__crt_stdio_output@@V?$standard_base@_WV?$stream_output_adapter@_W@__crt_stdio_output@@@2@@__crt_stdio_output@@AEAAXII_N@Z 0000000180079ef0     libucrt:output.obj
 0004:00001efc       $pdata$??$type_case_integer_parse_into_buffer@_K@?$output_processor@DV?$string_output_adapter@D@__crt_stdio_output@@V?$format_validation_base@DV?$string_output_adapter@D@__crt_stdio_output@@@2@@__crt_stdio_output@@AEAAX_KI_N@Z 0000000180079efc     libucrt:output.obj
 0004:00001efc       $pdata$??$type_case_integer_parse_into_buffer@_K@?$output_processor@DV?$string_output_adapter@D@__crt_stdio_output@@V?$standard_base@DV?$string_output_adapter@D@__crt_stdio_output@@@2@@__crt_stdio_output@@AEAAX_KI_N@Z 0000000180079efc     libucrt:output.obj
 0004:00001f08       $pdata$??$type_case_integer_parse_into_buffer@_K@?$output_processor@_WV?$stream_output_adapter@_W@__crt_stdio_output@@V?$standard_base@_WV?$stream_output_adapter@_W@__crt_stdio_output@@@2@@__crt_stdio_output@@AEAAX_KI_N@Z 0000000180079f08     libucrt:output.obj
 0004:00001f08       $pdata$??$type_case_integer_parse_into_buffer@_K@?$output_processor@_WV?$string_output_adapter@_W@__crt_stdio_output@@V?$standard_base@_WV?$string_output_adapter@_W@__crt_stdio_output@@@2@@__crt_stdio_output@@AEAAX_KI_N@Z 0000000180079f08     libucrt:output.obj
 0004:00001f14       $pdata$??$write_multiple_characters@V?$stream_output_adapter@_W@__crt_stdio_output@@D@__crt_stdio_output@@YAXAEBV?$stream_output_adapter@_W@0@DHQEAH@Z 0000000180079f14     libucrt:output.obj
 0004:00001f20       $pdata$??$write_multiple_characters@V?$string_output_adapter@D@__crt_stdio_output@@D@__crt_stdio_output@@YAXAEBV?$string_output_adapter@D@0@DHQEAH@Z 0000000180079f20     libucrt:output.obj
 0004:00001f2c       $pdata$??$write_multiple_characters@V?$string_output_adapter@_W@__crt_stdio_output@@D@__crt_stdio_output@@YAXAEBV?$string_output_adapter@_W@0@DHQEAH@Z 0000000180079f2c     libucrt:output.obj
 0004:00001f38       $pdata$??0_LocaleUpdate@@QEAA@QEAU__crt_locale_pointers@@@Z 0000000180079f38     libucrt:output.obj
 0004:00001f44       $pdata$??R<lambda_a775ed57af18ba8e4d5dc780aa9068fe>@@QEBAHXZ 0000000180079f44     libucrt:output.obj
 0004:00001f50       $pdata$?force_decimal_point@__crt_stdio_output@@YAXPEADQEAU__crt_locale_pointers@@@Z 0000000180079f50     libucrt:output.obj
 0004:00001f5c       $pdata$?parse_int_from_format_string@?$output_processor@DV?$string_output_adapter@D@__crt_stdio_output@@V?$standard_base@DV?$string_output_adapter@D@__crt_stdio_output@@@2@@__crt_stdio_output@@AEAA_NQEAH@Z 0000000180079f5c     libucrt:output.obj
 0004:00001f5c       $pdata$?parse_int_from_format_string@?$output_processor@DV?$string_output_adapter@D@__crt_stdio_output@@V?$format_validation_base@DV?$string_output_adapter@D@__crt_stdio_output@@@2@@__crt_stdio_output@@AEAA_NQEAH@Z 0000000180079f5c     libucrt:output.obj
 0004:00001f68       $pdata$?parse_int_from_format_string@?$output_processor@_WV?$string_output_adapter@_W@__crt_stdio_output@@V?$standard_base@_WV?$string_output_adapter@_W@__crt_stdio_output@@@2@@__crt_stdio_output@@AEAA_NQEAH@Z 0000000180079f68     libucrt:output.obj
 0004:00001f68       $pdata$?parse_int_from_format_string@?$output_processor@_WV?$stream_output_adapter@_W@__crt_stdio_output@@V?$standard_base@_WV?$stream_output_adapter@_W@__crt_stdio_output@@@2@@__crt_stdio_output@@AEAA_NQEAH@Z 0000000180079f68     libucrt:output.obj
 0004:00001f74       $pdata$?process@?$output_processor@DV?$string_output_adapter@D@__crt_stdio_output@@V?$format_validation_base@DV?$string_output_adapter@D@__crt_stdio_output@@@2@@__crt_stdio_output@@QEAAHXZ 0000000180079f74     libucrt:output.obj
 0004:00001f80       $pdata$?process@?$output_processor@DV?$string_output_adapter@D@__crt_stdio_output@@V?$standard_base@DV?$string_output_adapter@D@__crt_stdio_output@@@2@@__crt_stdio_output@@QEAAHXZ 0000000180079f80     libucrt:output.obj
 0004:00001f8c       $pdata$?process@?$output_processor@_WV?$stream_output_adapter@_W@__crt_stdio_output@@V?$standard_base@_WV?$stream_output_adapter@_W@__crt_stdio_output@@@2@@__crt_stdio_output@@QEAAHXZ 0000000180079f8c     libucrt:output.obj
 0004:00001f98       $pdata$?process@?$output_processor@_WV?$string_output_adapter@_W@__crt_stdio_output@@V?$standard_base@_WV?$string_output_adapter@_W@__crt_stdio_output@@@2@@__crt_stdio_output@@QEAAHXZ 0000000180079f98     libucrt:output.obj
 0004:00001fa4       $pdata$?state_case_normal@?$output_processor@DV?$string_output_adapter@D@__crt_stdio_output@@V?$standard_base@DV?$string_output_adapter@D@__crt_stdio_output@@@2@@__crt_stdio_output@@AEAA_NXZ 0000000180079fa4     libucrt:output.obj
 0004:00001fa4       $pdata$?state_case_normal@?$output_processor@DV?$string_output_adapter@D@__crt_stdio_output@@V?$format_validation_base@DV?$string_output_adapter@D@__crt_stdio_output@@@2@@__crt_stdio_output@@AEAA_NXZ 0000000180079fa4     libucrt:output.obj
 0004:00001fb0       $pdata$?state_case_normal_tchar@?$output_processor@DV?$string_output_adapter@D@__crt_stdio_output@@V?$standard_base@DV?$string_output_adapter@D@__crt_stdio_output@@@2@@__crt_stdio_output@@AEAA_ND@Z 0000000180079fb0     libucrt:output.obj
 0004:00001fb0       $pdata$?state_case_normal_tchar@?$output_processor@DV?$string_output_adapter@D@__crt_stdio_output@@V?$format_validation_base@DV?$string_output_adapter@D@__crt_stdio_output@@@2@@__crt_stdio_output@@AEAA_ND@Z 0000000180079fb0     libucrt:output.obj
 0004:00001fbc       $pdata$?state_case_size@?$output_processor@DV?$string_output_adapter@D@__crt_stdio_output@@V?$standard_base@DV?$string_output_adapter@D@__crt_stdio_output@@@2@@__crt_stdio_output@@AEAA_NXZ 0000000180079fbc     libucrt:output.obj
 0004:00001fbc       $pdata$?state_case_size@?$output_processor@DV?$string_output_adapter@D@__crt_stdio_output@@V?$format_validation_base@DV?$string_output_adapter@D@__crt_stdio_output@@@2@@__crt_stdio_output@@AEAA_NXZ 0000000180079fbc     libucrt:output.obj
 0004:00001fc8       $pdata$?state_case_size@?$output_processor@_WV?$stream_output_adapter@_W@__crt_stdio_output@@V?$standard_base@_WV?$stream_output_adapter@_W@__crt_stdio_output@@@2@@__crt_stdio_output@@AEAA_NXZ 0000000180079fc8     libucrt:output.obj
 0004:00001fd4       $pdata$?state_case_size@?$output_processor@_WV?$string_output_adapter@_W@__crt_stdio_output@@V?$standard_base@_WV?$string_output_adapter@_W@__crt_stdio_output@@@2@@__crt_stdio_output@@AEAA_NXZ 0000000180079fd4     libucrt:output.obj
 0004:00001fe0       $pdata$?state_case_type@?$output_processor@DV?$string_output_adapter@D@__crt_stdio_output@@V?$standard_base@DV?$string_output_adapter@D@__crt_stdio_output@@@2@@__crt_stdio_output@@AEAA_NXZ 0000000180079fe0     libucrt:output.obj
 0004:00001fe0       $pdata$?state_case_type@?$output_processor@DV?$string_output_adapter@D@__crt_stdio_output@@V?$format_validation_base@DV?$string_output_adapter@D@__crt_stdio_output@@@2@@__crt_stdio_output@@AEAA_NXZ 0000000180079fe0     libucrt:output.obj
 0004:00001fec       $pdata$?state_case_type@?$output_processor@_WV?$stream_output_adapter@_W@__crt_stdio_output@@V?$standard_base@_WV?$stream_output_adapter@_W@__crt_stdio_output@@@2@@__crt_stdio_output@@AEAA_NXZ 0000000180079fec     libucrt:output.obj
 0004:00001ff8       $pdata$?state_case_type@?$output_processor@_WV?$string_output_adapter@_W@__crt_stdio_output@@V?$standard_base@_WV?$string_output_adapter@_W@__crt_stdio_output@@@2@@__crt_stdio_output@@AEAA_NXZ 0000000180079ff8     libucrt:output.obj
 0004:00002004       $pdata$?type_case_Z@?$output_processor@DV?$string_output_adapter@D@__crt_stdio_output@@V?$format_validation_base@DV?$string_output_adapter@D@__crt_stdio_output@@@2@@__crt_stdio_output@@AEAA_NXZ 000000018007a004     libucrt:output.obj
 0004:00002004       $pdata$?type_case_Z@?$output_processor@DV?$string_output_adapter@D@__crt_stdio_output@@V?$standard_base@DV?$string_output_adapter@D@__crt_stdio_output@@@2@@__crt_stdio_output@@AEAA_NXZ 000000018007a004     libucrt:output.obj
 0004:00002010       $pdata$?type_case_Z@?$output_processor@_WV?$string_output_adapter@_W@__crt_stdio_output@@V?$standard_base@_WV?$string_output_adapter@_W@__crt_stdio_output@@@2@@__crt_stdio_output@@AEAA_NXZ 000000018007a010     libucrt:output.obj
 0004:00002010       $pdata$?type_case_Z@?$output_processor@_WV?$stream_output_adapter@_W@__crt_stdio_output@@V?$standard_base@_WV?$stream_output_adapter@_W@__crt_stdio_output@@@2@@__crt_stdio_output@@AEAA_NXZ 000000018007a010     libucrt:output.obj
 0004:0000201c       $pdata$?type_case_a@?$output_processor@DV?$string_output_adapter@D@__crt_stdio_output@@V?$format_validation_base@DV?$string_output_adapter@D@__crt_stdio_output@@@2@@__crt_stdio_output@@AEAA_NXZ 000000018007a01c     libucrt:output.obj
 0004:0000201c       $pdata$?type_case_a@?$output_processor@DV?$string_output_adapter@D@__crt_stdio_output@@V?$standard_base@DV?$string_output_adapter@D@__crt_stdio_output@@@2@@__crt_stdio_output@@AEAA_NXZ 000000018007a01c     libucrt:output.obj
 0004:00002028       $pdata$?type_case_a@?$output_processor@_WV?$string_output_adapter@_W@__crt_stdio_output@@V?$standard_base@_WV?$string_output_adapter@_W@__crt_stdio_output@@@2@@__crt_stdio_output@@AEAA_NXZ 000000018007a028     libucrt:output.obj
 0004:00002028       $pdata$?type_case_a@?$output_processor@_WV?$stream_output_adapter@_W@__crt_stdio_output@@V?$standard_base@_WV?$stream_output_adapter@_W@__crt_stdio_output@@@2@@__crt_stdio_output@@AEAA_NXZ 000000018007a028     libucrt:output.obj
 0004:00002034       $pdata$?type_case_c_tchar@?$output_processor@DV?$string_output_adapter@D@__crt_stdio_output@@V?$format_validation_base@DV?$string_output_adapter@D@__crt_stdio_output@@@2@@__crt_stdio_output@@AEAA_ND@Z 000000018007a034     libucrt:output.obj
 0004:00002034       $pdata$?type_case_c_tchar@?$output_processor@DV?$string_output_adapter@D@__crt_stdio_output@@V?$standard_base@DV?$string_output_adapter@D@__crt_stdio_output@@@2@@__crt_stdio_output@@AEAA_ND@Z 000000018007a034     libucrt:output.obj
 0004:00002040       $pdata$?type_case_c_tchar@?$output_processor@_WV?$string_output_adapter@_W@__crt_stdio_output@@V?$standard_base@_WV?$string_output_adapter@_W@__crt_stdio_output@@@2@@__crt_stdio_output@@AEAA_N_W@Z 000000018007a040     libucrt:output.obj
 0004:00002040       $pdata$?type_case_c_tchar@?$output_processor@_WV?$stream_output_adapter@_W@__crt_stdio_output@@V?$standard_base@_WV?$stream_output_adapter@_W@__crt_stdio_output@@@2@@__crt_stdio_output@@AEAA_N_W@Z 000000018007a040     libucrt:output.obj
 0004:0000204c       $pdata$?type_case_integer@?$output_processor@DV?$string_output_adapter@D@__crt_stdio_output@@V?$standard_base@DV?$string_output_adapter@D@__crt_stdio_output@@@2@@__crt_stdio_output@@AEAA_NI_N@Z 000000018007a04c     libucrt:output.obj
 0004:0000204c       $pdata$?type_case_integer@?$output_processor@DV?$string_output_adapter@D@__crt_stdio_output@@V?$format_validation_base@DV?$string_output_adapter@D@__crt_stdio_output@@@2@@__crt_stdio_output@@AEAA_NI_N@Z 000000018007a04c     libucrt:output.obj
 0004:00002058       $pdata$?type_case_integer@?$output_processor@_WV?$stream_output_adapter@_W@__crt_stdio_output@@V?$standard_base@_WV?$stream_output_adapter@_W@__crt_stdio_output@@@2@@__crt_stdio_output@@AEAA_NI_N@Z 000000018007a058     libucrt:output.obj
 0004:00002058       $pdata$?type_case_integer@?$output_processor@_WV?$string_output_adapter@_W@__crt_stdio_output@@V?$standard_base@_WV?$string_output_adapter@_W@__crt_stdio_output@@@2@@__crt_stdio_output@@AEAA_NI_N@Z 000000018007a058     libucrt:output.obj
 0004:00002064       $pdata$?type_case_n@?$output_processor@DV?$string_output_adapter@D@__crt_stdio_output@@V?$standard_base@DV?$string_output_adapter@D@__crt_stdio_output@@@2@@__crt_stdio_output@@AEAA_NXZ 000000018007a064     libucrt:output.obj
 0004:00002064       $pdata$?type_case_n@?$output_processor@_WV?$string_output_adapter@_W@__crt_stdio_output@@V?$standard_base@_WV?$string_output_adapter@_W@__crt_stdio_output@@@2@@__crt_stdio_output@@AEAA_NXZ 000000018007a064     libucrt:output.obj
 0004:00002064       $pdata$?type_case_n@?$output_processor@DV?$string_output_adapter@D@__crt_stdio_output@@V?$format_validation_base@DV?$string_output_adapter@D@__crt_stdio_output@@@2@@__crt_stdio_output@@AEAA_NXZ 000000018007a064     libucrt:output.obj
 0004:00002064       $pdata$?type_case_n@?$output_processor@_WV?$stream_output_adapter@_W@__crt_stdio_output@@V?$standard_base@_WV?$stream_output_adapter@_W@__crt_stdio_output@@@2@@__crt_stdio_output@@AEAA_NXZ 000000018007a064     libucrt:output.obj
 0004:00002070       $pdata$?type_case_s@?$output_processor@DV?$string_output_adapter@D@__crt_stdio_output@@V?$standard_base@DV?$string_output_adapter@D@__crt_stdio_output@@@2@@__crt_stdio_output@@AEAA_NXZ 000000018007a070     libucrt:output.obj
 0004:00002070       $pdata$?type_case_s@?$output_processor@DV?$string_output_adapter@D@__crt_stdio_output@@V?$format_validation_base@DV?$string_output_adapter@D@__crt_stdio_output@@@2@@__crt_stdio_output@@AEAA_NXZ 000000018007a070     libucrt:output.obj
 0004:0000207c       $pdata$?type_case_s@?$output_processor@_WV?$string_output_adapter@_W@__crt_stdio_output@@V?$standard_base@_WV?$string_output_adapter@_W@__crt_stdio_output@@@2@@__crt_stdio_output@@AEAA_NXZ 000000018007a07c     libucrt:output.obj
 0004:0000207c       $pdata$?type_case_s@?$output_processor@_WV?$stream_output_adapter@_W@__crt_stdio_output@@V?$standard_base@_WV?$stream_output_adapter@_W@__crt_stdio_output@@@2@@__crt_stdio_output@@AEAA_NXZ 000000018007a07c     libucrt:output.obj
 0004:00002088       $pdata$?write_stored_string_tchar@?$output_processor@DV?$string_output_adapter@D@__crt_stdio_output@@V?$format_validation_base@DV?$string_output_adapter@D@__crt_stdio_output@@@2@@__crt_stdio_output@@AEAA_ND@Z 000000018007a088     libucrt:output.obj
 0004:00002088       $pdata$?write_stored_string_tchar@?$output_processor@DV?$string_output_adapter@D@__crt_stdio_output@@V?$standard_base@DV?$string_output_adapter@D@__crt_stdio_output@@@2@@__crt_stdio_output@@AEAA_ND@Z 000000018007a088     libucrt:output.obj
 0004:00002094       $pdata$?write_stored_string_tchar@?$output_processor@_WV?$stream_output_adapter@_W@__crt_stdio_output@@V?$standard_base@_WV?$stream_output_adapter@_W@__crt_stdio_output@@@2@@__crt_stdio_output@@AEAA_N_W@Z 000000018007a094     libucrt:output.obj
 0004:000020a0       $pdata$?write_stored_string_tchar@?$output_processor@_WV?$string_output_adapter@_W@__crt_stdio_output@@V?$standard_base@_WV?$string_output_adapter@_W@__crt_stdio_output@@@2@@__crt_stdio_output@@AEAA_N_W@Z 000000018007a0a0     libucrt:output.obj
 0004:000020ac       $pdata$?write_string@?$string_output_adapter@D@__crt_stdio_output@@QEBAXQEBDHQEAHAEAV__crt_deferred_errno_cache@@@Z 000000018007a0ac     libucrt:output.obj
 0004:000020b8       $pdata$?write_string@?$string_output_adapter@_W@__crt_stdio_output@@QEBAXQEB_WHQEAHAEAV__crt_deferred_errno_cache@@@Z 000000018007a0b8     libucrt:output.obj
 0004:000020c4       $pdata$?write_string_impl@?$output_adapter_common@_WV?$stream_output_adapter@_W@__crt_stdio_output@@@__crt_stdio_output@@IEBAXQEB_WHQEAHAEAV__crt_deferred_errno_cache@@@Z 000000018007a0c4     libucrt:output.obj
 0004:000020d0       $pdata$__stdio_common_vfwprintf 000000018007a0d0     libucrt:output.obj
 0004:000020dc       $pdata$__stdio_common_vsprintf_s 000000018007a0dc     libucrt:output.obj
 0004:000020e8       $pdata$localeconv          000000018007a0e8     libucrt:localeconv.obj
 0004:000020f4       $pdata$frexp               000000018007a0f4     libucrt:frexp.obj
 0004:00002100       $pdata$??$common_assert_to_message_box@_W@@YAXQEB_W0IQEAX@Z 000000018007a100     libucrt:assert.obj
 0004:0000210c       $pdata$??$common_assert_to_message_box_build_string@_W@@YAXQEA_W_KQEB_W2IQEAX@Z 000000018007a10c     libucrt:assert.obj
 0004:00002118       $pdata$??$common_assert_to_stderr@_W@@YAXQEB_W0I@Z 000000018007a118     libucrt:assert.obj
 0004:00002124       $pdata$_wassert            000000018007a124     libucrt:assert.obj
 0004:00002130       $pdata$fwprintf            000000018007a130     libucrt:assert.obj
 0004:0000213c       $pdata$swprintf            000000018007a13c     libucrt:assert.obj
 0004:00002148       $pdata$_stricmp            000000018007a148     libucrt:stricmp.obj
 0004:00002154       $pdata$_stricmp_l          000000018007a154     libucrt:stricmp.obj
 0004:00002160       $pdata$__acrt_initialize_locks 000000018007a160     libucrt:locks.obj
 0004:0000216c       $pdata$__acrt_uninitialize_locks 000000018007a16c     libucrt:locks.obj
 0004:00002178       $pdata$_lock_locales       000000018007a178     libucrt:locks.obj
 0004:00002184       $pdata$terminate           000000018007a184     libucrt:terminate.obj
 0004:00002190       $pdata$??$?RV<lambda_9bd929c17696992ce54f1d748594fc62>@@AEAV<lambda_082c17da81b0962e08c0587ee0fac50c>@@V<lambda_9c08ac857f4975304d44e9f601d9b878>@@@?$__crt_seh_guarded_call@PEAD@@QEAAPEAD$$QEAV<lambda_9bd929c17696992ce54f1d748594fc62>@@AEAV<lambda_082c17da81b0962e08c0587ee0fac50c>@@$$QEAV<lambda_9c08ac857f4975304d44e9f601d9b878>@@@Z 000000018007a190     libucrt:setlocale.obj
 0004:0000219c       $pdata$??R<lambda_082c17da81b0962e08c0587ee0fac50c>@@QEBAPEADXZ 000000018007a19c     libucrt:setlocale.obj
 0004:000021a8       $pdata$setlocale           000000018007a1a8     libucrt:setlocale.obj
 0004:000021b4       $pdata$_calloc_base        000000018007a1b4     libucrt:calloc_base.obj
 0004:000021c0       $pdata$__pctype_func       000000018007a1c0     libucrt:ctype.obj
 0004:000021cc       $pdata$isdigit             000000018007a1cc     libucrt:_ctype.obj
 0004:000021d8       $pdata$islower             000000018007a1d8     libucrt:_ctype.obj
 0004:000021e4       $pdata$isupper             000000018007a1e4     libucrt:_ctype.obj
 0004:000021f0       $pdata$_wcsdup             000000018007a1f0     libucrt:wcsdup.obj
 0004:000021fc       $pdata$___lc_codepage_func 000000018007a1fc     libucrt:initctype.obj
 0004:00002208       $pdata$___lc_locale_name_func 000000018007a208     libucrt:initctype.obj
 0004:00002214       $pdata$___mb_cur_max_func  000000018007a214     libucrt:initctype.obj
 0004:00002220       $pdata$__acrt_locale_initialize_ctype 000000018007a220     libucrt:initctype.obj
 0004:0000222c       $pdata$__acrt_errno_map_os_error 000000018007a22c     libucrt:errno.obj
 0004:00002238       $pdata$__doserrno          000000018007a238     libucrt:errno.obj
 0004:00002244       $pdata$_errno              000000018007a244     libucrt:errno.obj
 0004:00002250       $pdata$?x_ismbbtype_l@@YAHPEAU__crt_locale_pointers@@IHH@Z 000000018007a250     libucrt:ismbbyte.obj
 0004:0000225c       $pdata$_malloc_base        000000018007a25c     libucrt:malloc_base.obj
 0004:00002268       $pdata$_realloc_base       000000018007a268     libucrt:realloc_base.obj
 0004:00002274       $pdata$?divide@__crt_strtox@@YA_KAEAUbig_integer@1@AEBU21@@Z 000000018007a274     libucrt:strtod.obj
 0004:00002280       $pdata$5$?divide@__crt_strtox@@YA_KAEAUbig_integer@1@AEBU21@@Z 000000018007a280     libucrt:strtod.obj
 0004:0000228c       $pdata$6$?divide@__crt_strtox@@YA_KAEAUbig_integer@1@AEBU21@@Z 000000018007a28c     libucrt:strtod.obj
 0004:00002298       $pdata$memcpy_s            000000018007a298     libucrt:strtod.obj
 0004:00002298       $pdata$memcpy_s            000000018007a298     libucrt:cfout.obj
 0004:000022bc       $pdata$_free_base          000000018007a2bc     libucrt:free_base.obj
 0004:000022c8       $pdata$?internal_isupper_l@@YA_NHQEAU__crt_locale_pointers@@@Z 000000018007a2c8     libucrt:tolower_toupper.obj
 0004:000022d4       $pdata$_tolower_l          000000018007a2d4     libucrt:tolower_toupper.obj
 0004:000022e0       $pdata$tolower             000000018007a2e0     libucrt:tolower_toupper.obj
 0004:000022ec       $pdata$wcscpy_s            000000018007a2ec     libucrt:wcscpy_s.obj
 0004:000022f8       $pdata$_callnewh           000000018007a2f8     libucrt:new_handler.obj
 0004:00002304       $pdata$_query_new_handler  000000018007a304     libucrt:new_handler.obj
 0004:00002310       $pdata$_seh_filter_exe     000000018007a310     libucrt:exception_filter.obj
 0004:0000231c       $pdata$??$?RV<lambda_d80eeec6fff315bfe5c115232f3240e3>@@AEAV<lambda_6e4b09c48022b2350581041d5f6b0c4c>@@V<lambda_2358e3775559c9db80273638284d5e45>@@@?$__crt_seh_guarded_call@X@@QEAAX$$QEAV<lambda_d80eeec6fff315bfe5c115232f3240e3>@@AEAV<lambda_6e4b09c48022b2350581041d5f6b0c4c>@@$$QEAV<lambda_2358e3775559c9db80273638284d5e45>@@@Z 000000018007a31c     libucrt:exit.obj
 0004:00002328       $pdata$??R<lambda_6e4b09c48022b2350581041d5f6b0c4c>@@QEBA@XZ 000000018007a328     libucrt:exit.obj
 0004:00002334       $pdata$?common_exit@@YAXHW4_crt_exit_cleanup_mode@@W4_crt_exit_return_mode@@@Z 000000018007a334     libucrt:exit.obj
 0004:00002340       $pdata$?exit_or_terminate_process@@YAXI@Z 000000018007a340     libucrt:exit.obj
 0004:0000234c       $pdata$?try_cor_exit_process@@YAXI@Z 000000018007a34c     libucrt:exit.obj
 0004:00002358       $pdata$??$parse_command_line@D@@YAXPEADPEAPEAD0PEA_K2@Z 000000018007a358     libucrt:argv_parsing.obj
 0004:00002364       $pdata$__acrt_allocate_buffer_for_argv 000000018007a364     libucrt:argv_parsing.obj
 0004:00002370       $pdata$_configure_narrow_argv 000000018007a370     libucrt:argv_parsing.obj
 0004:0000237c       $pdata$??$common_initialize_environment_nolock@D@@YAHXZ 000000018007a37c     libucrt:environment_initialization.obj
 0004:00002388       $pdata$??$create_environment@D@@YAQEAPEADQEAD@Z 000000018007a388     libucrt:environment_initialization.obj
 0004:00002394       $pdata$??$free_environment@_W@@YAXQEAPEA_W@Z 000000018007a394     libucrt:environment_initialization.obj
 0004:00002394       $pdata$??$free_environment@D@@YAXQEAPEAD@Z 000000018007a394     libucrt:environment_initialization.obj
 0004:000023a0       $pdata$??$uninitialize_environment_internal@D@@YAXAEAPEAPEAD@Z 000000018007a3a0     libucrt:environment_initialization.obj
 0004:000023ac       $pdata$??$uninitialize_environment_internal@_W@@YAXAEAPEAPEA_W@Z 000000018007a3ac     libucrt:environment_initialization.obj
 0004:000023b8       $pdata$__dcrt_uninitialize_environments_nolock 000000018007a3b8     libucrt:environment_initialization.obj
 0004:000023c4       $pdata$??$?RV<lambda_7777bce6b2f8c936911f934f8298dc43>@@AEAV<lambda_f03950bc5685219e0bcd2087efbe011e>@@V<lambda_3883c3dff614d5e0c5f61bb1ac94921c>@@@?$__crt_seh_guarded_call@H@@QEAAH$$QEAV<lambda_7777bce6b2f8c936911f934f8298dc43>@@AEAV<lambda_f03950bc5685219e0bcd2087efbe011e>@@$$QEAV<lambda_3883c3dff614d5e0c5f61bb1ac94921c>@@@Z 000000018007a3c4     libucrt:onexit.obj
 0004:000023d0       $pdata$??$?RV<lambda_8369fcb7c4df1e85de37618bd2b85f07>@@AEAV<lambda_a10e4b102d4a2c3aac6f4f48bbdf488f>@@V<lambda_5b7707bd6d7a0c4713179f36c7fd995d>@@@?$__crt_seh_guarded_call@H@@QEAAH$$QEAV<lambda_8369fcb7c4df1e85de37618bd2b85f07>@@AEAV<lambda_a10e4b102d4a2c3aac6f4f48bbdf488f>@@$$QEAV<lambda_5b7707bd6d7a0c4713179f36c7fd995d>@@@Z 000000018007a3d0     libucrt:onexit.obj
 0004:000023dc       $pdata$??R<lambda_a10e4b102d4a2c3aac6f4f48bbdf488f>@@QEBAHXZ 000000018007a3dc     libucrt:onexit.obj
 0004:000023e8       $pdata$??R<lambda_f03950bc5685219e0bcd2087efbe011e>@@QEBAHXZ 000000018007a3e8     libucrt:onexit.obj
 0004:000023f4       $pdata$_execute_onexit_table 000000018007a3f4     libucrt:onexit.obj
 0004:00002400       $pdata$_register_onexit_function 000000018007a400     libucrt:onexit.obj
 0004:0000240c       $pdata$initialize_c        000000018007a40c     libucrt:initialization.obj
 0004:00002418       $pdata$uninitialize_environment 000000018007a418     libucrt:initialization.obj
 0004:00002424       $pdata$initialize_pointers 000000018007a424     libucrt:initialization.obj
 0004:00002430       $pdata$uninitialize_allocated_memory 000000018007a430     libucrt:initialization.obj
 0004:0000243c       $pdata$__acrt_thread_attach 000000018007a43c     libucrt:initialization.obj
 0004:00002448       $pdata$__acrt_thread_detach 000000018007a448     libucrt:initialization.obj
 0004:00002454       $pdata$__acrt_uninitialize_critical 000000018007a454     libucrt:initialization.obj
 0004:00002460       $pdata$_initterm           000000018007a460     libucrt:initterm.obj
 0004:0000246c       $pdata$_initterm_e         000000018007a46c     libucrt:initterm.obj
 0004:00002478       $pdata$strcpy_s            000000018007a478     libucrt:strcpy_s.obj
 0004:00002484       $pdata$??$parse_integer@KV?$c_string_character_source@D@__crt_strtox@@@__crt_strtox@@YAKQEAU__crt_locale_pointers@@V?$c_string_character_source@D@0@H_N@Z 000000018007a484     libucrt:atox.obj
 0004:00002490       $pdata$??$parse_integer@KV?$c_string_character_source@_W@__crt_strtox@@@__crt_strtox@@YAKQEAU__crt_locale_pointers@@V?$c_string_character_source@_W@0@H_N@Z 000000018007a490     libucrt:atox.obj
 0004:0000249c       $pdata$_wtol               000000018007a49c     libucrt:atox.obj
 0004:000024a8       $pdata$??$?RV<lambda_450d765d439847d4c735a33c368b5fc0>@@AEAV<lambda_44731a7d0e6d81c3e6aa82d741081786>@@V<lambda_601a2a7da3b7a96e9554ac7215c4b07c>@@@?$__crt_seh_guarded_call@P6AXH@Z@@QEAAP6AXH@Z$$QEAV<lambda_450d765d439847d4c735a33c368b5fc0>@@AEAV<lambda_44731a7d0e6d81c3e6aa82d741081786>@@$$QEAV<lambda_601a2a7da3b7a96e9554ac7215c4b07c>@@@Z 000000018007a4a8     libucrt:signal.obj
 0004:000024b4       $pdata$__acrt_get_sigabrt_handler 000000018007a4b4     libucrt:signal.obj
 0004:000024c0       $pdata$raise               000000018007a4c0     libucrt:signal.obj
 0004:000024cc       $pdata$??$?RV<lambda_0ae27a3a962d80f24befdcbee591983d>@@AEAV<lambda_8d0ee55de4b1038c4002e0adecdf1839>@@V<lambda_dc504788e8f1664fe9b84e20bfb512f2>@@@?$__crt_seh_guarded_call@X@@QEAAX$$QEAV<lambda_0ae27a3a962d80f24befdcbee591983d>@@AEAV<lambda_8d0ee55de4b1038c4002e0adecdf1839>@@$$QEAV<lambda_dc504788e8f1664fe9b84e20bfb512f2>@@@Z 000000018007a4cc     libucrt:per_thread_data.obj
 0004:000024d8       $pdata$??$?RV<lambda_2d41944a1d46af3157314b8a01080d33>@@AEAV<lambda_8f455de75cd7d7f24b4096f044d8b9e6>@@V<lambda_aa500f224e6afead328df44964fe2772>@@@?$__crt_seh_guarded_call@X@@QEAAX$$QEAV<lambda_2d41944a1d46af3157314b8a01080d33>@@AEAV<lambda_8f455de75cd7d7f24b4096f044d8b9e6>@@$$QEAV<lambda_aa500f224e6afead328df44964fe2772>@@@Z 000000018007a4d8     libucrt:per_thread_data.obj
 0004:000024e4       $pdata$??$?RV<lambda_aa87e3671a710a21b5dc78c0bdf72e11>@@AEAV<lambda_92619d2358a28f41a33ba319515a20b9>@@V<lambda_6992ecaafeb10aed2b74cb1fae11a551>@@@?$__crt_seh_guarded_call@X@@QEAAX$$QEAV<lambda_aa87e3671a710a21b5dc78c0bdf72e11>@@AEAV<lambda_92619d2358a28f41a33ba319515a20b9>@@$$QEAV<lambda_6992ecaafeb10aed2b74cb1fae11a551>@@@Z 000000018007a4e4     libucrt:per_thread_data.obj
 0004:000024f0       $pdata$??$?RV<lambda_f2e299630e499de9f9a165e60fcd3db5>@@AEAV<lambda_2ae9d31cdba2644fcbeaf08da7c24588>@@V<lambda_40d01ff24d0e7b3814fdbdcee8eab3c7>@@@?$__crt_seh_guarded_call@X@@QEAAX$$QEAV<lambda_f2e299630e499de9f9a165e60fcd3db5>@@AEAV<lambda_2ae9d31cdba2644fcbeaf08da7c24588>@@$$QEAV<lambda_40d01ff24d0e7b3814fdbdcee8eab3c7>@@@Z 000000018007a4f0     libucrt:per_thread_data.obj
 0004:000024fc       $pdata$?construct_ptd_array@@YAXQEAU__acrt_ptd@@@Z 000000018007a4fc     libucrt:per_thread_data.obj
 0004:00002508       $pdata$?destroy_fls@@YAXPEAX@Z 000000018007a508     libucrt:per_thread_data.obj
 0004:00002514       $pdata$?destroy_ptd_array@@YAXQEAU__acrt_ptd@@@Z 000000018007a514     libucrt:per_thread_data.obj
 0004:00002520       $pdata$?replace_current_thread_locale_nolock@@YAXQEAU__acrt_ptd@@QEAU__crt_locale_data@@@Z 000000018007a520     libucrt:per_thread_data.obj
 0004:0000252c       $pdata$__acrt_freeptd      000000018007a52c     libucrt:per_thread_data.obj
 0004:00002538       $pdata$__acrt_getptd       000000018007a538     libucrt:per_thread_data.obj
 0004:00002544       $pdata$__acrt_getptd_head  000000018007a544     libucrt:per_thread_data.obj
 0004:00002550       $pdata$__acrt_getptd_noexit 000000018007a550     libucrt:per_thread_data.obj
 0004:0000255c       $pdata$__acrt_initialize_ptd 000000018007a55c     libucrt:per_thread_data.obj
 0004:00002568       $pdata$__acrt_uninitialize_ptd 000000018007a568     libucrt:per_thread_data.obj
 0004:00002574       $pdata$strtol              000000018007a574     libucrt:strtox.obj
 0004:00002580       $pdata$wcstol              000000018007a580     libucrt:strtox.obj
 0004:0000258c       $pdata$_mbtowc_l           000000018007a58c     libucrt:mbtowc.obj
 0004:00002598       $pdata$_wctomb_s_l         000000018007a598     libucrt:wctomb.obj
 0004:000025a4       $pdata$wctomb_s            000000018007a5a4     libucrt:wctomb.obj
 0004:000025b0       $pdata$__acrt_update_locale_info 000000018007a5b0     libucrt:locale_update.obj
 0004:000025bc       $pdata$__acrt_update_multibyte_info 000000018007a5bc     libucrt:locale_update.obj
 0004:000025c8       $pdata$?fp_format_a@@YAHQEBNPEAD_KQEAD2H_NIQEAU__crt_locale_pointers@@@Z 000000018007a5c8     libucrt:cvt.obj
 0004:000025d4       $pdata$?fp_format_e@@YAHQEBNQEAD_K12H_NIQEAU__crt_locale_pointers@@@Z 000000018007a5d4     libucrt:cvt.obj
 0004:000025e0       $pdata$?fp_format_e_internal@@YAHQEAD_KH_NIQEAU_strflt@@2QEAU__crt_locale_pointers@@@Z 000000018007a5e0     libucrt:cvt.obj
 0004:000025ec       $pdata$?fp_format_f_internal@@YAHQEAD_KHQEAU_strflt@@_NQEAU__crt_locale_pointers@@@Z 000000018007a5ec     libucrt:cvt.obj
 0004:000025f8       $pdata$?fp_format_g@@YAHQEBNQEAD_K12H_NIQEAU__crt_locale_pointers@@@Z 000000018007a5f8     libucrt:cvt.obj
 0004:00002604       $pdata$?fp_format_nan_or_infinity@@YAHW4__acrt_fp_class@@_NPEAD_K1@Z 000000018007a604     libucrt:cvt.obj
 0004:00002610       $pdata$__acrt_fp_format    000000018007a610     libucrt:cvt.obj
 0004:0000261c       $pdata$_fputwc_nolock      000000018007a61c     libucrt:fputwc.obj
 0004:00002628       $pdata$_fileno             000000018007a628     libucrt:fileno.obj
 0004:00002634       $pdata$__acrt_initialize_stdio 000000018007a634     libucrt:_file.obj
 0004:00002640       $pdata$__acrt_uninitialize_stdio 000000018007a640     libucrt:_file.obj
 0004:0000264c       $pdata$__acrt_stdio_begin_temporary_buffering_nolock 000000018007a64c     libucrt:_sftbuf.obj
 0004:00002658       $pdata$__acrt_stdio_end_temporary_buffering_nolock 000000018007a658     libucrt:_sftbuf.obj
 0004:00002664       $pdata$??$?RV<lambda_410d79af7f07d98d83a3f525b3859a53>@@AEAV<lambda_3e16ef9562a7dcce91392c22ab16ea36>@@V<lambda_38119f0e861e05405d8a144b9b982f0a>@@@?$__crt_seh_guarded_call@X@@QEAAX$$QEAV<lambda_410d79af7f07d98d83a3f525b3859a53>@@AEAV<lambda_3e16ef9562a7dcce91392c22ab16ea36>@@$$QEAV<lambda_38119f0e861e05405d8a144b9b982f0a>@@@Z 000000018007a664     libucrt:wsetlocale.obj
 0004:00002670       $pdata$??$?RV<lambda_9529fede68560d7205a1271ab16b352e>@@AEAV<lambda_ebf8c556deb379764da826e7bb46e993>@@V<lambda_db92443d3c9ace7c8a20b950bb983b5a>@@@?$__crt_seh_guarded_call@X@@QEAAX$$QEAV<lambda_9529fede68560d7205a1271ab16b352e>@@AEAV<lambda_ebf8c556deb379764da826e7bb46e993>@@$$QEAV<lambda_db92443d3c9ace7c8a20b950bb983b5a>@@@Z 000000018007a670     libucrt:wsetlocale.obj
 0004:0000267c       $pdata$??$?RV<lambda_d8a01803c7231904df012bb083be9e3a>@@AEAV<lambda_b163b37eafe0a13f2c371fafeb0365c9>@@AEAV<lambda_8dff2cf36a5417162780cd64fa2883ef>@@@?$__crt_seh_guarded_call@X@@QEAAX$$QEAV<lambda_d8a01803c7231904df012bb083be9e3a>@@AEAV<lambda_b163b37eafe0a13f2c371fafeb0365c9>@@AEAV<lambda_8dff2cf36a5417162780cd64fa2883ef>@@@Z 000000018007a67c     libucrt:wsetlocale.obj
 0004:00002688       $pdata$??R<lambda_b163b37eafe0a13f2c371fafeb0365c9>@@QEBA@XZ 000000018007a688     libucrt:wsetlocale.obj
 0004:00002694       $pdata$__acrt_copy_locale_name 000000018007a694     libucrt:wsetlocale.obj
 0004:000026a0       $pdata$__acrt_uninitialize_locale 000000018007a6a0     libucrt:wsetlocale.obj
 0004:000026ac       $pdata$__lc_lctowcs        000000018007a6ac     libucrt:wsetlocale.obj
 0004:000026b8       $pdata$__lc_wcstolc        000000018007a6b8     libucrt:wsetlocale.obj
 0004:000026c4       $pdata$_copytlocinfo_nolock 000000018007a6c4     libucrt:wsetlocale.obj
 0004:000026d0       $pdata$_expandlocale       000000018007a6d0     libucrt:wsetlocale.obj
 0004:000026dc       $pdata$_wcscats            000000018007a6dc     libucrt:wsetlocale.obj
 0004:000026e8       $pdata$_wsetlocale         000000018007a6e8     libucrt:wsetlocale.obj
 0004:000026f4       $pdata$_wsetlocale_get_all 000000018007a6f4     libucrt:wsetlocale.obj
 0004:00002700       $pdata$_wsetlocale_nolock  000000018007a700     libucrt:wsetlocale.obj
 0004:0000270c       $pdata$_wsetlocale_set_cat 000000018007a70c     libucrt:wsetlocale.obj
 0004:00002718       $pdata$?initialize_inherited_file_handles_nolock@@YAXXZ 000000018007a718     libucrt:ioinit.obj
 0004:00002724       $pdata$?initialize_stdio_handles_nolock@@YAXXZ 000000018007a724     libucrt:ioinit.obj
 0004:00002730       $pdata$__acrt_initialize_lowio 000000018007a730     libucrt:ioinit.obj
 0004:0000273c       $pdata$__acrt_uninitialize_lowio 000000018007a73c     libucrt:ioinit.obj
 0004:00002748       $pdata$_except1            000000018007a748     libucrt:fpexcept.obj
 0004:00002754       $pdata$_handle_exc         000000018007a754     libucrt:fpexcept.obj
 0004:00002760       $pdata$_raise_exc          000000018007a760     libucrt:fpexcept.obj
 0004:0000276c       $pdata$_raise_exc_ex       000000018007a76c     libucrt:fpexcept.obj
 0004:00002778       $pdata$_raise_excf         000000018007a778     libucrt:fpexcept.obj
 0004:00002784       $pdata$_set_errno_from_matherr 000000018007a784     libucrt:fpexcept.obj
 0004:00002790       $pdata$_umatherr           000000018007a790     libucrt:fpexcept.obj
 0004:0000279c       $pdata$_clrfp              000000018007a79c     libucrt:fpctrl.obj
 0004:000027a8       $pdata$_ctrlfp             000000018007a7a8     libucrt:fpctrl.obj
 0004:000027b4       $pdata$_set_statfp         000000018007a7b4     libucrt:fpctrl.obj
 0004:000027c0       $pdata$_statfp             000000018007a7c0     libucrt:fpctrl.obj
 0004:000027cc       $pdata$??$common_xtox@K_W@@YAHKQEA_W_KI_N@Z 000000018007a7cc     libucrt:xtoa.obj
 0004:000027d8       $pdata$??$common_xtox_s@K_W@@YAHKQEA_W_KI_N@Z 000000018007a7d8     libucrt:xtoa.obj
 0004:000027e4       $pdata$_itow_s             000000018007a7e4     libucrt:xtoa.obj
 0004:000027f0       $pdata$_set_error_mode     000000018007a7f0     libucrt:set_error_mode.obj
 0004:000027fc       $pdata$wcscat_s            000000018007a7fc     libucrt:wcscat_s.obj
 0004:00002808       $pdata$wcsncat_s           000000018007a808     libucrt:wcsncat_s.obj
 0004:00002814       $pdata$__acrt_show_wide_message_box 000000018007a814     libucrt:crtmbox.obj
 0004:00002820       $pdata$??$?RV<lambda_842d9ff0dc9ef11c61343bbaebe7f885>@@AEAV<lambda_c5860995281e5c4ce005b3de8f5874ee>@@V<lambda_d90129c13df834fdcbf8d2b88dafcf2d>@@@?$__crt_seh_guarded_call@X@@QEAAX$$QEAV<lambda_842d9ff0dc9ef11c61343bbaebe7f885>@@AEAV<lambda_c5860995281e5c4ce005b3de8f5874ee>@@$$QEAV<lambda_d90129c13df834fdcbf8d2b88dafcf2d>@@@Z 000000018007a820     libucrt:fflush.obj
 0004:0000282c       $pdata$??$?RV<lambda_886d6c58226a84441f68b9f2b8217b83>@@AEAV<lambda_ab61a845afdef5b7c387490eaf3616ee>@@V<lambda_f7f22ab5edc0698d5f6905b0d3f44752>@@@?$__crt_seh_guarded_call@X@@QEAAX$$QEAV<lambda_886d6c58226a84441f68b9f2b8217b83>@@AEAV<lambda_ab61a845afdef5b7c387490eaf3616ee>@@$$QEAV<lambda_f7f22ab5edc0698d5f6905b0d3f44752>@@@Z 000000018007a82c     libucrt:fflush.obj
 0004:00002838       $pdata$??$?RV<lambda_c376a267cfb53b6959b3b692ec76b120>@@AEAV<lambda_9a32fed5bf61b6b509b2d3f6003082a1>@@V<lambda_572fbb9fa0ab338edf41edfd4b5fcc8d>@@@?$__crt_seh_guarded_call@H@@QEAAH$$QEAV<lambda_c376a267cfb53b6959b3b692ec76b120>@@AEAV<lambda_9a32fed5bf61b6b509b2d3f6003082a1>@@$$QEAV<lambda_572fbb9fa0ab338edf41edfd4b5fcc8d>@@@Z 000000018007a838     libucrt:fflush.obj
 0004:00002844       $pdata$?common_flush_all@@YAH_N@Z 000000018007a844     libucrt:fflush.obj
 0004:00002850       $pdata$__acrt_stdio_flush_nolock 000000018007a850     libucrt:fflush.obj
 0004:0000285c       $pdata$_fflush_nolock      000000018007a85c     libucrt:fflush.obj
 0004:00002868       $pdata$fflush              000000018007a868     libucrt:fflush.obj
 0004:00002874       $pdata$??$?RV<lambda_84ec643ea9557e2f7dc01bb0e9624395>@@AEAV<lambda_ca71763b3c0644891230e4f79ea54fa6>@@V<lambda_439a761618c59b0600e24586724d733b>@@@?$__crt_seh_guarded_call@H@@QEAAH$$QEAV<lambda_84ec643ea9557e2f7dc01bb0e9624395>@@AEAV<lambda_ca71763b3c0644891230e4f79ea54fa6>@@$$QEAV<lambda_439a761618c59b0600e24586724d733b>@@@Z 000000018007a874     libucrt:setvbuf.obj
 0004:00002880       $pdata$??R<lambda_ca71763b3c0644891230e4f79ea54fa6>@@QEBAHXZ 000000018007a880     libucrt:setvbuf.obj
 0004:0000288c       $pdata$setvbuf             000000018007a88c     libucrt:setvbuf.obj
 0004:00002898       $pdata$??$?RV<lambda_bd00b5aa228bd7e7e5b2b5db5fd2933b>@@AEAV<lambda_777d11615145f89ee95b9466d285deeb>@@V<lambda_6e5e48fbd24f9f8f81b203eb3d877683>@@@?$__crt_seh_guarded_call@H@@QEAAH$$QEAV<lambda_bd00b5aa228bd7e7e5b2b5db5fd2933b>@@AEAV<lambda_777d11615145f89ee95b9466d285deeb>@@$$QEAV<lambda_6e5e48fbd24f9f8f81b203eb3d877683>@@@Z 000000018007a898     libucrt:winapi_thunks.obj
 0004:000028a4       $pdata$?try_get_function@@YAPEAXW4function_id@?A0x391cf84c@@QEBDQEBW4module_id@2@2@Z 000000018007a8a4     libucrt:winapi_thunks.obj
 0004:000028b0       $pdata$__acrt_AppPolicyGetProcessTerminationMethodInternal 000000018007a8b0     libucrt:winapi_thunks.obj
 0004:000028bc       $pdata$__acrt_AppPolicyGetShowDeveloperDiagnosticInternal 000000018007a8bc     libucrt:winapi_thunks.obj
 0004:000028c8       $pdata$__acrt_AppPolicyGetWindowingModelInternal 000000018007a8c8     libucrt:winapi_thunks.obj
 0004:000028d4       $pdata$__acrt_EnumSystemLocalesEx 000000018007a8d4     libucrt:winapi_thunks.obj
 0004:000028e0       $pdata$__acrt_FlsAlloc     000000018007a8e0     libucrt:winapi_thunks.obj
 0004:000028ec       $pdata$__acrt_FlsFree      000000018007a8ec     libucrt:winapi_thunks.obj
 0004:000028f8       $pdata$__acrt_FlsGetValue  000000018007a8f8     libucrt:winapi_thunks.obj
 0004:00002904       $pdata$__acrt_FlsSetValue  000000018007a904     libucrt:winapi_thunks.obj
 0004:00002910       $pdata$__acrt_GetLocaleInfoEx 000000018007a910     libucrt:winapi_thunks.obj
 0004:0000291c       $pdata$__acrt_GetUserDefaultLocaleName 000000018007a91c     libucrt:winapi_thunks.obj
 0004:00002928       $pdata$__acrt_InitializeCriticalSectionEx 000000018007a928     libucrt:winapi_thunks.obj
 0004:00002934       $pdata$__acrt_IsValidLocaleName 000000018007a934     libucrt:winapi_thunks.obj
 0004:00002940       $pdata$__acrt_LCIDToLocaleName 000000018007a940     libucrt:winapi_thunks.obj
 0004:0000294c       $pdata$__acrt_LCMapStringEx 000000018007a94c     libucrt:winapi_thunks.obj
 0004:00002958       $pdata$__acrt_LocaleNameToLCID 000000018007a958     libucrt:winapi_thunks.obj
 0004:00002964       $pdata$__acrt_MessageBoxW  000000018007a964     libucrt:winapi_thunks.obj
 0004:00002970       $pdata$__acrt_can_show_message_box 000000018007a970     libucrt:winapi_thunks.obj
 0004:0000297c       $pdata$__acrt_can_use_vista_locale_apis 000000018007a97c     libucrt:winapi_thunks.obj
 0004:00002988       $pdata$__acrt_eagerly_load_locale_apis 000000018007a988     libucrt:winapi_thunks.obj
 0004:00002994       $pdata$__acrt_get_parent_window 000000018007a994     libucrt:winapi_thunks.obj
 0004:000029a0       $pdata$__acrt_initialize_winapi_thunks 000000018007a9a0     libucrt:winapi_thunks.obj
 0004:000029ac       $pdata$__acrt_is_interactive 000000018007a9ac     libucrt:winapi_thunks.obj
 0004:000029b8       $pdata$__acrt_uninitialize_winapi_thunks 000000018007a9b8     libucrt:winapi_thunks.obj
 0004:000029c4       $pdata$?_mbstowcs_l_helper@@YA_KPEA_WPEBD_KPEAU__crt_locale_pointers@@@Z 000000018007a9c4     libucrt:mbstowcs.obj
 0004:000029d0       $pdata$_mbstowcs_s_l       000000018007a9d0     libucrt:mbstowcs.obj
 0004:000029dc       $pdata$mbstowcs_s          000000018007a9dc     libucrt:mbstowcs.obj
 0004:000029e8       $pdata$?_wcstombs_l_helper@@YA_KPEADPEB_W_KPEAU__crt_locale_pointers@@@Z 000000018007a9e8     libucrt:wcstombs.obj
 0004:000029f4       $pdata$_wcstombs_s_l       000000018007a9f4     libucrt:wcstombs.obj
 0004:00002a00       $pdata$__acrt_initialize_heap 000000018007aa00     libucrt:heap_handle.obj
 0004:00002a0c       $pdata$_isctype_l          000000018007aa0c     libucrt:isctype.obj
 0004:00002a18       $pdata$?InternalGetLocaleInfoA@@YAHQEAU__crt_locale_pointers@@QEB_WKQEADH@Z 000000018007aa18     libucrt:getlocaleinfoa.obj
 0004:00002a24       $pdata$__acrt_GetLocaleInfoA 000000018007aa24     libucrt:getlocaleinfoa.obj
 0004:00002a30       $pdata$__acrt_GetStringTypeA 000000018007aa30     libucrt:getstringtypea.obj
 0004:00002a3c       $pdata$?__acrt_LCMapStringA_stat@@YAHPEAU__crt_locale_pointers@@PEB_WKPEBDHPEADHHH@Z 000000018007aa3c     libucrt:lcmapstringa.obj
 0004:00002a48       $pdata$__acrt_LCMapStringA 000000018007aa48     libucrt:lcmapstringa.obj
 0004:00002a54       $pdata$iswctype            000000018007aa54     libucrt:iswctype.obj
 0004:00002a60       $pdata$__acrt_initialize_fma3 000000018007aa60     libucrt:fma3_available.obj
 0004:00002a6c       $pdata$_pow_special        000000018007aa6c     libucrt:pow_special.obj
 0004:00002a78       $pdata$_powf_special       000000018007aa78     libucrt:pow_special.obj
 0004:00002a84       $pdata$_wcsicmp            000000018007aa84     libucrt:wcsicmp.obj
 0004:00002a90       $pdata$_wcsicmp_l          000000018007aa90     libucrt:wcsicmp.obj
 0004:00002a9c       $pdata$_isleadbyte_l       000000018007aa9c     libucrt:_wctype.obj
 0004:00002aa8       $pdata$__acrt_get_developer_information_policy 000000018007aaa8     libucrt:win_policies.obj
 0004:00002ab4       $pdata$__acrt_get_process_end_policy 000000018007aab4     libucrt:win_policies.obj
 0004:00002ac0       $pdata$__acrt_get_windowing_model_policy 000000018007aac0     libucrt:win_policies.obj
 0004:00002acc       $pdata$??$common_expand_argv_wildcards@D@@YAHQEAPEADQEAPEAPEAD@Z 000000018007aacc     libucrt:argv_wildcards.obj
 0004:00002ad8       $pdata$??$copy_and_add_argument_to_buffer@D@@YAHQEBD0_KAEAV?$argument_list@D@?A0x5f5c8891@@@Z 000000018007aad8     libucrt:argv_wildcards.obj
 0004:00002ae4       $pdata$??$expand_argument_wildcards@D@@YAHQEAD0AEAV?$argument_list@D@?A0x5f5c8891@@@Z 000000018007aae4     libucrt:argv_wildcards.obj
 0004:00002af0       $pdata$??$?RV<lambda_efdfa57d1f175319df784efa44bb7b81>@@AEAV<lambda_5f0a4c1567f8adc6734073e5d1e1b35c>@@V<lambda_2e8a7d3640ea6ccb4c2413664c2db6fd>@@@?$__crt_seh_guarded_call@X@@QEAAX$$QEAV<lambda_efdfa57d1f175319df784efa44bb7b81>@@AEAV<lambda_5f0a4c1567f8adc6734073e5d1e1b35c>@@$$QEAV<lambda_2e8a7d3640ea6ccb4c2413664c2db6fd>@@@Z 000000018007aaf0     libucrt:mbctype.obj
 0004:00002afc       $pdata$?getSystemCP@@YAHH@Z 000000018007aafc     libucrt:mbctype.obj
 0004:00002b08       $pdata$?setSBCS@@YAXPEAU__crt_multibyte_data@@@Z 000000018007ab08     libucrt:mbctype.obj
 0004:00002b14       $pdata$?setSBUpLow@@YAXPEAU__crt_multibyte_data@@@Z 000000018007ab14     libucrt:mbctype.obj
 0004:00002b20       $pdata$?setmbcp_internal@@YAHH_NQEAU__acrt_ptd@@QEAPEAU__crt_multibyte_data@@@Z 000000018007ab20     libucrt:mbctype.obj
 0004:00002b2c       $pdata$?update_thread_multibyte_data_internal@@YAPEAU__crt_multibyte_data@@QEAU__acrt_ptd@@QEAU1@@Z 000000018007ab2c     libucrt:mbctype.obj
 0004:00002b38       $pdata$__acrt_initialize_multibyte 000000018007ab38     libucrt:mbctype.obj
 0004:00002b44       $pdata$__acrt_update_thread_multibyte_data 000000018007ab44     libucrt:mbctype.obj
 0004:00002b50       $pdata$_setmbcp_nolock     000000018007ab50     libucrt:mbctype.obj
 0004:00002b5c       $pdata$__acrt_initialize_command_line 000000018007ab5c     libucrt:argv_data.obj
 0004:00002b68       $pdata$__dcrt_get_narrow_environment_from_os 000000018007ab68     libucrt:get_environment_from_os.obj
 0004:00002b74       $pdata$_recalloc_base      000000018007ab74     libucrt:recalloc.obj
 0004:00002b80       $pdata$__acrt_execute_initializers 000000018007ab80     libucrt:shared_initialization.obj
 0004:00002b8c       $pdata$__acrt_execute_uninitializers 000000018007ab8c     libucrt:shared_initialization.obj
 0004:00002b98       $pdata$__acrt_free_locale  000000018007ab98     libucrt:locale_refcounting.obj
 0004:00002ba4       $pdata$__acrt_locale_free_lc_time_if_unreferenced 000000018007aba4     libucrt:locale_refcounting.obj
 0004:00002bb0       $pdata$__acrt_release_locale_ref 000000018007abb0     libucrt:locale_refcounting.obj
 0004:00002bbc       $pdata$__acrt_update_thread_locale_data 000000018007abbc     libucrt:locale_refcounting.obj
 0004:00002bc8       $pdata$_updatetlocinfoEx_nolock 000000018007abc8     libucrt:locale_refcounting.obj
 0004:00002bd4       $pdata$__acrt_fp_strflt_to_string 000000018007abd4     libucrt:_fptostr.obj
 0004:00002be0       $pdata$__acrt_fltout       000000018007abe0     libucrt:cfout.obj
 0004:00002bec       $pdata$??$write_buffer_nolock@D@@YA_NDV__crt_stdio_stream@@@Z 000000018007abec     libucrt:_flsbuf.obj
 0004:00002bf8       $pdata$??$write_buffer_nolock@_W@@YA_N_WV__crt_stdio_stream@@@Z 000000018007abf8     libucrt:_flsbuf.obj
 0004:00002c04       $pdata$__acrt_stdio_flush_and_write_narrow_nolock 000000018007ac04     libucrt:_flsbuf.obj
 0004:00002c10       $pdata$__acrt_stdio_flush_and_write_wide_nolock 000000018007ac10     libucrt:_flsbuf.obj
 0004:00002c1c       $pdata$_fcloseall          000000018007ac1c     libucrt:closeall.obj
 0004:00002c28       $pdata$__acrt_stdio_free_buffer_nolock 000000018007ac28     libucrt:_freebuf.obj
 0004:00002c34       $pdata$_isatty             000000018007ac34     libucrt:isatty.obj
 0004:00002c40       $pdata$__acrt_locale_free_monetary 000000018007ac40     libucrt:initmon.obj
 0004:00002c4c       $pdata$__acrt_locale_initialize_monetary 000000018007ac4c     libucrt:initmon.obj
 0004:00002c58       $pdata$__acrt_locale_free_numeric 000000018007ac58     libucrt:initnum.obj
 0004:00002c64       $pdata$__acrt_locale_initialize_numeric 000000018007ac64     libucrt:initnum.obj
 0004:00002c70       $pdata$?free_crt_array_internal@@YAXQEAPEBX_K@Z 000000018007ac70     libucrt:inittime.obj
 0004:00002c7c       $pdata$?initialize_lc_time@@YA_NQEAU__crt_lc_time_data@@QEAU__crt_locale_data@@@Z 000000018007ac7c     libucrt:inittime.obj
 0004:00002c88       $pdata$__acrt_locale_free_time 000000018007ac88     libucrt:inittime.obj
 0004:00002c94       $pdata$__acrt_locale_initialize_time 000000018007ac94     libucrt:inittime.obj
 0004:00002ca0       $pdata$wcsncpy_s           000000018007aca0     libucrt:wcsncpy_s.obj
 0004:00002cac       $pdata$GetLocaleNameFromDefault 000000018007acac     libucrt:get_qualified_locale.obj
 0004:00002cb8       $pdata$GetLocaleNameFromLangCountry 000000018007acb8     libucrt:get_qualified_locale.obj
 0004:00002cc4       $pdata$GetLocaleNameFromLanguage 000000018007acc4     libucrt:get_qualified_locale.obj
 0004:00002cd0       $pdata$LangCountryEnumProcEx 000000018007acd0     libucrt:get_qualified_locale.obj
 0004:00002cdc       $pdata$LanguageEnumProcEx  000000018007acdc     libucrt:get_qualified_locale.obj
 0004:00002ce8       $pdata$ProcessCodePage     000000018007ace8     libucrt:get_qualified_locale.obj
 0004:00002cf4       $pdata$TestDefaultCountry  000000018007acf4     libucrt:get_qualified_locale.obj
 0004:00002d00       $pdata$TranslateName       000000018007ad00     libucrt:get_qualified_locale.obj
 0004:00002d0c       $pdata$__acrt_get_qualified_locale 000000018007ad0c     libucrt:get_qualified_locale.obj
 0004:00002d18       $pdata$CountryEnumProc     000000018007ad18     libucrt:getqloc_downlevel.obj
 0004:00002d24       $pdata$GetLcidFromLangCountry 000000018007ad24     libucrt:getqloc_downlevel.obj
 0004:00002d30       $pdata$GetLcidFromLanguage 000000018007ad30     libucrt:getqloc_downlevel.obj
 0004:00002d3c       $pdata$LangCountryEnumProc 000000018007ad3c     libucrt:getqloc_downlevel.obj
 0004:00002d48       $pdata$LanguageEnumProc    000000018007ad48     libucrt:getqloc_downlevel.obj
 0004:00002d54       $pdata$ProcessCodePage     000000018007ad54     libucrt:getqloc_downlevel.obj
 0004:00002d60       $pdata$TestDefaultLanguage 000000018007ad60     libucrt:getqloc_downlevel.obj
 0004:00002d6c       $pdata$TranslateName       000000018007ad6c     libucrt:getqloc_downlevel.obj
 0004:00002d78       $pdata$__acrt_get_qualified_locale_downlevel 000000018007ad78     libucrt:getqloc_downlevel.obj
 0004:00002d84       $pdata$__acrt_lowio_create_handle_array 000000018007ad84     libucrt:osfinfo.obj
 0004:00002d90       $pdata$__acrt_lowio_destroy_handle_array 000000018007ad90     libucrt:osfinfo.obj
 0004:00002d9c       $pdata$__acrt_lowio_ensure_fh_exists 000000018007ad9c     libucrt:osfinfo.obj
 0004:00002da8       $pdata$_free_osfhnd        000000018007ada8     libucrt:osfinfo.obj
 0004:00002db4       $pdata$_get_osfhandle      000000018007adb4     libucrt:osfinfo.obj
 0004:00002dcc       $pdata$??$?RV<lambda_a37b2b86f63e897a80ea819b0eb08c01>@@AEAV<lambda_38ce7e780aa69e748d6df282ebc68efe>@@V<lambda_99fb1378e971ab6e7edea83e3a7a83a2>@@@?$__crt_seh_guarded_call@H@@QEAAH$$QEAV<lambda_a37b2b86f63e897a80ea819b0eb08c01>@@AEAV<lambda_38ce7e780aa69e748d6df282ebc68efe>@@$$QEAV<lambda_99fb1378e971ab6e7edea83e3a7a83a2>@@@Z 000000018007adcc     libucrt:commit.obj
 0004:00002dd8       $pdata$_commit             000000018007add8     libucrt:commit.obj
 0004:00002de4       $pdata$?write_double_translated_ansi_nolock@@YA?AUwrite_result@?A0x17268360@@HQEBDI@Z 000000018007ade4     libucrt:write.obj
 0004:00002df0       $pdata$?write_requires_double_translation_nolock@@YA_NH@Z 000000018007adf0     libucrt:write.obj
 0004:00002dfc       $pdata$?write_text_ansi_nolock@@YA?AUwrite_result@?A0x17268360@@HQEBDI@Z 000000018007adfc     libucrt:write.obj
 0004:00002e08       $pdata$?write_text_utf16le_nolock@@YA?AUwrite_result@?A0x17268360@@HQEBDI@Z 000000018007ae08     libucrt:write.obj
 0004:00002e14       $pdata$?write_text_utf8_nolock@@YA?AUwrite_result@?A0x17268360@@HQEBDI@Z 000000018007ae14     libucrt:write.obj
 0004:00002e20       $pdata$_write              000000018007ae20     libucrt:write.obj
 0004:00002e2c       $pdata$_write_nolock       000000018007ae2c     libucrt:write.obj
 0004:00002e38       $pdata$?GetTableIndexFromLocaleName@@YAHPEB_W@Z 000000018007ae38     libucrt:lcidtoname_downlevel.obj
 0004:00002e44       $pdata$__acrt_DownlevelLCIDToLocaleName 000000018007ae44     libucrt:lcidtoname_downlevel.obj
 0004:00002e50       $pdata$__acrt_DownlevelLocaleNameToLCID 000000018007ae50     libucrt:lcidtoname_downlevel.obj
 0004:00002e5c       $pdata$strncpy_s           000000018007ae5c     libucrt:strncpy_s.obj
 0004:00002e68       $pdata$__acrt_fenv_set_control 000000018007ae68     libucrt:_fenvutils.obj
 0004:00002e74       $pdata$_call_matherr       000000018007ae74     libucrt:libm_error.obj
 0004:00002e80       $pdata$_exception_enabled  000000018007ae80     libucrt:libm_error.obj
 0004:00002e8c       $pdata$_handle_error       000000018007ae8c     libucrt:libm_error.obj
 0004:00002e98       $pdata$_handle_errorf      000000018007ae98     libucrt:libm_error.obj
 0004:00002ea4       $pdata$_towlower_l         000000018007aea4     libucrt:towlower.obj
 0004:00002eb0       $pdata$?shortsort@@YAXPEAD0_KP6AHPEBX2@Z@Z 000000018007aeb0     libucrt:qsort.obj
 0004:00002ebc       $pdata$2$?shortsort@@YAXPEAD0_KP6AHPEBX2@Z@Z 000000018007aebc     libucrt:qsort.obj
 0004:00002ec8       $pdata$3$?shortsort@@YAXPEAD0_KP6AHPEBX2@Z@Z 000000018007aec8     libucrt:qsort.obj
 0004:00002ed4       $pdata$qsort               000000018007aed4     libucrt:qsort.obj
 0004:00002ee0       $pdata$4$qsort             000000018007aee0     libucrt:qsort.obj
 0004:00002eec       $pdata$5$qsort             000000018007aeec     libucrt:qsort.obj
 0004:00002ef8       $pdata$strpbrk             000000018007aef8     libucrt:strpbrk.obj
 0004:00002f04       $pdata$_mbsdec_l           000000018007af04     libucrt:mbsdec.obj
 0004:00002f10       $pdata$?initialize_multibyte@@YAHXZ 000000018007af10     libucrt:multibyte_initializer.obj
 0004:00002f1c       $pdata$_msize_base         000000018007af1c     libucrt:msize.obj
 0004:00002f28       $pdata$fegetenv            000000018007af28     libucrt:fegetenv.obj
 0004:00002f34       $pdata$fesetenv            000000018007af34     libucrt:fesetenv.obj
 0004:00002f40       $pdata$feholdexcept        000000018007af40     libucrt:feholdexcept.obj
 0004:00002f58       $pdata$??$common_lseek@_J@@YA_JH_JH@Z 000000018007af58     libucrt:lseek.obj
 0004:00002f64       $pdata$??$common_lseek_nolock@_J@@YA_JH_JH@Z 000000018007af64     libucrt:lseek.obj
 0004:00002f70       $pdata$__acrt_stdio_allocate_buffer_nolock 000000018007af70     libucrt:_getbuf.obj
 0004:00002f7c       $pdata$_fclose_nolock      000000018007af7c     libucrt:fclose.obj
 0004:00002f88       $pdata$fclose              000000018007af88     libucrt:fclose.obj
 0004:00002f94       $pdata$_wcsnicmp           000000018007af94     libucrt:wcsnicmp.obj
 0004:00002fa0       $pdata$_wcsnicmp_l         000000018007afa0     libucrt:wcsnicmp.obj
 0004:00002fac       $pdata$_putwch_nolock      000000018007afac     libucrt:putwch.obj
 0004:00002fb8       $pdata$__acrt_LCMapStringW 000000018007afb8     libucrt:lcmapstringw.obj
 0004:00002fc4       $pdata$_clearfp            000000018007afc4     libucrt:ieee.obj
 0004:00002fd0       $pdata$_log10_special      000000018007afd0     libucrt:log_special.obj
 0004:00002fdc       $pdata$_log_special_common 000000018007afdc     libucrt:log_special.obj
 0004:00002fe8       $pdata$??$?RV<lambda_751a882b2c74d4b022dec766aa51a29a>@@AEAV<lambda_628dfdc04ba53c8bfc02c9951375f3f5>@@V<lambda_f6c7be5f7998530c34de24c7437d6b54>@@@?$__crt_seh_guarded_call@H@@QEAAH$$QEAV<lambda_751a882b2c74d4b022dec766aa51a29a>@@AEAV<lambda_628dfdc04ba53c8bfc02c9951375f3f5>@@$$QEAV<lambda_f6c7be5f7998530c34de24c7437d6b54>@@@Z 000000018007afe8     libucrt:close.obj
 0004:00002ff4       $pdata$_close              000000018007aff4     libucrt:close.obj
 0004:00003000       $pdata$_close_nolock       000000018007b000     libucrt:close.obj
 0004:0000300c       $pdata$__dcrt_lowio_ensure_console_output_initialized 000000018007b00c     libucrt:initcon.obj
 0004:00003018       $pdata$__dcrt_terminate_console_output 000000018007b018     libucrt:initcon.obj
 0004:00003024       $pdata$__dcrt_write_console_w 000000018007b024     libucrt:initcon.obj
 0004:00003030       $pdata$?DloadAcquireSectionWriteAccess@@YAXXZ 000000018007b030     DelayImp:delayhlp.obj
 0004:0000303c       $pdata$?DloadGetSRWLockFunctionPointers@@YAEXZ 000000018007b03c     DelayImp:delayhlp.obj
 0004:00003048       $pdata$?DloadMakePermanentImageCommit@@YAXPEAX_K@Z 000000018007b048     DelayImp:delayhlp.obj
 0004:00003054       $pdata$?DloadObtainSection@@YAPEAXPEAK0@Z 000000018007b054     DelayImp:delayhlp.obj
 0004:00003060       $pdata$?DloadProtectSection@@YAXKPEAK@Z 000000018007b060     DelayImp:delayhlp.obj
 0004:0000306c       $pdata$?DloadReleaseSectionWriteAccess@@YAXXZ 000000018007b06c     DelayImp:delayhlp.obj
 0004:00003078       $pdata$__delayLoadHelper2  000000018007b078     DelayImp:delayhlp.obj
 0004:00003084       $pdata$_IsNonwritableInCurrentImage 000000018007b084     LIBCMT:pesect.obj
 0004:00003090       $pdata$strrchr             000000018007b090     libvcruntime:strrchr.obj
 0004:0000309c       $pdata$wcschr              000000018007b09c     libvcruntime:wcschr.obj
 0004:000030e4       $pdata$?dtor$11@?0???0Oracledb@@AEAA@XZ@4HA 000000018007b0e4     njsOracle.obj
 0004:000030f0       $pdata$?dtor$0@?0??New@Oracledb@@CAXAEBV?$FunctionCallbackInfo@VValue@v8@@@Nan@@@Z@4HA 000000018007b0f0     njsOracle.obj
 0004:000030fc       $pdata$?dtor$2@?0??GetConnection@Oracledb@@CAXAEBV?$FunctionCallbackInfo@VValue@v8@@@Nan@@@Z@4HA 000000018007b0fc     njsOracle.obj
 0004:00003108       $pdata$?dtor$1@?0??Async_GetConnection@Oracledb@@CAXPEAUuv_work_s@@@Z@4HA 000000018007b108     njsOracle.obj
 0004:00003114       $pdata$?catch$2@?0??Async_GetConnection@Oracledb@@CAXPEAUuv_work_s@@@Z@4HA 000000018007b114     njsOracle.obj
 0004:00003120       $pdata$?dtor$3@?0??CreatePool@Oracledb@@CAXAEBV?$FunctionCallbackInfo@VValue@v8@@@Nan@@@Z@4HA 000000018007b120     njsOracle.obj
 0004:0000312c       $pdata$?dtor$1@?0??Async_CreatePool@Oracledb@@CAXPEAUuv_work_s@@@Z@4HA 000000018007b12c     njsOracle.obj
 0004:00003138       $pdata$?catch$2@?0??Async_CreatePool@Oracledb@@CAXPEAUuv_work_s@@@Z@4HA 000000018007b138     njsOracle.obj
 0004:00003144       $pdata$?dtor$0@?0???0?$basic_stringstream@DU?$char_traits@D@std@@V?$allocator@D@2@@std@@QEAA@H@Z@4HA 000000018007b144     njsOracle.obj
 0004:00003150       $pdata$?dtor$4@?0???6?$basic_ostream@DU?$char_traits@D@std@@@std@@QEAAAEAV01@H@Z@4HA 000000018007b150     njsOracle.obj
 0004:0000315c       $pdata$?dtor$2@?0???$use_facet@V?$ctype@D@std@@@std@@YAAEBV?$ctype@D@0@AEBVlocale@0@@Z@4HA 000000018007b15c     njsOracle.obj
 0004:00003168       $pdata$?dtor$0@?0??_Getcat@?$numpunct@D@std@@SA_KPEAPEBVfacet@locale@2@PEBV42@@Z@4HA 000000018007b168     njsOracle.obj
 0004:00003174       $pdata$?dtor$1@?0??_Getcat@?$numpunct@D@std@@SA_KPEAPEBVfacet@locale@2@PEBV42@@Z@4HA 000000018007b174     njsOracle.obj
 0004:00003180       $pdata$?catch$2@?0??GetConnectionsOpen@Pool@@CAXV?$Local@VString@v8@@@v8@@AEBV?$PropertyCallbackInfo@VValue@v8@@@Nan@@@Z@4HA 000000018007b180     njsPool.obj
 0004:0000318c       $pdata$?catch$2@?0??GetConnectionsInUse@Pool@@CAXV?$Local@VString@v8@@@v8@@AEBV?$PropertyCallbackInfo@VValue@v8@@@Nan@@@Z@4HA 000000018007b18c     njsPool.obj
 0004:00003198       $pdata$?dtor$2@?0??Terminate@Pool@@CAXAEBV?$FunctionCallbackInfo@VValue@v8@@@Nan@@@Z@4HA 000000018007b198     njsPool.obj
 0004:00003198       $pdata$?dtor$2@?0??GetConnection@Pool@@CAXAEBV?$FunctionCallbackInfo@VValue@v8@@@Nan@@@Z@4HA 000000018007b198     njsPool.obj
 0004:000031a4       $pdata$?dtor$4@?0??Async_GetConnection@Pool@@CAXPEAUuv_work_s@@@Z@4HA 000000018007b1a4     njsPool.obj
 0004:000031b0       $pdata$?catch$5@?0??Async_GetConnection@Pool@@CAXPEAUuv_work_s@@@Z@4HA 000000018007b1b0     njsPool.obj
 0004:000031bc       $pdata$?catch$1@?0??Async_Terminate@Pool@@CAXPEAUuv_work_s@@@Z@4HA 000000018007b1bc     njsPool.obj
 0004:000031c8       $pdata$?catch$2@?0??GetStmtCacheSize@Connection@@CAXV?$Local@VString@v8@@@v8@@AEBV?$PropertyCallbackInfo@VValue@v8@@@Nan@@@Z@4HA 000000018007b1c8     njsConnection.obj
 0004:000031d4       $pdata$?catch$7@?0??SetClientId@Connection@@CAXV?$Local@VString@v8@@@v8@@V?$Local@VValue@v8@@@3@AEBV?$PropertyCallbackInfo@X@Nan@@@Z@4HA 000000018007b1d4     njsConnection.obj
 0004:000031e0       $pdata$?catch$7@?0??SetModule@Connection@@CAXV?$Local@VString@v8@@@v8@@V?$Local@VValue@v8@@@3@AEBV?$PropertyCallbackInfo@X@Nan@@@Z@4HA 000000018007b1e0     njsConnection.obj
 0004:000031ec       $pdata$?catch$7@?0??SetAction@Connection@@CAXV?$Local@VString@v8@@@v8@@V?$Local@VValue@v8@@@3@AEBV?$PropertyCallbackInfo@X@Nan@@@Z@4HA 000000018007b1ec     njsConnection.obj
 0004:000031f8       $pdata$?catch$4@?0??GetOracleServerVersion@Connection@@CAXV?$Local@VString@v8@@@v8@@AEBV?$PropertyCallbackInfo@VValue@v8@@@Nan@@@Z@4HA 000000018007b1f8     njsConnection.obj
 0004:00003204       $pdata$?dtor$3@?0??Execute@Connection@@CAXAEBV?$FunctionCallbackInfo@VValue@v8@@@Nan@@@Z@4HA 000000018007b204     njsConnection.obj
 0004:00003210       $pdata$?dtor$4@?0??ProcessBinds@Connection@@CAXAEBV?$FunctionCallbackInfo@VValue@v8@@@Nan@@IPEAUeBaton@@@Z@4HA 000000018007b210     njsConnection.obj
 0004:0000321c       $pdata$?dtor$8@?0??ProcessOptions@Connection@@CAXAEBV?$FunctionCallbackInfo@VValue@v8@@@Nan@@IPEAUeBaton@@@Z@4HA 000000018007b21c     njsConnection.obj
 0004:00003228       $pdata$?dtor$2@?0??GetBinds@Connection@@CAXV?$Local@VObject@v8@@@v8@@PEAUeBaton@@@Z@4HA 000000018007b228     njsConnection.obj
 0004:00003234       $pdata$?dtor$18@?0??GetInBindParamsScalar@Connection@@CAXV?$Local@VValue@v8@@@v8@@PEAUBind@@PEAUeBaton@@@Z@4HA 000000018007b234     njsConnection.obj
 0004:00003240       $pdata$?dtor$1@?0??Async_Execute@Connection@@CAXPEAUuv_work_s@@@Z@4HA 000000018007b240     njsConnection.obj
 0004:0000324c       $pdata$?dtor$8@?0??Async_Execute@Connection@@CAXPEAUuv_work_s@@@Z@4HA 000000018007b24c     njsConnection.obj
 0004:00003258       $pdata$?catch$12@?0??Async_Execute@Connection@@CAXPEAUuv_work_s@@@Z@4HA 000000018007b258     njsConnection.obj
 0004:00003264       $pdata$?dtor$3@?0??PrepareAndBind@Connection@@CAXPEAUeBaton@@@Z@4HA 000000018007b264     njsConnection.obj
 0004:00003270       $pdata$?dtor$0@?0??Descr2protoILob@Connection@@CAXPEAUeBaton@@II@Z@4HA 000000018007b270     njsConnection.obj
 0004:0000327c       $pdata$?dtor$1@?0??Descr2protoILob@Connection@@CAXPEAUeBaton@@II@Z@4HA 000000018007b27c     njsConnection.obj
 0004:00003288       $pdata$?dtor$2@?0??Descr2protoILob@Connection@@CAXPEAUeBaton@@II@Z@4HA 000000018007b288     njsConnection.obj
 0004:00003294       $pdata$?dtor$4@?0??Release@Connection@@CAXAEBV?$FunctionCallbackInfo@VValue@v8@@@Nan@@@Z@4HA 000000018007b294     njsConnection.obj
 0004:000032a0       $pdata$?catch$2@?0??Async_Release@Connection@@CAXPEAUuv_work_s@@@Z@4HA 000000018007b2a0     njsConnection.obj
 0004:000032ac       $pdata$?dtor$3@?0??Commit@Connection@@CAXAEBV?$FunctionCallbackInfo@VValue@v8@@@Nan@@@Z@4HA 000000018007b2ac     njsConnection.obj
 0004:000032ac       $pdata$?dtor$3@?0??Break@Connection@@CAXAEBV?$FunctionCallbackInfo@VValue@v8@@@Nan@@@Z@4HA 000000018007b2ac     njsConnection.obj
 0004:000032ac       $pdata$?dtor$3@?0??Rollback@Connection@@CAXAEBV?$FunctionCallbackInfo@VValue@v8@@@Nan@@@Z@4HA 000000018007b2ac     njsConnection.obj
 0004:000032b8       $pdata$?catch$1@?0??Async_Commit@Connection@@CAXPEAUuv_work_s@@@Z@4HA 000000018007b2b8     njsConnection.obj
 0004:000032c4       $pdata$?catch$1@?0??Async_Rollback@Connection@@CAXPEAUuv_work_s@@@Z@4HA 000000018007b2c4     njsConnection.obj
 0004:000032d0       $pdata$?catch$1@?0??Async_Break@Connection@@CAXPEAUuv_work_s@@@Z@4HA 000000018007b2d0     njsConnection.obj
 0004:000032dc       $pdata$?dtor$3@?0??CreateLob@Connection@@CAXAEBV?$FunctionCallbackInfo@VValue@v8@@@Nan@@@Z@4HA 000000018007b2dc     njsConnection.obj
 0004:000032e8       $pdata$?catch$1@?0??Async_CreateLob@Connection@@CAXPEAUuv_work_s@@@Z@4HA 000000018007b2e8     njsConnection.obj
 0004:000032f4       $pdata$?dtor$3@?0??Async_AfterCreateLob@Connection@@CAXPEAUuv_work_s@@@Z@4HA 000000018007b2f4     njsConnection.obj
 0004:00003300       $pdata$?dtor$2@?0???0rsBaton@@QEAA@AEAIV?$Local@VFunction@v8@@@v8@@V?$Local@VObject@v8@@@2@2@Z@4HA 000000018007b300     njsResultSet.obj
 0004:0000330c       $pdata$?dtor$0@?0??setResultSet@ResultSet@@QEAAXPEAVStmt@dpi@@PEAUeBaton@@IPEBUMetaInfo@@@Z@4HA 000000018007b30c     njsResultSet.obj
 0004:00003318       $pdata$?dtor$3@?0??GetRow@ResultSet@@CAXAEBV?$FunctionCallbackInfo@VValue@v8@@@Nan@@@Z@4HA 000000018007b318     njsResultSet.obj
 0004:00003324       $pdata$?dtor$3@?0??GetRows@ResultSet@@CAXAEBV?$FunctionCallbackInfo@VValue@v8@@@Nan@@@Z@4HA 000000018007b324     njsResultSet.obj
 0004:00003330       $pdata$?catch$1@?0??Async_GetRows@ResultSet@@CAXPEAUuv_work_s@@@Z@4HA 000000018007b330     njsResultSet.obj
 0004:0000333c       $pdata$?dtor$3@?0??Close@ResultSet@@CAXAEBV?$FunctionCallbackInfo@VValue@v8@@@Nan@@@Z@4HA 000000018007b33c     njsResultSet.obj
 0004:00003348       $pdata$?catch$1@?0??Async_Close@ResultSet@@CAXPEAUuv_work_s@@@Z@4HA 000000018007b348     njsResultSet.obj
 0004:00003354       $pdata$?dtor$0@?0??getErrorMsg@NJSMessages@@SA?AV?$basic_string@DU?$char_traits@D@std@@V?$allocator@D@2@@std@@W4NJSErrorType@@ZZ@4HA 000000018007b354     njsMessages.obj
 0004:00003360       $pdata$?catch$0@?0??cleanupDPI@ILob@@QEAAXXZ@4HA 000000018007b360     njsIntLob.obj
 0004:0000336c       $pdata$?catch$1@?0??setILob@ILob@@QEAAXPEAUeBaton@@PEAVProtoILob@@_N@Z@4HA 000000018007b36c     njsIntLob.obj
 0004:00003378       $pdata$?dtor$4@?0??Close@ILob@@CAXAEBV?$FunctionCallbackInfo@VValue@v8@@@Nan@@@Z@4HA 000000018007b378     njsIntLob.obj
 0004:00003384       $pdata$?catch$3@?0??GetChunkSize@ILob@@CAXV?$Local@VString@v8@@@v8@@AEBV?$PropertyCallbackInfo@VValue@v8@@@Nan@@@Z@4HA 000000018007b384     njsIntLob.obj
 0004:00003390       $pdata$?catch$3@?0??GetLength@ILob@@CAXV?$Local@VString@v8@@@v8@@AEBV?$PropertyCallbackInfo@VValue@v8@@@Nan@@@Z@4HA 000000018007b390     njsIntLob.obj
 0004:0000339c       $pdata$?catch$3@?0??GetPieceSize@ILob@@CAXV?$Local@VString@v8@@@v8@@AEBV?$PropertyCallbackInfo@VValue@v8@@@Nan@@@Z@4HA 000000018007b39c     njsIntLob.obj
 0004:000033a8       $pdata$?catch$7@?0??SetPieceSize@ILob@@CAXV?$Local@VString@v8@@@v8@@V?$Local@VValue@v8@@@3@AEBV?$PropertyCallbackInfo@X@Nan@@@Z@4HA 000000018007b3a8     njsIntLob.obj
 0004:000033b4       $pdata$?catch$3@?0??GetOffset@ILob@@CAXV?$Local@VString@v8@@@v8@@AEBV?$PropertyCallbackInfo@VValue@v8@@@Nan@@@Z@4HA 000000018007b3b4     njsIntLob.obj
 0004:000033c0       $pdata$?catch$1@?0??GetType@ILob@@CAXV?$Local@VString@v8@@@v8@@AEBV?$PropertyCallbackInfo@VValue@v8@@@Nan@@@Z@4HA 000000018007b3c0     njsIntLob.obj
 0004:000033cc       $pdata$?dtor$3@?0??Read@ILob@@CAXAEBV?$FunctionCallbackInfo@VValue@v8@@@Nan@@@Z@4HA 000000018007b3cc     njsIntLob.obj
 0004:000033d8       $pdata$?catch$1@?0??Async_Read@ILob@@CAXPEAUuv_work_s@@@Z@4HA 000000018007b3d8     njsIntLob.obj
 0004:000033e4       $pdata$?dtor$3@?0??Write@ILob@@CAXAEBV?$FunctionCallbackInfo@VValue@v8@@@Nan@@@Z@4HA 000000018007b3e4     njsIntLob.obj
 0004:000033f0       $pdata$?catch$1@?0??Async_Write@ILob@@CAXPEAUuv_work_s@@@Z@4HA 000000018007b3f0     njsIntLob.obj
 0004:000033fc       $pdata$?catch$1@?0???0ProtoILob@@QEAA@PEAUeBaton@@PEAUDescriptor@dpi@@G@Z@4HA 000000018007b3fc     njsIntLob.obj
 0004:00003408       $pdata$?catch$2@?0???0EnvImpl@@QEAA@AEBV?$basic_string@DU?$char_traits@D@std@@V?$allocator@D@2@@std@@II@Z@4HA 000000018007b408     dpiEnvImpl.obj
 0004:00003414       $pdata$?dtor$0@?0??createPool@EnvImpl@@UEAAPEAVSPool@dpi@@AEBV?$basic_string@DU?$char_traits@D@std@@V?$allocator@D@2@@std@@00HHHHH_N1H@Z@4HA 000000018007b414     dpiEnvImpl.obj
 0004:00003420       $pdata$?dtor$0@?0??getConnection@EnvImpl@@UEAAPEAVConn@dpi@@AEBV?$basic_string@DU?$char_traits@D@std@@V?$allocator@D@2@@std@@00H0_NW4DBPrivileges@3@@Z@4HA 000000018007b420     dpiEnvImpl.obj
 0004:0000342c       $pdata$?catch$5@?0???0ConnImpl@@QEAA@PEAVEnvImpl@@PEAUOCIEnv@@_NIAEBV?$basic_string@DU?$char_traits@D@std@@V?$allocator@D@2@@std@@333W4DBPrivileges@dpi@@@Z@4HA 000000018007b42c     dpiConnImpl.obj
 0004:00003438       $pdata$?catch$4@?0???0ConnImpl@@QEAA@PEAVPoolImpl@@PEAUOCIEnv@@_NPEAEIAEBV?$basic_string@DU?$char_traits@D@std@@V?$allocator@D@2@@std@@444HW4DBPrivileges@dpi@@H@Z@4HA 000000018007b438     dpiConnImpl.obj
 0004:00003444       $pdata$?dtor$0@?0??getStmt@ConnImpl@@UEAAPEAVStmt@dpi@@AEBV?$basic_string@DU?$char_traits@D@std@@V?$allocator@D@2@@std@@@Z@4HA 000000018007b444     dpiConnImpl.obj
 0004:00003450       $pdata$?catch$1@?0???0PoolImpl@@QEAA@PEAVEnvImpl@@PEAUOCIEnv@@AEBV?$basic_string@DU?$char_traits@D@std@@V?$allocator@D@2@@std@@22HHHH_NH3H@Z@4HA 000000018007b450     dpiPoolImpl.obj
 0004:0000345c       $pdata$?dtor$0@?0??getConnection@PoolImpl@@UEAAPEAVConn@dpi@@AEBV?$basic_string@DU?$char_traits@D@std@@V?$allocator@D@2@@std@@000HW4DBPrivileges@3@@Z@4HA 000000018007b45c     dpiPoolImpl.obj
 0004:00003468       $pdata$?catch$1@?0???0StmtImpl@@QEAA@PEAUOCIEnv@@PEAVConnImpl@@PEAUOCISvcCtx@@AEBV?$basic_string@DU?$char_traits@D@std@@V?$allocator@D@2@@std@@@Z@4HA 000000018007b468     dpiStmtImpl.obj
 0004:00003474       $pdata$__scrt_is_nonwritable_in_current_image$filt$0 000000018007b474     LIBCMT:utility.obj
 0004:00003480       $pdata$?fin$0@?0???_M@YAXPEAX_K1P6AX0@Z@Z@4HA 000000018007b480     LIBCMT:ehvecdtr.obj
 0004:0000348c       $pdata$?filt$0@?0??__ArrayUnwind@@YAXPEAX_K1P6AX0@Z@Z@4HA 000000018007b48c     LIBCMT:ehvecdtr.obj
 0004:00003498       $pdata$?fin$0@?0???_L@YAXPEAX_K1P6AX0@Z2@Z@4HA 000000018007b498     LIBCMT:ehvecctr.obj
 0004:000034a4       $pdata$?fin$0@?0??dllmain_crt_process_attach@@YAHQEAUHINSTANCE__@@QEAX@Z@4HA 000000018007b4a4     LIBCMT:dll_dllmain.obj
 0004:000034b0       $pdata$?fin$0@?0??dllmain_crt_process_detach@@YAH_N@Z@4HA 000000018007b4b0     LIBCMT:dll_dllmain.obj
 0004:000034bc       $pdata$?filt$0@?0??dllmain_dispatch@@YAHQEAUHINSTANCE__@@KQEAX@Z@4HA 000000018007b4bc     LIBCMT:dll_dllmain.obj
 0004:000034c8       $pdata$_CallSETranslator$filt$0 000000018007b4c8     libvcruntime:risctrnsctrl.obj
 0004:000034d4       $pdata$__DestructExceptionObject$filt$0 000000018007b4d4     libvcruntime:ehhelpers.obj
 0004:000034e0       $pdata$__CxxCallCatchBlock$filt$0 000000018007b4e0     libvcruntime:frame.obj
 0004:000034ec       $pdata$__CxxCallCatchBlock$fin$1 000000018007b4ec     libvcruntime:frame.obj
 0004:000034f8       $pdata$__FrameUnwindToState$filt$0 000000018007b4f8     libvcruntime:frame.obj
 0004:00003504       $pdata$__FrameUnwindToState$fin$1 000000018007b504     libvcruntime:frame.obj
 0004:00003510       $pdata$_query_new_handler$fin$0 000000018007b510     libucrt:new_handler.obj
 0004:0000351c       $pdata$?filt$0@?0???R<lambda_6e4b09c48022b2350581041d5f6b0c4c>@@QEBA@XZ@4HA 000000018007b51c     libucrt:exit.obj
 0004:00003528       $pdata$raise$fin$0         000000018007b528     libucrt:signal.obj
 0004:00003534       $pdata$?fin$0@?0???$?RV<lambda_0ae27a3a962d80f24befdcbee591983d>@@AEAV<lambda_8d0ee55de4b1038c4002e0adecdf1839>@@V<lambda_dc504788e8f1664fe9b84e20bfb512f2>@@@?$__crt_seh_guarded_call@X@@QEAAX$$QEAV<lambda_0ae27a3a962d80f24befdcbee591983d>@@AEAV<lambda_8d0ee55de4b1038c4002e0adecdf1839>@@$$QEAV<lambda_dc504788e8f1664fe9b84e20bfb512f2>@@@Z@4HA 000000018007b534     libucrt:per_thread_data.obj
 0004:00003534       $pdata$?fin$0@?0???$?RV<lambda_450d765d439847d4c735a33c368b5fc0>@@AEAV<lambda_44731a7d0e6d81c3e6aa82d741081786>@@V<lambda_601a2a7da3b7a96e9554ac7215c4b07c>@@@?$__crt_seh_guarded_call@P6AXH@Z@@QEAAP6AXH@Z$$QEAV<lambda_450d765d439847d4c735a33c368b5fc0>@@AEAV<lambda_44731a7d0e6d81c3e6aa82d741081786>@@$$QEAV<lambda_601a2a7da3b7a96e9554ac7215c4b07c>@@@Z@4HA 000000018007b534     libucrt:signal.obj
 0004:00003534       $pdata$?fin$0@?0???$?RV<lambda_7777bce6b2f8c936911f934f8298dc43>@@AEAV<lambda_f03950bc5685219e0bcd2087efbe011e>@@V<lambda_3883c3dff614d5e0c5f61bb1ac94921c>@@@?$__crt_seh_guarded_call@H@@QEAAH$$QEAV<lambda_7777bce6b2f8c936911f934f8298dc43>@@AEAV<lambda_f03950bc5685219e0bcd2087efbe011e>@@$$QEAV<lambda_3883c3dff614d5e0c5f61bb1ac94921c>@@@Z@4HA 000000018007b534     libucrt:onexit.obj
 0004:00003534       $pdata$?fin$0@?0???$?RV<lambda_f2e299630e499de9f9a165e60fcd3db5>@@AEAV<lambda_2ae9d31cdba2644fcbeaf08da7c24588>@@V<lambda_40d01ff24d0e7b3814fdbdcee8eab3c7>@@@?$__crt_seh_guarded_call@X@@QEAAX$$QEAV<lambda_f2e299630e499de9f9a165e60fcd3db5>@@AEAV<lambda_2ae9d31cdba2644fcbeaf08da7c24588>@@$$QEAV<lambda_40d01ff24d0e7b3814fdbdcee8eab3c7>@@@Z@4HA 000000018007b534     libucrt:per_thread_data.obj
 0004:00003534       $pdata$?fin$0@?0???$?RV<lambda_efdfa57d1f175319df784efa44bb7b81>@@AEAV<lambda_5f0a4c1567f8adc6734073e5d1e1b35c>@@V<lambda_2e8a7d3640ea6ccb4c2413664c2db6fd>@@@?$__crt_seh_guarded_call@X@@QEAAX$$QEAV<lambda_efdfa57d1f175319df784efa44bb7b81>@@AEAV<lambda_5f0a4c1567f8adc6734073e5d1e1b35c>@@$$QEAV<lambda_2e8a7d3640ea6ccb4c2413664c2db6fd>@@@Z@4HA 000000018007b534     libucrt:mbctype.obj
 0004:00003534       $pdata$?fin$0@?0???$?RV<lambda_2d41944a1d46af3157314b8a01080d33>@@AEAV<lambda_8f455de75cd7d7f24b4096f044d8b9e6>@@V<lambda_aa500f224e6afead328df44964fe2772>@@@?$__crt_seh_guarded_call@X@@QEAAX$$QEAV<lambda_2d41944a1d46af3157314b8a01080d33>@@AEAV<lambda_8f455de75cd7d7f24b4096f044d8b9e6>@@$$QEAV<lambda_aa500f224e6afead328df44964fe2772>@@@Z@4HA 000000018007b534     libucrt:per_thread_data.obj
 0004:00003534       $pdata$?fin$0@?0???$?RV<lambda_8369fcb7c4df1e85de37618bd2b85f07>@@AEAV<lambda_a10e4b102d4a2c3aac6f4f48bbdf488f>@@V<lambda_5b7707bd6d7a0c4713179f36c7fd995d>@@@?$__crt_seh_guarded_call@H@@QEAAH$$QEAV<lambda_8369fcb7c4df1e85de37618bd2b85f07>@@AEAV<lambda_a10e4b102d4a2c3aac6f4f48bbdf488f>@@$$QEAV<lambda_5b7707bd6d7a0c4713179f36c7fd995d>@@@Z@4HA 000000018007b534     libucrt:onexit.obj
 0004:00003534       $pdata$?fin$0@?0???$?RV<lambda_d80eeec6fff315bfe5c115232f3240e3>@@AEAV<lambda_6e4b09c48022b2350581041d5f6b0c4c>@@V<lambda_2358e3775559c9db80273638284d5e45>@@@?$__crt_seh_guarded_call@X@@QEAAX$$QEAV<lambda_d80eeec6fff315bfe5c115232f3240e3>@@AEAV<lambda_6e4b09c48022b2350581041d5f6b0c4c>@@$$QEAV<lambda_2358e3775559c9db80273638284d5e45>@@@Z@4HA 000000018007b534     libucrt:exit.obj
 0004:00003534       $pdata$?fin$0@?0???$?RV<lambda_9bd929c17696992ce54f1d748594fc62>@@AEAV<lambda_082c17da81b0962e08c0587ee0fac50c>@@V<lambda_9c08ac857f4975304d44e9f601d9b878>@@@?$__crt_seh_guarded_call@PEAD@@QEAAPEAD$$QEAV<lambda_9bd929c17696992ce54f1d748594fc62>@@AEAV<lambda_082c17da81b0962e08c0587ee0fac50c>@@$$QEAV<lambda_9c08ac857f4975304d44e9f601d9b878>@@@Z@4HA 000000018007b534     libucrt:setlocale.obj
 0004:00003534       $pdata$?fin$0@?0???$?RV<lambda_bd00b5aa228bd7e7e5b2b5db5fd2933b>@@AEAV<lambda_777d11615145f89ee95b9466d285deeb>@@V<lambda_6e5e48fbd24f9f8f81b203eb3d877683>@@@?$__crt_seh_guarded_call@H@@QEAAH$$QEAV<lambda_bd00b5aa228bd7e7e5b2b5db5fd2933b>@@AEAV<lambda_777d11615145f89ee95b9466d285deeb>@@$$QEAV<lambda_6e5e48fbd24f9f8f81b203eb3d877683>@@@Z@4HA 000000018007b534     libucrt:winapi_thunks.obj
 0004:00003534       $pdata$?fin$0@?0???$?RV<lambda_aa87e3671a710a21b5dc78c0bdf72e11>@@AEAV<lambda_92619d2358a28f41a33ba319515a20b9>@@V<lambda_6992ecaafeb10aed2b74cb1fae11a551>@@@?$__crt_seh_guarded_call@X@@QEAAX$$QEAV<lambda_aa87e3671a710a21b5dc78c0bdf72e11>@@AEAV<lambda_92619d2358a28f41a33ba319515a20b9>@@$$QEAV<lambda_6992ecaafeb10aed2b74cb1fae11a551>@@@Z@4HA 000000018007b534     libucrt:per_thread_data.obj
 0004:00003534       $pdata$?fin$0@?0???$?RV<lambda_9529fede68560d7205a1271ab16b352e>@@AEAV<lambda_ebf8c556deb379764da826e7bb46e993>@@V<lambda_db92443d3c9ace7c8a20b950bb983b5a>@@@?$__crt_seh_guarded_call@X@@QEAAX$$QEAV<lambda_9529fede68560d7205a1271ab16b352e>@@AEAV<lambda_ebf8c556deb379764da826e7bb46e993>@@$$QEAV<lambda_db92443d3c9ace7c8a20b950bb983b5a>@@@Z@4HA 000000018007b534     libucrt:wsetlocale.obj
 0004:00003540       $pdata$?fin$0@?0???$?RV<lambda_410d79af7f07d98d83a3f525b3859a53>@@AEAV<lambda_3e16ef9562a7dcce91392c22ab16ea36>@@V<lambda_38119f0e861e05405d8a144b9b982f0a>@@@?$__crt_seh_guarded_call@X@@QEAAX$$QEAV<lambda_410d79af7f07d98d83a3f525b3859a53>@@AEAV<lambda_3e16ef9562a7dcce91392c22ab16ea36>@@$$QEAV<lambda_38119f0e861e05405d8a144b9b982f0a>@@@Z@4HA 000000018007b540     libucrt:wsetlocale.obj
 0004:0000354c       $pdata$?fin$0@?0???$?RV<lambda_d8a01803c7231904df012bb083be9e3a>@@AEAV<lambda_b163b37eafe0a13f2c371fafeb0365c9>@@AEAV<lambda_8dff2cf36a5417162780cd64fa2883ef>@@@?$__crt_seh_guarded_call@X@@QEAAX$$QEAV<lambda_d8a01803c7231904df012bb083be9e3a>@@AEAV<lambda_b163b37eafe0a13f2c371fafeb0365c9>@@AEAV<lambda_8dff2cf36a5417162780cd64fa2883ef>@@@Z@4HA 000000018007b54c     libucrt:wsetlocale.obj
 0004:00003558       $pdata$__acrt_lowio_ensure_fh_exists$fin$0 000000018007b558     libucrt:osfinfo.obj
 0004:00003558       $pdata$__acrt_initialize_lowio$fin$0 000000018007b558     libucrt:ioinit.obj
 0004:00003564       $pdata$_ctrlfp$filt$0      000000018007b564     libucrt:fpctrl.obj
 0004:00003570       $pdata$?fin$0@?0???$?RV<lambda_886d6c58226a84441f68b9f2b8217b83>@@AEAV<lambda_ab61a845afdef5b7c387490eaf3616ee>@@V<lambda_f7f22ab5edc0698d5f6905b0d3f44752>@@@?$__crt_seh_guarded_call@X@@QEAAX$$QEAV<lambda_886d6c58226a84441f68b9f2b8217b83>@@AEAV<lambda_ab61a845afdef5b7c387490eaf3616ee>@@$$QEAV<lambda_f7f22ab5edc0698d5f6905b0d3f44752>@@@Z@4HA 000000018007b570     libucrt:fflush.obj
 0004:0000357c       $pdata$?fin$0@?0???$?RV<lambda_842d9ff0dc9ef11c61343bbaebe7f885>@@AEAV<lambda_c5860995281e5c4ce005b3de8f5874ee>@@V<lambda_d90129c13df834fdcbf8d2b88dafcf2d>@@@?$__crt_seh_guarded_call@X@@QEAAX$$QEAV<lambda_842d9ff0dc9ef11c61343bbaebe7f885>@@AEAV<lambda_c5860995281e5c4ce005b3de8f5874ee>@@$$QEAV<lambda_d90129c13df834fdcbf8d2b88dafcf2d>@@@Z@4HA 000000018007b57c     libucrt:fflush.obj
 0004:0000357c       $pdata$?fin$0@?0???$?RV<lambda_c376a267cfb53b6959b3b692ec76b120>@@AEAV<lambda_9a32fed5bf61b6b509b2d3f6003082a1>@@V<lambda_572fbb9fa0ab338edf41edfd4b5fcc8d>@@@?$__crt_seh_guarded_call@H@@QEAAH$$QEAV<lambda_c376a267cfb53b6959b3b692ec76b120>@@AEAV<lambda_9a32fed5bf61b6b509b2d3f6003082a1>@@$$QEAV<lambda_572fbb9fa0ab338edf41edfd4b5fcc8d>@@@Z@4HA 000000018007b57c     libucrt:fflush.obj
 0004:0000357c       $pdata$?fin$0@?0???$?RV<lambda_0d412022a4b28cc8a401ea49574e8ae6>@@AEAV<lambda_a775ed57af18ba8e4d5dc780aa9068fe>@@V<lambda_975a71a6baa488a08f4e15f6b0339b9e>@@@?$__crt_seh_guarded_call@H@@QEAAH$$QEAV<lambda_0d412022a4b28cc8a401ea49574e8ae6>@@AEAV<lambda_a775ed57af18ba8e4d5dc780aa9068fe>@@$$QEAV<lambda_975a71a6baa488a08f4e15f6b0339b9e>@@@Z@4HA 000000018007b57c     libucrt:output.obj
 0004:0000357c       $pdata$?fin$0@?0???$?RV<lambda_84ec643ea9557e2f7dc01bb0e9624395>@@AEAV<lambda_ca71763b3c0644891230e4f79ea54fa6>@@V<lambda_439a761618c59b0600e24586724d733b>@@@?$__crt_seh_guarded_call@H@@QEAAH$$QEAV<lambda_84ec643ea9557e2f7dc01bb0e9624395>@@AEAV<lambda_ca71763b3c0644891230e4f79ea54fa6>@@$$QEAV<lambda_439a761618c59b0600e24586724d733b>@@@Z@4HA 000000018007b57c     libucrt:setvbuf.obj
 0004:00003588       $pdata$?fin$0@?0??update_thread_multibyte_data_internal@@YAPEAU__crt_multibyte_data@@QEAU__acrt_ptd@@QEAU1@@Z@4HA 000000018007b588     libucrt:mbctype.obj
 0004:00003594       $pdata$__acrt_update_thread_locale_data$fin$0 000000018007b594     libucrt:locale_refcounting.obj
 0004:000035a0       $pdata$_fcloseall$fin$0    000000018007b5a0     libucrt:closeall.obj
 0004:000035ac       $pdata$_write$fin$0        000000018007b5ac     libucrt:write.obj
 0004:000035ac       $pdata$?fin$0@?0???$common_lseek@_J@@YA_JH_JH@Z@4HA 000000018007b5ac     libucrt:lseek.obj
 0004:000035b8       $pdata$fclose$fin$0        000000018007b5b8     libucrt:fclose.obj
 0004:000035c4       $pdata$?fin$0@?0???$?RV<lambda_751a882b2c74d4b022dec766aa51a29a>@@AEAV<lambda_628dfdc04ba53c8bfc02c9951375f3f5>@@V<lambda_f6c7be5f7998530c34de24c7437d6b54>@@@?$__crt_seh_guarded_call@H@@QEAAH$$QEAV<lambda_751a882b2c74d4b022dec766aa51a29a>@@AEAV<lambda_628dfdc04ba53c8bfc02c9951375f3f5>@@$$QEAV<lambda_f6c7be5f7998530c34de24c7437d6b54>@@@Z@4HA 000000018007b5c4     libucrt:close.obj
 0004:000035c4       $pdata$?fin$0@?0???$?RV<lambda_a37b2b86f63e897a80ea819b0eb08c01>@@AEAV<lambda_38ce7e780aa69e748d6df282ebc68efe>@@V<lambda_99fb1378e971ab6e7edea83e3a7a83a2>@@@?$__crt_seh_guarded_call@H@@QEAAH$$QEAV<lambda_a37b2b86f63e897a80ea819b0eb08c01>@@AEAV<lambda_38ce7e780aa69e748d6df282ebc68efe>@@$$QEAV<lambda_99fb1378e971ab6e7edea83e3a7a83a2>@@@Z@4HA 000000018007b5c4     libucrt:commit.obj
 0004:000035d0       $pdata$_IsNonwritableInCurrentImage$filt$0 000000018007b5d0     LIBCMT:pesect.obj
 0004:000035dc       $pdata$??__F?oracledbTemplate_s@Oracledb@@0V?$Persistent@VFunctionTemplate@v8@@V?$NonCopyablePersistentTraits@VFunctionTemplate@v8@@@2@@Nan@@A@@YAXXZ 000000018007b5dc     njsOracle.obj
 0004:000035e8       $pdata$??__F?poolTemplate_s@Pool@@2V?$Persistent@VFunctionTemplate@v8@@V?$NonCopyablePersistentTraits@VFunctionTemplate@v8@@@2@@Nan@@A@@YAXXZ 000000018007b5e8     njsPool.obj
 0004:000035f4       $pdata$??__F?connectionTemplate_s@Connection@@2V?$Persistent@VFunctionTemplate@v8@@V?$NonCopyablePersistentTraits@VFunctionTemplate@v8@@@2@@Nan@@A@@YAXXZ 000000018007b5f4     njsConnection.obj
 0004:00003600       $pdata$??__F?resultSetTemplate_s@ResultSet@@2V?$Persistent@VFunctionTemplate@v8@@V?$NonCopyablePersistentTraits@VFunctionTemplate@v8@@@2@@Nan@@A@@YAXXZ 000000018007b600     njsResultSet.obj
 0004:0000360c       $pdata$??__F?iLobTemplate_s@ILob@@2V?$Persistent@VFunctionTemplate@v8@@V?$NonCopyablePersistentTraits@VFunctionTemplate@v8@@@2@@Nan@@A@@YAXXZ 000000018007b60c     njsIntLob.obj
 0004:00003618       $pdata$??__F?s_propPingName_@ConnImpl@@0V?$basic_string@DU?$char_traits@D@std@@V?$allocator@D@2@@std@@A@@YAXXZ 000000018007b618     dpiConnImpl.obj
 0004:00003624       $pdata$??__F_Fac_tidy_reg@std@@YAXXZ 000000018007b624     libcpmt:locale0.obj
 0004:00003630       $pdata$??__Fclassic_locale@std@@YAXXZ 000000018007b630     libcpmt:locale0.obj
 0004:0000363c       $pdata$??__Finit_atexit@@YAXXZ 000000018007b63c     libcpmt:iosptrs.obj
 0005:00000060       $R000000                   000000018007c060     * linker generated manifest res *

 Exports

  ordinal    name

        1    _register_oracledb_
